((lp0
(lp1
c__builtin__
set
p2
((lp3
tp4
Rp5
ag2
((lp6
S'telescope'
p7
aS'century'
p8
aS'recognize'
p9
aS'computer'
p10
aS'human'
p11
aS'rover'
p12
aS'solving'
p13
aS'strong ai'
p14
aS'machine'
p15
aS'field'
p16
aS'program'
p17
aS'intelligence'
p18
aS'interrogator'
p19
aS'intelligent'
p20
aS'artificial intelligence'
p21
aS'nature'
p22
aS'hubble telescope'
p23
aS'opportunity'
p24
aS'spirit'
p25
aS'building'
p26
aS'room'
p27
aS'rock'
p28
aS'vision'
p29
atp30
Rp31
aa(lp32
g2
((lp33
S'intelligence'
p34
aS'program'
p35
aS'intelligent'
p36
aS'artificial intelligence'
p37
atp38
Rp39
ag2
((lp40
S'relevant'
p41
aS'deliberation'
p42
aS'simple'
p43
aS'agent'
p44
aS'bounded rationality'
p45
aS'design'
p46
aS'table'
p47
aS'perfect'
p48
aS'environment'
p49
aS'access'
p50
aS'percept'
p51
aS'complex'
p52
aS'performance'
p53
aS'rational agent'
p54
aS'knowledge rich'
p55
aS'component'
p56
aS'subsumption architecture'
p57
aS'rationality'
p58
aS'performance measure'
p59
aS'agent program'
p60
aS'software'
p61
aS'percept sequence'
p62
aS'autonomous agent'
p63
aS'robot'
p64
aS'architecture'
p65
aS'behavior'
p66
aS'act'
p67
aS'rodney'
p68
aS'intelligent agent'
p69
aS'history'
p70
atp71
Rp72
aa(lp73
g2
((lp74
S'rover'
p75
aS'rational agent'
p76
aS'intelligence'
p77
aS'agent'
p78
aS'machine'
p79
aS'architecture'
p80
aS'performance'
p81
aS'spirit'
p82
aS'environment'
p83
atp84
Rp85
ag2
((lp86
S'agent refer'
p87
aS'puzzle'
p88
aS'queen'
p89
aS'space search'
p90
aS'module'
p91
aS'blank'
p92
aS'operator'
p93
aS'implicit state'
p94
aS'cross'
p95
aS'state'
p96
aS'formulation'
p97
aS'location'
p98
aS'state space'
p99
aS'describe'
p100
aS'goal state'
p101
aS'initial state'
p102
aS'reach'
p103
aS'water'
p104
aS'configuration'
p105
aS'successor'
p106
aS'current state'
p107
aS'goal test'
p108
aS'puzzle problem'
p109
aS'model'
p110
atp111
Rp112
aa(lp113
g2
((lp114
S'state space'
p115
aS'goal state'
p116
aS'initial state'
p117
aS'state'
p118
aS'operator'
p119
aS'successor'
p120
atp121
Rp122
ag2
((lp123
S'breadth'
p124
aS'search tree'
p125
aS'first node'
p126
aS'search strategy'
p127
aS'search algorithm'
p128
aS'city'
p129
aS'search space'
p130
aS'breadth first search'
p131
aS'space'
p132
aS'depth d'
p133
aS'depth first iterative deepening'
p134
aS'map'
p135
aS'notice'
p136
aS'search problem'
p137
aS'last class'
p138
aS'salesperson'
p139
aS'back of fringe'
p140
aS'search'
p141
aS'traveling salesperson'
p142
aS'left bank'
p143
aS'fringe'
p144
aS'solution'
p145
aS'iterative deepening search'
p146
aS'time and space'
p147
aS'depth'
p148
aS'hamiltonian path'
p149
aS'right bank'
p150
atp151
Rp152
aa(lp153
g2
((lp154
S'breadth'
p155
aS'search space'
p156
aS'fringe'
p157
aS'breadth first search'
p158
aS'search tree'
p159
aS'puzzle'
p160
aS'space'
p161
aS'search'
p162
aS'solution'
p163
aS'state'
p164
aS'depth'
p165
aS'goal state'
p166
aS'search algorithm'
p167
atp168
Rp169
ag2
((lp170
S'cost search'
p171
aS'heuristic function'
p172
aS'uniform cost'
p173
aS'optimum'
p174
aS'frontier'
p175
aS'correct position'
p176
aS'node n'
p177
aS'priority'
p178
aS'correct location'
p179
aS'bidirectional search'
p180
aS'node'
p181
aS'forward search'
p182
aS'distance'
p183
aS'first search'
p184
aS'expansion'
p185
aS'goal node'
p186
aS'path'
p187
aS'generate'
p188
aS'expand'
p189
aS'optimum path'
p190
aS'greedy search'
p191
aS'priority queue'
p192
aS'cost'
p193
aS't state'
p194
aS'space complexity'
p195
atp196
Rp197
aa(lp198
g2
((lp199
S'breadth'
p200
aS'search tree'
p201
aS'puzzle'
p202
aS'heuristic function'
p203
aS'cost'
p204
aS'search space'
p205
aS'breadth first search'
p206
aS'space'
p207
aS'state'
p208
aS'bidirectional search'
p209
aS'node'
p210
aS'state space'
p211
aS'goal state'
p212
aS'initial state'
p213
aS'first search'
p214
aS'goal node'
p215
aS'path'
p216
aS'configuration'
p217
aS'successor'
p218
aS'search'
p219
aS'fringe'
p220
aS'solution'
p221
aS'iterative deepening search'
p222
aS'depth'
p223
atp224
Rp225
ag2
((lp226
S'iterative deepening'
p227
aS'number'
p228
aS'hill climbing'
p229
aS'gallon'
p230
aS'ida star'
p231
aS'jug'
p232
aS'depth first search'
p233
aS'optimum solution'
p234
aS'hill'
p235
aS'start node'
p236
aS'empty'
p237
aS'local search'
p238
aS'current path'
p239
aS'worse'
p240
aS'track'
p241
aS'gallon jug'
p242
aS'f limit'
p243
aS'pair'
p244
aS'time complexity'
p245
aS'global minimum'
p246
aS'utmost'
p247
aS'algorithm'
p248
aS'iteration'
p249
aS'complexity'
p250
aS'limit'
p251
aS'loop'
p252
atp253
Rp254
aa(lp255
g2
((lp256
S'search tree'
p257
aS'number'
p258
aS'agent'
p259
aS'uniform cost'
p260
aS'human'
p261
aS'computer'
p262
aS'node n'
p263
aS'machine'
p264
aS'state'
p265
aS'bidirectional search'
p266
aS'node'
p267
aS'goal state'
p268
aS'cost search'
p269
aS'path'
p270
aS'generate'
p271
aS'expand'
p272
aS'successor'
p273
aS'search'
p274
aS'algorithm'
p275
aS'fringe'
p276
aS'solution'
p277
aS'depth'
p278
aS'cost'
p279
atp280
Rp281
ag2
((lp282
S'win'
p283
aS'move'
p284
aS'player'
p285
aS'static evaluation function'
p286
aS'agent search'
p287
aS'backgammon'
p288
aS'utility'
p289
aS'position'
p290
aS'pay'
p291
aS'max player'
p292
aS'uniform'
p293
aS'chess'
p294
aS'zero sum'
p295
aS'opponent'
p296
aS'direction'
p297
aS'initial position'
p298
aS'min player'
p299
aS'game'
p300
aS'b power'
p301
aS'game tree'
p302
aS'power d'
p303
aS'estimate'
p304
aS'utility value'
p305
aS'tic tac toe'
p306
aS'stone'
p307
aS'branching factor'
p308
aS'edge'
p309
aS'other player'
p310
aS'evaluation function'
p311
atp312
Rp313
aa(lp314
g2
((lp315
S'node'
p316
aS'depth'
p317
aS'search'
p318
aS'branching factor'
p319
aS'algorithm'
p320
aS'search tree'
p321
aS'win'
p322
aS'move'
p323
aS'number'
p324
aS'player'
p325
aS'game'
p326
aS'b power'
p327
aS'game tree'
p328
aS'power d'
p329
aS'path'
p330
aS'evaluation function'
p331
atp332
Rp333
ag2
((lp334
S'bound'
p335
aS'max ancestor'
p336
aS'exact minimax'
p337
aS'min'
p338
aS'minimax'
p339
aS'minimax search'
p340
aS'exact minimax value'
p341
aS'static evaluation'
p342
aS'score'
p343
aS'ply search'
p344
aS'max node'
p345
aS'ancestor'
p346
aS'evaluation'
p347
aS'order b'
p348
aS'value of min'
p349
aS'nim'
p350
aS'min node'
p351
aS'max'
p352
aS'diagram'
p353
aS'child'
p354
aS'node ordering'
p355
aS'minimax value'
p356
aS'horizon'
p357
aS'upper bound'
p358
aS'maximin'
p359
aS'root'
p360
atp361
Rp362
aa(lp363
g2
((lp364
S'node'
p365
aS'map'
p366
aS'search'
p367
aS'algorithm'
p368
aS'search tree'
p369
aS'queen'
p370
aS'depth first search'
p371
aS'solution'
p372
aS'state'
p373
aS'depth'
p374
aS'path'
p375
atp376
Rp377
ag2
((lp378
S'current assignment'
p379
aS'satisfyability problem'
p380
aS'coloring'
p381
aS'constraint'
p382
aS'constraint satisfaction'
p383
aS'assignment'
p384
aS'backtracking'
p385
aS'satisfaction problem'
p386
aS'cdi'
p387
aS'second queen'
p388
aS'choice'
p389
aS'satisfaction'
p390
aS'color'
p391
aS'job'
p392
aS'constraint propagation'
p393
aS'efer slide'
p394
aS'first queen'
p395
aS'csp'
p396
aS'third queen'
p397
aS'current domain'
p398
atp399
Rp400
aa(lp401
g2
((lp402
S'search'
p403
aS'room'
p404
aS'algorithm'
p405
aS'search tree'
p406
aS'satisfaction problem'
p407
aS'assignment'
p408
aS'solution'
p409
aS'constraint'
p410
aS'depth first search'
p411
aS'number'
p412
aS'satisfaction'
p413
aS'constraint satisfaction'
p414
aS'depth'
p415
aS'path'
p416
aS'choice'
p417
aS'intelligent'
p418
aS'constraint propagation'
p419
aS'backtracking'
p420
atp421
Rp422
ag2
((lp423
S'domain'
p424
aS'choice point'
p425
aS'arc'
p426
aS'chronological backtracking'
p427
aS'violation'
p428
aS'legal value'
p429
aS'forward checking'
p430
aS'assign'
p431
aS'queue'
p432
aS'class room'
p433
aS'time slot'
p434
aS'arc consistency'
p435
aS'neighbor'
p436
aS'consistency'
p437
aS'teacher'
p438
aS'check'
p439
atp440
Rp441
aa(lp442
g2
((lp443
S'environment'
p444
aS'domain'
p445
aS'intelligence'
p446
aS'machine'
p447
aS'behavior'
p448
aS'child'
p449
aS'operator'
p450
aS'intelligent'
p451
atp452
Rp453
ag2
((lp454
S'interpretation'
p455
aS'help'
p456
aS'sumit'
p457
aS'ram'
p458
aS'proposition'
p459
aS'gita'
p460
aS'knowledge'
p461
aS'intelligent behavior'
p462
aS'valid proposition'
p463
aS'propositional logic'
p464
aS'intelligent anil'
p465
aS'anil'
p466
aS'proposition p'
p467
aS'compound'
p468
aS'knowledge representation'
p469
aS'formulae'
p470
aS'world'
p471
aS'sentence p'
p472
aS'interpret'
p473
aS'particular world'
p474
aS'compound proposition'
p475
aS'valid sentence'
p476
aS'jyoti sudhir'
p477
aS'parenthesis'
p478
atp479
Rp480
aa(lp481
g2
((lp482
S'machine'
p483
aS'propositional logic'
p484
aS'proposition'
p485
aS'interpretation'
p486
atp487
Rp488
ag2
((lp489
S'false'
p490
aS'modus'
p491
aS'umbrella'
p492
aS'operation'
p493
aS'inference rule'
p494
aS'false true'
p495
aS'abc'
p496
aS'make'
p497
aS'technique'
p498
aS'false false'
p499
aS'truth value'
p500
aS'decision machine'
p501
aS'equilateral abc'
p502
aS'triangle'
p503
aS'morgan'
p504
aS'form'
p505
aS'convert'
p506
aS'clausal form'
p507
aS'sufficient condition'
p508
aS'disjunction'
p509
aS'conjunctive normal form'
p510
aS'truth table'
p511
aS'de morgan'
p512
aS'truth'
p513
aS'normal form'
p514
atp515
Rp516
aa(lp517
g2
((lp518
S'false'
p519
aS'proposition p'
p520
aS'number'
p521
aS'clausal form'
p522
aS'propositional logic'
p523
aS'proposition'
p524
aS'modus'
p525
aS'intelligent'
p526
atp527
Rp528
ag2
((lp529
S'natural number'
p530
aS'predicate'
p531
aS'tom milk'
p532
aS'drink tom'
p533
aS'mortal x'
p534
aS'drink'
p535
aS'life'
p536
aS'tom'
p537
aS'first order logic'
p538
aS'planet'
p539
aS'order logic'
p540
aS'predicate logic'
p541
aS'jill'
p542
aS'drink milk'
p543
aS'valid predicate'
p544
aS'type w'
p545
aS'mammal tom'
p546
aS'man tom'
p547
aS'milk'
p548
aS'logic'
p549
atp550
Rp551
aa(lp552
g2
((lp553
S'predicate'
p554
aS'form'
p555
aS'number'
p556
aS'predicate logic'
p557
aS'logic'
p558
aS'first order logic'
p559
aS'successor'
p560
atp561
Rp562
ag2
((lp563
S'perfect square x'
p564
aS'horn sentence'
p565
aS'perfect square'
p566
aS'universal'
p567
aS'horn'
p568
aS'elimination'
p569
aS'square'
p570
aS'exist'
p571
aS'sen'
p572
aS'prime p'
p573
aS'square of p'
p574
aS'prime number'
p575
aS'equality operator'
p576
aS'universal quantifier'
p577
aS'x dog'
p578
aS'universal elimination'
p579
aS'order predicate'
p580
aS'predecessor'
p581
aS'dog x'
p582
aS'express'
p583
aS'meaning'
p584
aS'birthday'
p585
aS'substitution'
p586
aS'date'
p587
aS'quantifier'
p588
aS'replace'
p589
aS'first order predicate'
p590
aS'prime'
p591
aS'sen prime'
p592
aS'equality'
p593
aS'square x'
p594
aS'prime y'
p595
aS'square p'
p596
aS'mother'
p597
aS'existential quantifier'
p598
aS'order'
p599
atp600
Rp601
aa(lp602
g2
((lp603
S'predicate'
p604
aS'abc'
p605
aS'room'
p606
aS'form'
p607
aS'logic'
p608
aS'propositional logic'
p609
aS'order'
p610
aS'clausal form'
p611
aS'predicate logic'
p612
aS'exist'
p613
aS'substitution'
p614
aS'equilateral abc'
p615
aS'first order predicate'
p616
aS'quantifier'
p617
atp618
Rp619
ag2
((lp620
S'disjunct'
p621
aS'someone'
p622
aS'scope of negation'
p623
aS'package'
p624
aS'clause'
p625
aS'package b'
p626
aS'negation'
p627
aS'null clause'
p628
aS'unification'
p629
aS'refutation'
p630
aS'resolve'
p631
aS'next step'
p632
aS'happy x'
p633
aS'scope'
p634
aS'resolvent'
p635
aS'resolution'
p636
aS'canonical form'
p637
aS'happy'
p638
atp639
Rp640
aa(lp641
g2
((lp642
S'node'
p643
aS'domain'
p644
aS'abc'
p645
aS'false'
p646
aS'knowledge'
p647
aS'form'
p648
aS'clause'
p649
aS'search space'
p650
aS'horn'
p651
aS'machine'
p652
aS'clausal form'
p653
aS'state'
p654
aS'knowledge representation'
p655
aS'search'
p656
aS'logic'
p657
aS'path'
p658
aS'resolution'
p659
atp660
Rp661
ag2
((lp662
S'heater'
p663
aS'wet road today'
p664
aS'inference'
p665
aS'inference machine'
p666
aS'antecedent part'
p667
aS'interpreter'
p668
aS'travel'
p669
aS'assertion'
p670
aS'wet road'
p671
aS'consequent'
p672
aS'horn clause'
p673
aS'third rule'
p674
aS'road today'
p675
aS'season'
p676
aS'consequent part'
p677
aS'inference mechanism'
p678
aS'rain today'
p679
aS'rule base'
p680
aS'control scheme'
p681
aS'execution'
p682
aS'antecedent'
p683
aS'fact base'
p684
aS'smoky'
p685
aS'rule'
p686
aS'match phase'
p687
aS'base'
p688
aS'implication'
p689
aS'road'
p690
atp691
Rp692
aa(lp693
g2
((lp694
S'city'
p695
aS'domain'
p696
aS'inference machine'
p697
aS'goal state'
p698
aS'knowledge'
p699
aS'space'
p700
aS'move'
p701
aS'search'
p702
aS'fact base'
p703
aS'order'
p704
aS'match phase'
p705
aS'state'
p706
aS'cost'
p707
aS'rule base'
p708
aS'rule'
p709
aS'human'
p710
aS'path'
p711
aS'base'
p712
aS'check'
p713
atp714
Rp715
ag2
((lp716
S'term memory'
p717
aS'particular state'
p718
aS'fire'
p719
aS'backward chaining'
p720
aS'working memory'
p721
aS'bus'
p722
aS'conflict resolution'
p723
aS'till'
p724
aS'switch'
p725
aS'dead end'
p726
aS'resolution strategy'
p727
aS'memory'
p728
aS'heuristic measure'
p729
aS'strategy'
p730
aS'conflict'
p731
atp732
Rp733
aa(lp734
g2
((lp735
S'node'
p736
aS'knowledge'
p737
aS'form'
p738
aS'color'
p739
aS'child'
p740
aS'meaning'
p741
aS'state'
p742
aS'proposition'
p743
aS'game'
p744
aS'tom'
p745
aS'knowledge representation'
p746
aS'logic'
p747
atp748
Rp749
ag2
((lp750
S'madonna'
p751
aS'marcus'
p752
aS'canary can'
p753
aS'ostrich can'
p754
aS'hierarchical network'
p755
aS'norwich'
p756
aS'hierarchy'
p757
aS'top level'
p758
aS'super ordinate'
p759
aS'salmon'
p760
aS'canary'
p761
aS'etc'
p762
aS'mammal'
p763
aS'representation'
p764
aS'concept animal'
p765
aS'super'
p766
aS'bird'
p767
aS'man'
p768
atp769
Rp770
aa(lp771
g2
((lp772
S'node'
p773
aS'marcus'
p774
aS'search'
p775
aS'inference'
p776
aS'knowledge'
p777
aS'form'
p778
aS'color'
p779
aS'arc'
p780
aS'representation'
p781
aS'path'
p782
aS'bird'
p783
aS'man'
p784
atp785
Rp786
ag2
((lp787
S'sparrow'
p788
aS'africa'
p789
aS'walk'
p790
aS'hair color'
p791
aS'inheritance'
p792
aS'current node'
p793
aS'height of john'
p794
aS'subclass'
p795
aS'nellie'
p796
aS'fido'
p797
aS'animal'
p798
aS'elephant'
p799
aS'rita'
p800
aS'head'
p801
aS'relationship'
p802
aS'pet bird'
p803
aS'path length'
p804
aS'instance of elephant'
p805
aS'default'
p806
aS'inherit'
p807
aS'ostrich'
p808
aS'semantic net'
p809
aS'length'
p810
aS'contrary'
p811
aS'property'
p812
atp813
Rp814
aa(lp815
g2
((lp816
S'inference'
p817
aS'knowledge'
p818
aS'relationship'
p819
aS'inheritance'
p820
aS'color'
p821
aS'elephant'
p822
aS'number'
p823
aS'rule'
p824
aS'bird'
p825
aS'order'
p826
aS'default'
p827
aS'knowledge representation'
p828
aS'fido'
p829
aS'human'
p830
aS'tom'
p831
aS'representation'
p832
aS'property'
p833
aS'milk'
p834
aS'etc'
p835
atp836
Rp837
ag2
((lp838
S'slot'
p839
aS'concept dog'
p840
aS'instance of dog'
p841
aS'boy'
p842
aS'super class'
p843
aS'scooter'
p844
aS'object'
p845
aS'type of teeth'
p846
aS'dog'
p847
aS'particular dog'
p848
aS'teeth'
p849
aS'instance'
p850
aS'tail'
p851
aS'color of skin'
p852
aS'skin'
p853
aS'owner'
p854
aS'type'
p855
aS'frame'
p856
atp857
Rp858
aa(lp859
g2
((lp860
S'space search'
p861
aS'representation'
p862
aS'false'
p863
aS'initial state'
p864
aS'search'
p865
aS'solution'
p866
aS'number'
p867
aS'agent'
p868
aS'search problem'
p869
aS'environment'
p870
aS'state'
p871
aS'proposition'
p872
aS'world'
p873
aS'goal state'
p874
aS'state space'
p875
aS'order'
p876
atp877
Rp878
ag2
((lp879
S'go store'
p880
aS'sequence'
p881
aS'situation calculus'
p882
aS'result of executing'
p883
aS'add list'
p884
aS'executing'
p885
aS'home'
p886
aS'formalism'
p887
aS'action go'
p888
aS'first order'
p889
aS'action pick'
p890
aS'delete list'
p891
aS'successor state'
p892
aS'objective'
p893
aS'achieve'
p894
aS'calculus'
p895
aS'description'
p896
aS'execute'
p897
aS'list'
p898
aS'pick up b'
p899
aS'store'
p900
aS'action'
p901
aS'block'
p902
atp903
Rp904
aa(lp905
g2
((lp906
S'sequence'
p907
aS'move'
p908
aS'number'
p909
aS'agent'
p910
aS'world'
p911
aS'table'
p912
aS'search space'
p913
aS'space'
p914
aS'state'
p915
aS'objective'
p916
aS'empty'
p917
aS'state space'
p918
aS'forward search'
p919
aS'goal state'
p920
aS'description'
p921
aS'initial state'
p922
aS'path'
p923
aS'search'
p924
aS'algorithm'
p925
aS'branching factor'
p926
aS'current state'
p927
aS'action'
p928
aS'order'
p929
atp930
Rp931
ag2
((lp932
S'satisfy'
p933
aS'right shoe'
p934
aS'move c'
p935
aS'sub goal'
p936
aS'goal'
p937
aS'progression'
p938
aS'sock'
p939
aS'right sock'
p940
aS'left shoe'
p941
aS'hand empty'
p942
aS'pick up x'
p943
aS'current goal'
p944
aS'backward search'
p945
aS'strip'
p946
aS'cake'
p947
aS'shoe'
p948
aS'pick'
p949
aS'regress'
p950
aS'conjunction'
p951
aS'regression'
p952
atp953
Rp954
aa(lp955
g2
((lp956
S'move c'
p957
aS'algorithm'
p958
aS'goal state'
p959
aS'goal'
p960
aS'initial state'
p961
aS'right sock'
p962
aS'search'
p963
aS'move'
p964
aS'sock'
p965
aS'number'
p966
aS'solution'
p967
aS'list'
p968
aS'state'
p969
aS'action'
p970
aS'table'
p971
aS'order'
p972
atp973
Rp974
ag2
((lp975
S'precondition'
p976
aS'unsafe'
p977
aS'planning algorithm'
p978
aS'planning'
p979
aS'causal link'
p980
aS'causal'
p981
aS'open precondition'
p982
aS'left sock'
p983
aS'new step'
p984
aS'flaw'
p985
aS'return'
p986
aS'aadd'
p987
aS'partial order'
p988
aS'step'
p989
aS'link'
p990
aS'plan'
p991
aS'sinf'
p992
aS'condition'
p993
aS'open condition'
p994
aS'planning problem'
p995
aS'unsafe link'
p996
aS'partial plan'
p997
aS'ordering'
p998
aS'agenda'
p999
aS'initial plan'
p1000
atp1001
Rp1002
aa(lp1003
g2
((lp1004
S'precondition'
p1005
aS'goal'
p1006
aS'initial state'
p1007
aS'partial order'
p1008
aS'search'
p1009
aS'number'
p1010
aS'solution'
p1011
aS'state'
p1012
aS'proposition'
p1013
aS'plan'
p1014
aS'branching factor'
p1015
aS'action'
p1016
aS'algorithm'
p1017
aS'order'
p1018
aS'condition'
p1019
atp1020
Rp1021
ag2
((lp1022
S'maintenance'
p1023
aS'garbage'
p1024
aS'wrap'
p1025
aS'inconsistent'
p1026
aS'carry'
p1027
aS'state level'
p1028
aS'graph'
p1029
aS'extraction'
p1030
aS'mutex'
p1031
aS'planning graph'
p1032
aS'next state'
p1033
aS'valid plan'
p1034
aS'level pi'
p1035
aS'solution extraction'
p1036
aS'graph expansion'
p1037
aS'cook'
p1038
aS'hold'
p1039
aS'present'
p1040
aS'level'
p1041
aS'action level'
p1042
aS'maintenance action'
p1043
aS'quiet'
p1044
aS'dinner'
p1045
aS'clean'
p1046
aS'previous level'
p1047
aS'graph plan'
p1048
atp1049
Rp1050
aa(lp1051
g2
((lp1052
S'domain'
p1053
aS'inference'
p1054
aS'goal'
p1055
aS'level'
p1056
aS'working memory'
p1057
aS'search'
p1058
aS'etc'
p1059
aS'number'
p1060
aS'rule'
p1061
aS'solution'
p1062
aS'machine'
p1063
aS'inference mechanism'
p1064
aS'state'
p1065
aS'base'
p1066
aS'memory'
p1067
aS'path'
p1068
aS'order'
p1069
aS'knowledge'
p1070
atp1071
Rp1072
ag2
((lp1073
S'gas in carburetor'
p1074
aS'facility'
p1075
aS'battery'
p1076
aS'inference engine'
p1077
aS'gas in tank'
p1078
aS'phase'
p1079
aS'expertise'
p1080
aS'recommendation'
p1081
aS'knowledge base'
p1082
aS'expert'
p1083
aS'doctor'
p1084
aS'system'
p1085
aS'user interface'
p1086
aS'knowledge acquisition'
p1087
aS'structure'
p1088
aS'match'
p1089
aS'conclusion'
p1090
aS'engine'
p1091
aS'shell'
p1092
aS'explanation'
p1093
aS'gas'
p1094
aS'mycin'
p1095
aS'user'
p1096
aS'gas in engine'
p1097
aS'interface'
p1098
aS'human expert'
p1099
aS'starter'
p1100
aS'cycle'
p1101
aS'expert system'
p1102
aS'car'
p1103
aS'gui'
p1104
aS'backward'
p1105
aS'organism'
p1106
atp1107
Rp1108
aa(lp1109
g2
((lp1110
S'someone'
p1111
aS'knowledge'
p1112
aS'expert'
p1113
aS'mycin'
p1114
aS'rule'
p1115
aS'etc'
p1116
aS'proposition'
p1117
aS'implication'
p1118
aS'organism'
p1119
aS'order'
p1120
atp1121
Rp1122
ag2
((lp1123
S'deductive reasoning'
p1124
aS'weaker'
p1125
aS'deal'
p1126
aS'impreciseness'
p1127
aS'mb prime'
p1128
aS'measure of belief'
p1129
aS'reasoning'
p1130
aS'strength'
p1131
aS'disbelief'
p1132
aS'tomorrow'
p1133
aS'wake up mohan'
p1134
aS'door'
p1135
aS'belief'
p1136
aS'hypothesis h'
p1137
aS'doorbell'
p1138
aS'wake'
p1139
aS'belief in h'
p1140
aS'door x'
p1141
aS'measure of disbelief'
p1142
aS'uncertainty'
p1143
aS'abductive reasoning'
p1144
aS'short circuit'
p1145
atp1146
Rp1147
aa(lp1148
g2
((lp1149
S'boy'
p1150
aS'antecedent'
p1151
aS'belief'
p1152
aS'min'
p1153
aS'max'
p1154
aS'mycin'
p1155
aS'rule'
p1156
aS'mb prime'
p1157
aS'measure of belief'
p1158
aS'car'
p1159
aS'implication'
p1160
aS'organism'
p1161
atp1162
Rp1163
ag2
((lp1164
S'confidence'
p1165
aS'sprinkler'
p1166
aS'combination'
p1167
aS'factor of h'
p1168
aS'certainty'
p1169
aS'wet'
p1170
aS'streptococcus'
p1171
aS'last night'
p1172
aS'factor'
p1173
aS'morphology'
p1174
aS'grass'
p1175
aS'certainty factor'
p1176
aS'infer'
p1177
aS'sharp teeth'
p1178
atp1179
Rp1180
aa(lp1181
g2
((lp1182
S'object'
p1183
aS'inference'
p1184
aS'knowledge'
p1185
aS'relationship'
p1186
aS'space'
p1187
aS'default'
p1188
aS'certainty'
p1189
aS'doorbell'
p1190
aS'number'
p1191
aS'rule'
p1192
aS'etc'
p1193
aS'uncertainty'
p1194
aS'fido'
p1195
aS'child'
p1196
aS'order'
p1197
atp1198
Rp1199
ag2
((lp1200
S'ball'
p1201
aS'uncertain'
p1202
aS'priori p'
p1203
aS'malaria'
p1204
aS'priori'
p1205
aS'blood'
p1206
aS'default reasoning'
p1207
aS'joint probability'
p1208
aS'causality'
p1209
aS'probability theory'
p1210
aS'sample space'
p1211
aS'event'
p1212
atp1213
Rp1214
aa(lp1215
g2
((lp1216
S'node'
p1217
aS'belief'
p1218
aS'graph'
p1219
aS'number'
p1220
aS'rule'
p1221
aS'event'
p1222
aS'priori'
p1223
aS'path'
p1224
aS'order'
p1225
aS'causal'
p1226
atp1227
Rp1228
ag2
((lp1229
S'iodine'
p1230
aS'ringing'
p1231
aS'probability'
p1232
aS'priori probability'
p1233
aS'evidence'
p1234
aS'probability of alarm'
p1235
aS'computation'
p1236
aS'somebody'
p1237
aS'children'
p1238
aS'goiter'
p1239
aS'lack of iodine'
p1240
aS'posteriori'
p1241
aS'bayesian approach'
p1242
aS'conditional probability'
p1243
aS'john'
p1244
aS'cause'
p1245
aS'fever'
p1246
aS'probability of john'
p1247
aS'parent'
p1248
aS'probability of b'
p1249
aS'earthquake'
p1250
aS'compute'
p1251
aS'scenario'
p1252
aS'alarm'
p1253
aS'evidence e'
p1254
aS'malnutrition'
p1255
aS'john calling'
p1256
aS'belief network'
p1257
atp1258
Rp1259
aa(lp1260
g2
((lp1261
S'predicate'
p1262
aS'form'
p1263
aS'expert'
p1264
aS'graph'
p1265
aS'uncertainty'
p1266
aS'number'
p1267
aS'etc'
p1268
aS'computer'
p1269
aS'truth'
p1270
aS'table'
p1271
atp1272
Rp1273
ag2
((lp1274
S'set'
p1275
aS'meter'
p1276
aS'height'
p1277
aS'set tall'
p1278
aS'element'
p1279
aS'crisp set'
p1280
aS'axis'
p1281
aS'temperature'
p1282
aS'medium height'
p1283
aS'notion of truth'
p1284
aS'case of fuzzy'
p1285
aS'belonging'
p1286
aS'medium'
p1287
aS'theory'
p1288
aS'degree'
p1289
aS'pressure'
p1290
aS'crisp'
p1291
aS'strong fever'
p1292
aS'set theory'
p1293
aS'age'
p1294
aS'set medium'
p1295
aS'person'
p1296
aS'tall'
p1297
aS'imprecise'
p1298
aS'notion'
p1299
atp1300
Rp1301
aa(lp1302
g2
((lp1303
S'set'
p1304
aS'number'
p1305
aS'height'
p1306
aS'square'
p1307
aS'set tall'
p1308
aS'table'
p1309
aS'crisp set'
p1310
aS'strength'
p1311
aS'temperature'
p1312
aS'min'
p1313
aS'tom'
p1314
aS'john'
p1315
aS'medium'
p1316
aS'degree'
p1317
aS'distance'
p1318
aS'max'
p1319
aS'antecedent'
p1320
aS'crisp'
p1321
aS'rule'
p1322
aS'element'
p1323
aS'etc'
p1324
aS'computer'
p1325
aS'form'
p1326
aS'truth'
p1327
aS'logic'
p1328
aS'tall'
p1329
aS'order'
p1330
atp1331
Rp1332
ag2
((lp1333
S'control'
p1334
aS'membership function'
p1335
aS'angle'
p1336
aS'tall will'
p1337
aS'power'
p1338
aS'fuzzy set tall'
p1339
aS'union'
p1340
aS'shift'
p1341
aS'curve'
p1342
aS'mew'
p1343
aS'fuzzification'
p1344
aS'membership'
p1345
aS'membership value'
p1346
aS'relation'
p1347
aS'positive medium'
p1348
aS'small shift'
p1349
aS'fuzzy'
p1350
aS'crisp value'
p1351
aS'intersection'
p1352
aS'fuzzy logic'
p1353
aS'fuzzy set'
p1354
atp1355
Rp1356
aa(lp1357
g2
((lp1358
S'environment'
p1359
aS'set'
p1360
aS'false'
p1361
aS'knowledge'
p1362
aS'form'
p1363
aS'space'
p1364
aS'color'
p1365
aS'object'
p1366
aS'etc'
p1367
aS'number'
p1368
aS'agent'
p1369
aS'system'
p1370
aS'machine'
p1371
aS'instance'
p1372
aS'game'
p1373
aS'program'
p1374
aS'rule'
p1375
aS'performance'
p1376
aS'model'
p1377
aS'order'
p1378
aS'description'
p1379
atp1380
Rp1381
ag2
((lp1382
S'diameter'
p1383
aS'function f'
p1384
aS'apple'
p1385
aS'concept learning'
p1386
aS'reinforcement'
p1387
aS'learning'
p1388
aS'derive'
p1389
aS'learner'
p1390
aS'learning problem'
p1391
aS'correct'
p1392
aS'round'
p1393
aS'patient'
p1394
aS'inductive inference'
p1395
aS'hand'
p1396
aS'tiger'
p1397
aS'understand'
p1398
aS'stem'
p1399
aS'task'
p1400
aS'database'
p1401
aS'inductive bias'
p1402
aS'experience'
p1403
aS'machine learning'
p1404
aS'region'
p1405
atp1406
Rp1407
aa(lp1408
g2
((lp1409
S'false true'
p1410
aS'search'
p1411
aS'set'
p1412
aS'false'
p1413
aS'description'
p1414
aS'algorithm'
p1415
aS'space'
p1416
aS'list'
p1417
aS'curve'
p1418
aS'number'
p1419
aS'rule'
p1420
aS'instance'
p1421
aS'concept learning'
p1422
aS'learning problem'
p1423
aS'objective'
p1424
aS'type'
p1425
aS'order'
p1426
atp1427
Rp1428
ag2
((lp1429
S'version'
p1430
aS'k fold'
p1431
aS'image'
p1432
aS'ludo'
p1433
aS'raw'
p1434
aS'bias'
p1435
aS'good hypothesis'
p1436
aS'preference bias'
p1437
aS'possible hypothesis'
p1438
aS'simpler'
p1439
aS'negative example'
p1440
aS'board'
p1441
aS'consistent'
p1442
aS'fold cross'
p1443
aS'pixel'
p1444
aS'digit'
p1445
aS'cross validation'
p1446
aS'positive example'
p1447
aS'hypothesis'
p1448
aS'preference'
p1449
aS'training example'
p1450
aS'fold cross validation'
p1451
aS'target concept'
p1452
aS'training'
p1453
aS'hypothesis space'
p1454
aS'learning algorithm'
p1455
aS'version space'
p1456
aS'set of training'
p1457
aS'set of hypothesis'
p1458
atp1459
Rp1460
aa(lp1461
g2
((lp1462
S'node'
p1463
aS'training'
p1464
aS'set'
p1465
aS'return'
p1466
aS'algorithm'
p1467
aS'color'
p1468
aS'season'
p1469
aS'number'
p1470
aS'state'
p1471
aS'hypothesis'
p1472
aS'set of training'
p1473
aS'root'
p1474
aS'training example'
p1475
aS'empty'
p1476
atp1477
Rp1478
ag2
((lp1479
S'subset'
p1480
aS'backrest'
p1481
aS'taste'
p1482
aS'attribute'
p1483
aS'loan'
p1484
aS'target attribute'
p1485
aS'leaf node'
p1486
aS'sample'
p1487
aS'entropy'
p1488
aS'greedy algorithm'
p1489
aS'chair'
p1490
aS'information content'
p1491
aS'leaf'
p1492
aS'impurity'
p1493
aS'sun'
p1494
aS'decision'
p1495
aS'construct'
p1496
aS'content'
p1497
aS'majority'
p1498
aS'same class'
p1499
aS'split'
p1500
aS'branch'
p1501
aS'income'
p1502
aS'decision attribute'
p1503
aS'barometer'
p1504
aS'food'
p1505
aS'material'
p1506
aS'gain'
p1507
aS'remainder'
p1508
aS'true error'
p1509
aS'subtree'
p1510
aS'distribution'
p1511
aS'information gain'
p1512
atp1513
Rp1514
aa(lp1515
g2
((lp1516
S'node'
p1517
aS'training'
p1518
aS'set'
p1519
aS'temperature'
p1520
aS'probability'
p1521
aS'attribute'
p1522
aS'decision'
p1523
aS'number'
p1524
aS'rule'
p1525
aS'entropy'
p1526
aS'algorithm'
p1527
aS'hypothesis'
p1528
aS'order'
p1529
aS'condition'
p1530
aS'information gain'
p1531
atp1532
Rp1533
ag2
((lp1534
S'phenomenon'
p1535
aS'decision tree'
p1536
aS'testing'
p1537
aS'overfit'
p1538
aS'pruning'
p1539
aS'size'
p1540
aS'test set'
p1541
aS'feature'
p1542
aS'improvement'
p1543
aS'fitting'
p1544
aS'grow'
p1545
aS'error pruning'
p1546
aS'accuracy'
p1547
aS'noise'
p1548
aS'train'
p1549
aS'post'
p1550
aS'data'
p1551
aS'class'
p1552
aS'care'
p1553
aS'training set'
p1554
aS'rule set'
p1555
aS'validation set'
p1556
aS'tree'
p1557
aS'rule post'
p1558
aS'data set'
p1559
aS'portion'
p1560
aS'stopping'
p1561
aS'validation'
p1562
aS'classifier'
p1563
atp1564
Rp1565
aa(lp1566
g2
((lp1567
S'training set'
p1568
aS'square'
p1569
aS'algorithm'
p1570
aS'decision tree'
p1571
aS'curve'
p1572
aS'decision'
p1573
aS'tree'
p1574
aS'training'
p1575
aS'rule'
p1576
aS'concept learning'
p1577
aS'computer'
p1578
aS'model'
p1579
aS'training example'
p1580
aS'order'
p1581
aS'structure'
p1582
atp1583
Rp1584
ag2
((lp1585
S'weight'
p1586
aS'computing'
p1587
aS'process'
p1588
aS'training rule'
p1589
aS'thresholding'
p1590
aS'linear unit'
p1591
aS'weight vector'
p1592
aS'summation'
p1593
aS'perceptron'
p1594
aS'descent'
p1595
aS'perform'
p1596
aS'sum'
p1597
aS'human brain'
p1598
aS'sigma wixi'
p1599
aS'threshold'
p1600
aS'wixi'
p1601
aS'minus sigma'
p1602
aS'neuron'
p1603
aS'processing'
p1604
aS'linear threshold'
p1605
aS'line'
p1606
aS'eeta'
p1607
aS'threshold unit'
p1608
aS'target'
p1609
aS'brain'
p1610
aS'xor function'
p1611
aS'work'
p1612
aS'straight line'
p1613
aS'gradient'
p1614
aS'gradient descent'
p1615
aS'vector'
p1616
aS'linear threshold unit'
p1617
aS'whole square'
p1618
aS'paradigm'
p1619
atp1620
Rp1621
aa(lp1622
g2
((lp1623
S'step'
p1624
aS'training'
p1625
aS'set'
p1626
aS'power'
p1627
aS'weight'
p1628
aS'linear threshold'
p1629
aS'decision'
p1630
aS'gradient descent'
p1631
aS'curve'
p1632
aS'number'
p1633
aS'vector'
p1634
aS'summation'
p1635
aS'fitting'
p1636
aS'square'
p1637
aS'threshold'
p1638
aS'weight vector'
p1639
aS'algorithm'
p1640
aS'training example'
p1641
aS'region'
p1642
aS'descent'
p1643
atp1644
Rp1645
ag2
((lp1646
S'slope'
p1647
aS'tau'
p1648
aS'del od'
p1649
aS'sigmoid'
p1650
aS'output unit'
p1651
aS'layer'
p1652
aS'surface'
p1653
aS'power minus'
p1654
aS'hidden unit'
p1655
aS'unit'
p1656
aS'back propagation'
p1657
aS'pink'
p1658
aS'momentum term'
p1659
aS'error'
p1660
aS'network'
p1661
aS'multilayer'
p1662
aS'error function'
p1663
aS'neural network'
p1664
aS'sigma x'
p1665
aS'sigmoid unit'
p1666
aS'hidden'
p1667
aS'od by del'
p1668
aS'function'
p1669
aS'del netd'
p1670
aS'linear'
p1671
aS'del wi'
p1672
aS'decision surface'
p1673
aS'hidden layer'
p1674
aS'e power'
p1675
aS'topology'
p1676
aS'target value'
p1677
aS'sigmoidal function'
p1678
aS'propagation'
p1679
aS'positive region'
p1680
aS'momentum'
p1681
aS'learn'
p1682
aS'sigmoid function'
p1683
aS'sigma'
p1684
atp1685
Rp1686
aa(lp1687
g2
((lp1688
S'set'
p1689
aS'probability'
p1690
aS'attribute'
p1691
aS'number'
p1692
aS'evidence'
p1693
aS'concept learning'
p1694
aS'learning'
p1695
aS'possible hypothesis'
p1696
aS'knowledge'
p1697
aS'decision'
p1698
aS'learner'
p1699
aS'instance'
p1700
aS'patient'
p1701
aS'belief'
p1702
aS'training'
p1703
aS'hypothesis'
p1704
aS'data'
p1705
aS'class'
p1706
aS'training set'
p1707
aS'algorithm'
p1708
aS'hypothesis space'
p1709
aS'rule'
p1710
aS'sum'
p1711
atp1712
Rp1713
ag2
((lp1714
S'classification'
p1715
aS'malignant tumor'
p1716
aS'new instance'
p1717
aS'p tumor'
p1718
aS'different hypothesis'
p1719
aS'entertainment'
p1720
aS'lab test'
p1721
aS'bayesian classification'
p1722
aS'document'
p1723
aS'posterior probability'
p1724
aS'naive'
p1725
aS'lab'
p1726
aS'prior knowledge'
p1727
aS'posterior'
p1728
aS'map hypothesis'
p1729
aS'bayesian'
p1730
aS'bayesian learning'
p1731
aS'likely classification'
p1732
aS'probabilistic learning'
p1733
aS'maximum'
p1734
aS'hmap'
p1735
aS'tumor'
p1736
aS'tumor by plus'
p1737
aS'prior probability'
p1738
aS'expression'
p1739
atp1740
Rp1741
aa(lp1742
g2
((lp1743
S'set'
p1744
aS'telescope'
p1745
aS'computer'
p1746
aS'learning'
p1747
aS'knowledge'
p1748
aS'person'
p1749
aS'system'
p1750
aS'machine'
p1751
aS'program'
p1752
aS'structure'
p1753
aS'john'
p1754
aS'form'
p1755
aS'processing'
p1756
aS'meaning'
p1757
aS'interpret'
p1758
aS'boy'
p1759
aS'search'
p1760
aS'algorithm'
p1761
aS'level'
p1762
aS'dog'
p1763
aS'etc'
p1764
aS'order'
p1765
atp1766
Rp1767
ag2
((lp1768
S'text'
p1769
aS'parsing'
p1770
aS'parse'
p1771
aS'noun phrase'
p1772
aS'dog ate'
p1773
aS'phrase'
p1774
aS'industrial plant'
p1775
aS'speak'
p1776
aS'information'
p1777
aS'language processing'
p1778
aS'application'
p1779
aS'book'
p1780
aS'speech'
p1781
aS'natural language processing'
p1782
aS'information retrieval'
p1783
aS'symbol'
p1784
aS'natural language'
p1785
aS'sort'
p1786
aS'plant'
p1787
aS'part of speech'
p1788
aS'tendulkar'
p1789
aS'park'
p1790
aS'understanding'
p1791
aS'word'
p1792
aS'common sense knowledge'
p1793
aS'bank'
p1794
aS'school'
p1795
aS'noun'
p1796
aS'language'
p1797
aS'syntax'
p1798
aS'verb phrase'
p1799
aS'analysis'
p1800
aS'sunset'
p1801
aS'english'
p1802
aS'retrieval'
p1803
atp1804
Rp1805
aa(lp1806
g2
((lp1807
S'domain'
p1808
aS'interpretation'
p1809
aS'text'
p1810
aS'frame'
p1811
aS'agent'
p1812
aS'noise'
p1813
aS'human'
p1814
aS'inference'
p1815
aS'knowledge'
p1816
aS'semantic net'
p1817
aS'system'
p1818
aS'machine'
p1819
aS'speech'
p1820
aS'tom'
p1821
aS'john'
p1822
aS'type'
p1823
aS'natural language'
p1824
aS'sort'
p1825
aS'ball'
p1826
aS'relationship'
p1827
aS'object'
p1828
aS'understanding'
p1829
aS'child'
p1830
aS'structure'
p1831
aS'man'
p1832
aS'boy'
p1833
aS'word'
p1834
aS'language'
p1835
aS'scenario'
p1836
aS'level'
p1837
aS'etc'
p1838
aS'order'
p1839
atp1840
Rp1841
ag2
((lp1842
S'mary ate spaghetti'
p1843
aS'beggar'
p1844
aS'sentence'
p1845
aS'feel'
p1846
aS'money'
p1847
aS'donald'
p1848
aS'parallel corpora'
p1849
aS'ate spaghetti'
p1850
aS'query'
p1851
aS'spaghetti'
p1852
aS'translation'
p1853
aS'subject'
p1854
aS'machine translation'
p1855
aS'script'
p1856
aS'movie'
p1857
aS'balloon'
p1858
aS'question'
p1859
aS'role'
p1860
aS'hindi'
p1861
aS'natural language understanding'
p1862
aS'issue'
p1863
aS'restaurant'
p1864
aS'verb'
p1865
aS'broke'
p1866
aS'baby'
p1867
aS'bulb'
p1868
aS'ticket'
p1869
aS'bread'
p1870
aS'grammar'
p1871
aS'movie hall'
p1872
aS'co agent'
p1873
aS'angry today'
p1874
aS'mary ate'
p1875
aS'kind man'
p1876
aS'light bulb'
p1877
atp1878
Rp1879
aa(lp1880
(dp1881
a(dp1882
g34
(F4.357550071966408
I12
tp1883
sg35
(F1.5779268003904527
I7
tp1884
sg36
(F4.357550071966408
I16
tp1885
sg37
(F4.357550071966408
I5
tp1886
sa(dp1887
g77
(F2.470644004099367
I9
tp1888
sg79
(F1.8912386833536874
I10
tp1889
sg83
(F4.165244723583587
I21
tp1890
sg81
(F2.1143702187080753
I9
tp1891
sg76
(F10.277346536194475
I5
tp1892
sg75
(F1.9158731668086246
I7
tp1893
sg82
(F1.22907730379554
I5
tp1894
sg80
(F1.4255724747678813
I5
tp1895
sg78
(F10.277346536194475
I99
tp1896
sa(dp1897
g119
(F3.1745912720497764
I9
tp1898
sg118
(F10.035481360151094
I108
tp1899
sg115
(F10.035481360151094
I34
tp1900
sg116
(F10.035481360151094
I12
tp1901
sg117
(F10.035481360151094
I16
tp1902
sg120
(F2.373188451747915
I5
tp1903
sa(dp1904
g155
(F1.238538890273873
I11
tp1905
sg159
(F11.321696228181226
I11
tp1906
sg160
(F1.5277222135031177
I7
tp1907
sg167
(F11.321696228181226
I11
tp1908
sg156
(F11.321696228181226
I5
tp1909
sg158
(F11.321696228181226
I11
tp1910
sg164
(F5.859251925716299
I51
tp1911
sg166
(F5.859251925716299
I16
tp1912
sg161
(F2.8578372866138544
I18
tp1913
sg162
(F11.321696228181226
I145
tp1914
sg157
(F2.341929019931419
I25
tp1915
sg163
(F2.310329962352971
I14
tp1916
sg165
(F2.0071312527419325
I11
tp1917
sa(dp1918
g200
(F1.0288007594048083
I6
tp1919
sg201
(F8.440276995702652
I6
tp1920
sg202
(F1.8033313247343776
I10
tp1921
sg203
(F2.6057835565652794
I7
tp1922
sg204
(F2.6460378143162164
I24
tp1923
sg205
(F8.440276995702652
I7
tp1924
sg206
(F8.440276995702652
I6
tp1925
sg207
(F4.225911052708902
I38
tp1926
sg223
(F2.0200796228318754
I21
tp1927
sg208
(F6.28822074532721
I61
tp1928
sg212
(F6.28822074532721
I7
tp1929
sg209
(F8.440276995702652
I6
tp1930
sg210
(F8.152855626366444
I50
tp1931
sg211
(F6.28822074532721
I16
tp1932
sg213
(F6.28822074532721
I5
tp1933
sg214
(F8.440276995702652
I25
tp1934
sg215
(F8.152855626366444
I6
tp1935
sg216
(F3.155154992096223
I31
tp1936
sg217
(F1.9629873756011813
I11
tp1937
sg218
(F1.4919167672020026
I8
tp1938
sg219
(F8.440276995702652
I91
tp1939
sg220
(F1.2223200959638065
I8
tp1940
sg221
(F4.737308561048773
I41
tp1941
sg222
(F8.440276995702652
I7
tp1942
sa(dp1943
g279
(F3.5355237611324886
I57
tp1944
sg257
(F8.048324937716659
I18
tp1945
sg258
(F2.83311041133745
I22
tp1946
sg259
(F1.7494513178560447
I10
tp1947
sg260
(F3.5355237611324886
I5
tp1948
sg261
(F1.6491819433037365
I6
tp1949
sg262
(F2.583474775892727
I5
tp1950
sg263
(F8.246547115472735
I6
tp1951
sg264
(F1.0924739370322012
I5
tp1952
sg265
(F3.8313807854372097
I28
tp1953
sg266
(F8.048324937716659
I5
tp1954
sg267
(F8.246547115472735
I66
tp1955
sg268
(F3.8313807854372097
I6
tp1956
sg269
(F8.048324937716659
I5
tp1957
sg270
(F2.909110809186021
I17
tp1958
sg271
(F1.6598656849022566
I7
tp1959
sg272
(F2.1051312700931697
I12
tp1960
sg273
(F1.9844198126194699
I7
tp1961
sg274
(F8.048324937716659
I80
tp1962
sg275
(F2.297829925722995
I10
tp1963
sg276
(F2.412921880283379
I21
tp1964
sg277
(F1.544715595379229
I10
tp1965
sg278
(F1.4352916590526128
I8
tp1966
sa(dp1967
g321
(F7.0644346711364125
I12
tp1968
sg322
(F1.2042919732923374
I5
tp1969
sg323
(F5.264536284896902
I25
tp1970
sg324
(F2.363616464103664
I14
tp1971
sg325
(F2.6680253312432907
I12
tp1972
sg316
(F10.459684948210867
I144
tp1973
sg326
(F7.707556234189125
I41
tp1974
sg327
(F1.7855148025397547
I13
tp1975
sg328
(F7.707556234189125
I19
tp1976
sg329
(F1.7855148025397547
I12
tp1977
sg330
(F1.6592727182317781
I30
tp1978
sg318
(F7.0644346711364125
I80
tp1979
sg319
(F1.0641913881084268
I5
tp1980
sg320
(F1.318226023491115
I5
tp1981
sg331
(F2.399977461918348
I7
tp1982
sg317
(F2.234355681871056
I15
tp1983
sa(dp1984
g369
(F6.79303803306017
I7
tp1985
sg370
(F2.0887030202415775
I31
tp1986
sg371
(F6.79303803306017
I7
tp1987
sg373
(F2.2148706078692046
I14
tp1988
sg365
(F3.4411168307352438
I19
tp1989
sg366
(F1.1166176608299323
I5
tp1990
sg375
(F1.342200434345619
I5
tp1991
sg367
(F6.79303803306017
I50
tp1992
sg368
(F1.981912064488888
I6
tp1993
sg372
(F2.6437362601585495
I17
tp1994
sg374
(F1.5789238968673613
I9
tp1995
sa(dp1996
g406
(F5.592138156523426
I7
tp1997
sg412
(F1.169272559863641
I5
tp1998
sg413
(F2.2357054950707678
I23
tp1999
sg419
(F7.0705120265392765
I14
tp2000
sg420
(F1.9911189156738769
I19
tp2001
sg411
(F5.592138156523426
I13
tp2002
sg407
(F2.3875078411091715
I5
tp2003
sg418
(F2.0714649562034686
I6
tp2004
sg414
(F7.0705120265392765
I23
tp2005
sg408
(F4.0154201095908775
I15
tp2006
sg417
(F1.5611853465925019
I10
tp2007
sg416
(F1.50614214489199
I6
tp2008
sg403
(F5.592138156523426
I42
tp2009
sg404
(F1.38060678567096
I7
tp2010
sg405
(F2.6700420844805084
I16
tp2011
sg410
(F7.0705120265392765
I59
tp2012
sg409
(F2.3008276583532115
I8
tp2013
sg415
(F1.8073230797239161
I13
tp2014
sa(dp2015
g445
(F2.033559104693523
I8
tp2016
sg446
(F4.857329229610808
I9
tp2017
sg450
(F1.8359203120045846
I9
tp2018
sg444
(F2.1941690000700635
I7
tp2019
sg447
(F3.2076059589143644
I18
tp2020
sg451
(F4.857329229610808
I40
tp2021
sg449
(F1.3209571635590818
I7
tp2022
sg448
(F2.009938722374082
I10
tp2023
sa(dp2024
g486
(F2.4202546109447862
I24
tp2025
sg485
(F6.232449933124392
I28
tp2026
sg483
(F1.414333410567913
I7
tp2027
sg484
(F6.232449933124392
I9
tp2028
sa(dp2029
g519
(F1.4773408517257018
I8
tp2030
sg521
(F2.4224116341646638
I22
tp2031
sg524
(F5.539973332859425
I23
tp2032
sg525
(F1.913083495387939
I12
tp2033
sg523
(F5.834900514168782
I28
tp2034
sg526
(F1.5427129465581695
I13
tp2035
sg520
(F5.539973332859425
I5
tp2036
sg522
(F1.7831820448010571
I7
tp2037
sa(dp2038
g556
(F1.6854642509531015
I23
tp2039
sg557
(F5.187193436968367
I17
tp2040
sg558
(F4.280133054882758
I44
tp2041
sg554
(F5.187193436968367
I43
tp2042
sg555
(F1.597578964020372
I7
tp2043
sg559
(F4.280133054882758
I22
tp2044
sg560
(F1.1110995433575424
I10
tp2045
sa(dp2046
g604
(F3.6323366012257368
I23
tp2047
sg612
(F3.6323366012257368
I17
tp2048
sg613
(F2.807259274442366
I8
tp2049
sg605
(F1.671220462222251
I21
tp2050
sg609
(F2.859420116592585
I10
tp2051
sg615
(F1.671220462222251
I9
tp2052
sg607
(F3.5985365432713583
I48
tp2053
sg611
(F3.5985365432713583
I31
tp2054
sg614
(F1.6979612296693456
I10
tp2055
sg617
(F2.892826868423094
I9
tp2056
sg616
(F3.6323366012257368
I6
tp2057
sg606
(F1.4587405617593596
I20
tp2058
sg608
(F2.859420116592585
I27
tp2059
sg610
(F3.4522643511575337
I19
tp2060
sa(dp2061
g644
(F1.1145980000008924
I5
tp2062
sg646
(F1.6371764766654366
I8
tp2063
sg649
(F1.844776010411306
I11
tp2064
sg645
(F1.108398325560803
I7
tp2065
sg647
(F4.39821886144311
I28
tp2066
sg652
(F1.4885648771296904
I10
tp2067
sg654
(F3.084224745754123
I23
tp2068
sg643
(F1.9228396438365047
I10
tp2069
sg648
(F3.7792298773612694
I26
tp2070
sg650
(F1.2140882123797812
I8
tp2071
sg655
(F4.39821886144311
I9
tp2072
sg658
(F1.5290568932861759
I6
tp2073
sg651
(F1.3419204019925184
I11
tp2074
sg656
(F1.2140882123797812
I9
tp2075
sg653
(F3.7792298773612694
I8
tp2076
sg657
(F3.6959993172347234
I20
tp2077
sg659
(F1.5295396102749503
I15
tp2078
sa(dp2079
g701
(F1.7950552973541858
I9
tp2080
sg696
(F2.2491784708201212
I6
tp2081
sg707
(F2.401439003201041
I8
tp2082
sg710
(F1.778233045292835
I6
tp2083
sg713
(F1.102993466725335
I6
tp2084
sg695
(F1.6299529138057016
I9
tp2085
sg700
(F1.8619162718712712
I10
tp2086
sg706
(F3.111254195581046
I23
tp2087
sg698
(F7.301528718602831
I6
tp2088
sg697
(F2.081243480359044
I5
tp2089
sg708
(F15.393470702284223
I7
tp2090
sg711
(F3.0213885827774334
I9
tp2091
sg699
(F1.6713279792230655
I7
tp2092
sg702
(F2.3286873237349717
I13
tp2093
sg703
(F3.893404899899866
I9
tp2094
sg709
(F15.393470702284223
I98
tp2095
sg705
(F1.7338527424285965
I5
tp2096
sg712
(F2.4598328213283436
I17
tp2097
sg704
(F1.4738749936161621
I6
tp2098
sa(dp2099
g739
(F1.0193140105978733
I5
tp2100
sg740
(F1.0871690924193849
I5
tp2101
sg743
(F2.1475457175346055
I7
tp2102
sg737
(F3.107682563721403
I21
tp2103
sg742
(F1.5631877998725052
I5
tp2104
sg745
(F1.60010245148271
I15
tp2105
sg736
(F3.4925376349285515
I8
tp2106
sg738
(F1.709683676510957
I9
tp2107
sg741
(F2.8564108643540176
I16
tp2108
sg746
(F3.107682563721403
I6
tp2109
sg744
(F1.5286123000600327
I13
tp2110
sg747
(F1.5355839418459079
I6
tp2111
sa(dp2112
g776
(F4.911437916957194
I8
tp2113
sg779
(F1.2690613424583344
I8
tp2114
sg780
(F1.640267156685797
I5
tp2115
sg778
(F1.636677105577029
I8
tp2116
sg777
(F1.2527464573280276
I6
tp2117
sg783
(F2.3215219024442026
I13
tp2118
sg773
(F4.17917806207133
I14
tp2119
sg782
(F1.5073723280612872
I8
tp2120
sg774
(F1.5208321071593227
I10
tp2121
sg775
(F1.946800684925286
I8
tp2122
sg784
(F1.2510123155384134
I6
tp2123
sg781
(F1.4666799826219035
I7
tp2124
sa(dp2125
g817
(F2.744211752484116
I6
tp2126
sg821
(F2.3376347939634723
I12
tp2127
sg823
(F2.429158457310336
I15
tp2128
sg831
(F3.1978031348492233
I28
tp2129
sg830
(F2.6829813851299993
I27
tp2130
sg834
(F1.0998030597271105
I10
tp2131
sg818
(F1.676377264434418
I8
tp2132
sg820
(F2.4689208453786344
I7
tp2133
sg829
(F2.9222530342254585
I27
tp2134
sg822
(F1.326319166979189
I10
tp2135
sg825
(F2.145492871769504
I12
tp2136
sg819
(F1.10313106074274
I6
tp2137
sg828
(F1.9485108118016714
I7
tp2138
sg827
(F1.3557098298695789
I8
tp2139
sg824
(F2.280453045155779
I7
tp2140
sg835
(F1.410308832000092
I5
tp2141
sg832
(F1.9485108118016714
I12
tp2142
sg833
(F1.1540782854368525
I5
tp2143
sg826
(F1.8852259033882075
I7
tp2144
sa(dp2145
g863
(F1.1490992126240083
I8
tp2146
sg869
(F3.8492356238240215
I5
tp2147
sg868
(F6.343149212513702
I41
tp2148
sg867
(F1.392576029631361
I7
tp2149
sg861
(F3.8492356238240215
I10
tp2150
sg870
(F2.949572783409808
I10
tp2151
sg871
(F9.37128773679261
I120
tp2152
sg875
(F9.37128773679261
I14
tp2153
sg874
(F9.37128773679261
I8
tp2154
sg864
(F9.37128773679261
I21
tp2155
sg873
(F4.256572407682557
I37
tp2156
sg865
(F3.8492356238240215
I33
tp2157
sg866
(F1.4469355151515728
I5
tp2158
sg872
(F6.490161008580108
I18
tp2159
sg862
(F2.022168398189498
I7
tp2160
sg876
(F2.4852951233070772
I15
tp2161
sa(dp2162
g907
(F1.0443123613217995
I5
tp2163
sg909
(F1.884000743499886
I8
tp2164
sg923
(F1.7308313980703618
I11
tp2165
sg912
(F1.4705158377751792
I20
tp2166
sg908
(F1.6214535531738057
I22
tp2167
sg913
(F7.099397286531538
I5
tp2168
sg914
(F1.5941108387254217
I17
tp2169
sg915
(F9.036861992500372
I134
tp2170
sg916
(F2.207727636969685
I7
tp2171
sg917
(F1.246500368929405
I12
tp2172
sg918
(F9.036861992500372
I8
tp2173
sg919
(F7.099397286531538
I12
tp2174
sg920
(F9.036861992500372
I24
tp2175
sg921
(F1.340657128407948
I8
tp2176
sg922
(F9.036861992500372
I31
tp2177
sg910
(F4.907409151060216
I45
tp2178
sg911
(F1.661219210892373
I11
tp2179
sg924
(F7.099397286531538
I65
tp2180
sg925
(F4.346974379606646
I24
tp2181
sg926
(F1.250838988043462
I5
tp2182
sg927
(F9.036861992500372
I12
tp2183
sg928
(F10.489319275437618
I83
tp2184
sg929
(F3.386194638664661
I23
tp2185
sa(dp2186
g962
(F1.0736820937833205
I8
tp2187
sg964
(F1.0028853662116644
I11
tp2188
sg971
(F2.1832536566388328
I23
tp2189
sg960
(F3.4627122006250044
I27
tp2190
sg965
(F1.0736820937833205
I16
tp2191
sg969
(F4.413649239942484
I57
tp2192
sg957
(F1.0028853662116644
I5
tp2193
sg959
(F4.413649239942484
I10
tp2194
sg961
(F4.413649239942484
I30
tp2195
sg966
(F1.0039311433689908
I6
tp2196
sg963
(F1.744632098950059
I6
tp2197
sg958
(F2.401591780454635
I14
tp2198
sg968
(F1.1593134287689772
I8
tp2199
sg967
(F1.4313278474831246
I8
tp2200
sg970
(F5.801851307501442
I50
tp2201
sg972
(F3.5098971575285134
I28
tp2202
sa(dp2203
g1005
(F3.979666512000233
I34
tp2204
sg1010
(F1.681391765995012
I12
tp2205
sg1013
(F6.223433047441499
I33
tp2206
sg1006
(F4.052318605964305
I22
tp2207
sg1012
(F4.629164315122877
I62
tp2208
sg1007
(F4.629164315122877
I22
tp2209
sg1008
(F1.709724939504932
I6
tp2210
sg1014
(F5.501187630595054
I59
tp2211
sg1019
(F2.241539232638412
I10
tp2212
sg1009
(F3.3578898232549315
I24
tp2213
sg1017
(F2.5764964496369966
I14
tp2214
sg1015
(F1.299259468024062
I6
tp2215
sg1011
(F2.8597797377183998
I30
tp2216
sg1016
(F9.447415048637474
I101
tp2217
sg1018
(F1.709724939504932
I9
tp2218
sa(dp2219
g1053
(F3.3931227332006797
I15
tp2220
sg1054
(F3.8708055747185335
I19
tp2221
sg1060
(F2.3868728898699754
I7
tp2222
sg1055
(F2.618342237257291
I11
tp2223
sg1063
(F1.3371898926512324
I5
tp2224
sg1067
(F2.5277850557043546
I15
tp2225
sg1065
(F2.847146077339659
I19
tp2226
sg1057
(F2.5277850557043546
I15
tp2227
sg1064
(F3.8708055747185335
I7
tp2228
sg1066
(F3.0095446252343705
I18
tp2229
sg1068
(F2.1306923510308557
I6
tp2230
sg1070
(F7.160984969420651
I46
tp2231
sg1058
(F2.0203843151582412
I9
tp2232
sg1056
(F2.8510668436430215
I9
tp2233
sg1062
(F1.7796717925719072
I5
tp2234
sg1061
(F13.927153591356422
I60
tp2235
sg1059
(F1.7465397038900652
I6
tp2236
sg1069
(F3.517317398758977
I13
tp2237
sa(dp2238
g1112
(F1.7682893538030195
I11
tp2239
sg1113
(F3.535725684201106
I9
tp2240
sg1111
(F1.7724834457199496
I12
tp2241
sg1114
(F1.4006165892995135
I6
tp2242
sg1118
(F2.6031520847040515
I17
tp2243
sg1119
(F2.209273371748113
I10
tp2244
sg1115
(F4.469457204439486
I18
tp2245
sg1116
(F1.2900955602035973
I5
tp2246
sg1117
(F3.7016817592870317
I16
tp2247
sg1120
(F2.2263225734370997
I7
tp2248
sa(dp2249
g1157
(F2.2114058730945456
I6
tp2250
sg1158
(F3.9825688510733945
I11
tp2251
sg1153
(F1.3865029670651206
I6
tp2252
sg1152
(F3.9825688510733945
I21
tp2253
sg1150
(F1.1486631877894111
I5
tp2254
sg1154
(F1.2977279492504263
I5
tp2255
sg1155
(F1.3711542777738859
I7
tp2256
sg1151
(F1.7342136271946695
I9
tp2257
sg1159
(F1.5208997181681188
I6
tp2258
sg1156
(F8.033513012486642
I58
tp2259
sg1160
(F1.3320503594297235
I5
tp2260
sg1161
(F1.9782527938363987
I12
tp2261
sa(dp2262
g1190
(F1.405799753113727
I13
tp2263
sg1184
(F3.0602973910038997
I9
tp2264
sg1191
(F2.610538937785471
I10
tp2265
sg1185
(F3.2294723894246244
I12
tp2266
sg1187
(F1.5464665841836074
I10
tp2267
sg1195
(F1.699681344341799
I8
tp2268
sg1186
(F1.4431575492291726
I5
tp2269
sg1183
(F1.4627802610074236
I6
tp2270
sg1196
(F1.5016221776603111
I6
tp2271
sg1188
(F2.2479543129237665
I10
tp2272
sg1189
(F2.563377956098532
I11
tp2273
sg1194
(F4.480466585344927
I17
tp2274
sg1192
(F6.515495751449664
I21
tp2275
sg1193
(F2.144839323660387
I5
tp2276
sg1197
(F1.7653112561032906
I5
tp2277
sa(dp2278
g1220
(F2.2665827639163756
I13
tp2279
sg1222
(F2.843368327607193
I8
tp2280
sg1219
(F1.6587134019287357
I7
tp2281
sg1226
(F2.602555036101459
I12
tp2282
sg1223
(F2.0816693499249515
I22
tp2283
sg1217
(F5.267335412209101
I44
tp2284
sg1218
(F3.3824566604768465
I26
tp2285
sg1224
(F1.3671485011691749
I15
tp2286
sg1221
(F1.9856977221526164
I10
tp2287
sg1225
(F1.8933011388989476
I6
tp2288
sa(dp2289
g1262
(F2.121120838753632
I10
tp2290
sg1269
(F2.19781114116504
I6
tp2291
sg1271
(F1.2238838569581274
I6
tp2292
sg1264
(F1.7340869266469463
I5
tp2293
sg1268
(F1.6934228959833035
I5
tp2294
sg1265
(F1.2599993352976493
I6
tp2295
sg1267
(F2.664101441303178
I8
tp2296
sg1266
(F2.25829565134722
I8
tp2297
sg1263
(F1.2974425312182545
I7
tp2298
sg1270
(F1.3632632644077773
I10
tp2299
sa(dp2300
g1317
(F2.1226258137198495
I17
tp2301
sg1305
(F2.0044227272431705
I11
tp2302
sg1306
(F1.1288801576469831
I6
tp2303
sg1304
(F8.69372628641921
I111
tp2304
sg1308
(F8.69372628641921
I9
tp2305
sg1309
(F1.7025524695762768
I7
tp2306
sg1316
(F1.8916504783750994
I20
tp2307
sg1310
(F8.69372628641921
I15
tp2308
sg1311
(F1.2882769370049214
I5
tp2309
sg1312
(F2.2635764043552378
I10
tp2310
sg1313
(F2.2012126437853907
I17
tp2311
sg1307
(F2.046520768491414
I11
tp2312
sg1314
(F1.8351016720099098
I12
tp2313
sg1315
(F1.8457142702049456
I13
tp2314
sg1326
(F1.7787179339554742
I7
tp2315
sg1319
(F1.9372384561557223
I13
tp2316
sg1329
(F3.2794043527755132
I36
tp2317
sg1320
(F1.963953818892588
I9
tp2318
sg1321
(F3.28871250578523
I28
tp2319
sg1322
(F5.021946032723976
I21
tp2320
sg1323
(F1.9468425762843955
I5
tp2321
sg1324
(F2.0774156837962785
I10
tp2322
sg1325
(F3.335100112585797
I6
tp2323
sg1327
(F1.2245362190802989
I7
tp2324
sg1328
(F1.721051191974623
I11
tp2325
sg1330
(F1.4274029308051905
I5
tp2326
sg1318
(F1.5493518127593027
I9
tp2327
sa(dp2328
g1360
(F3.8777600861047414
I44
tp2329
sg1361
(F1.4594335525577806
I10
tp2330
sg1365
(F1.852281357016571
I10
tp2331
sg1368
(F1.9430537780549533
I9
tp2332
sg1369
(F1.4016088152783803
I10
tp2333
sg1371
(F3.889044256840947
I17
tp2334
sg1362
(F3.555640556478833
I25
tp2335
sg1364
(F2.474613985900613
I17
tp2336
sg1370
(F5.489670770099704
I36
tp2337
sg1359
(F1.6173743805385943
I8
tp2338
sg1372
(F3.4644301687273327
I14
tp2339
sg1374
(F2.2496373962697085
I7
tp2340
sg1376
(F2.797759633599492
I18
tp2341
sg1379
(F1.500848918024785
I8
tp2342
sg1363
(F2.3212508820572917
I10
tp2343
sg1366
(F2.4729566981330966
I9
tp2344
sg1373
(F1.9495708810931918
I7
tp2345
sg1375
(F4.218135573103559
I6
tp2346
sg1367
(F2.430120341162532
I8
tp2347
sg1377
(F1.601041290631405
I5
tp2348
sg1378
(F1.9419793289906488
I11
tp2349
sa(dp2350
g1412
(F7.917155067681643
I100
tp2351
sg1413
(F1.5910391971345197
I19
tp2352
sg1411
(F1.7725951765826808
I13
tp2353
sg1419
(F3.268357931605419
I14
tp2354
sg1422
(F3.1503443708679577
I5
tp2355
sg1410
(F1.5910391971345197
I5
tp2356
sg1416
(F5.379515990463551
I92
tp2357
sg1418
(F1.1937413271204935
I7
tp2358
sg1421
(F3.4932357211940213
I14
tp2359
sg1423
(F3.1503443708679577
I9
tp2360
sg1424
(F1.909282441484311
I9
tp2361
sg1425
(F2.246570678184773
I5
tp2362
sg1414
(F1.1440154559154512
I5
tp2363
sg1415
(F5.068736919365415
I30
tp2364
sg1417
(F1.1424163935281153
I8
tp2365
sg1420
(F1.6506695628181025
I6
tp2366
sg1426
(F1.9482664845700115
I7
tp2367
sa(dp2368
g1465
(F3.7188499819152803
I38
tp2369
sg1470
(F2.472599204537022
I16
tp2370
sg1468
(F1.131136459534848
I5
tp2371
sg1471
(F1.7454102183986109
I12
tp2372
sg1476
(F1.144664769643672
I5
tp2373
sg1463
(F5.193788333464451
I41
tp2374
sg1466
(F1.0106923179371625
I5
tp2375
sg1469
(F1.059173007500389
I7
tp2376
sg1472
(F1.4526680468318571
I5
tp2377
sg1475
(F6.5420253479238974
I9
tp2378
sg1464
(F4.436411635409663
I54
tp2379
sg1467
(F5.008369840194959
I28
tp2380
sg1473
(F4.436411635409663
I8
tp2381
sg1474
(F1.3731305369218703
I11
tp2382
sa(dp2383
g1519
(F8.526814878223226
I92
tp2384
sg1522
(F7.708540914074161
I28
tp2385
sg1524
(F1.497859605647538
I5
tp2386
sg1526
(F2.5954067757565054
I21
tp2387
sg1520
(F2.2339895991881153
I16
tp2388
sg1523
(F6.669428056579827
I60
tp2389
sg1529
(F1.8400052386507486
I8
tp2390
sg1517
(F5.908067270523166
I44
tp2391
sg1521
(F1.1782729674804386
I7
tp2392
sg1528
(F1.0617642927566115
I10
tp2393
sg1530
(F1.3246895506487562
I5
tp2394
sg1518
(F4.103116189604443
I37
tp2395
sg1527
(F3.038064868347119
I17
tp2396
sg1525
(F4.666819013221276
I24
tp2397
sg1531
(F1.670606613117227
I6
tp2398
sa(dp2399
g1569
(F1.0402255414543276
I9
tp2400
sg1577
(F2.2233948457090795
I5
tp2401
sg1578
(F5.281568535954191
I6
tp2402
sg1573
(F2.5756400791888683
I20
tp2403
sg1571
(F2.5756400791888683
I8
tp2404
sg1574
(F1.7191351536905057
I9
tp2405
sg1568
(F4.8027721947107755
I5
tp2406
sg1580
(F4.8027721947107755
I10
tp2407
sg1582
(F2.0969771736892833
I6
tp2408
sg1575
(F4.8027721947107755
I40
tp2409
sg1570
(F2.8218487293476895
I10
tp2410
sg1572
(F2.1794458795915865
I12
tp2411
sg1576
(F1.4005553557076578
I8
tp2412
sg1579
(F1.1506884240309394
I5
tp2413
sg1581
(F1.928510693205563
I7
tp2414
sa(dp2415
g1626
(F1.8614451784454218
I9
tp2416
sg1628
(F4.6136193512500645
I16
tp2417
sg1639
(F4.6136193512500645
I5
tp2418
sg1637
(F1.0116300131104516
I6
tp2419
sg1635
(F1.2014402674557467
I7
tp2420
sg1638
(F1.1458318793279276
I8
tp2421
sg1633
(F2.368719551885185
I10
tp2422
sg1630
(F2.5524551715877957
I18
tp2423
sg1636
(F1.40512720774118
I5
tp2424
sg1627
(F1.9824331963438127
I13
tp2425
sg1629
(F3.335374561342764
I5
tp2426
sg1641
(F5.160390531757352
I6
tp2427
sg1643
(F2.0830045074347905
I15
tp2428
sg1625
(F5.160390531757352
I28
tp2429
sg1640
(F1.425040447146365
I6
tp2430
sg1642
(F1.641881914074601
I15
tp2431
sg1632
(F1.2316004262823745
I5
tp2432
sg1624
(F1.6098388195551045
I5
tp2433
sg1631
(F2.178857584108319
I15
tp2434
sg1634
(F1.6074748156613832
I6
tp2435
sa(dp2436
g1689
(F1.858181289879259
I14
tp2437
sg1690
(F9.197698217177761
I57
tp2438
sg1691
(F4.654577384810817
I15
tp2439
sg1692
(F2.350224081282137
I15
tp2440
sg1693
(F1.859358118457434
I16
tp2441
sg1694
(F1.3526365214589702
I6
tp2442
sg1695
(F1.3526365214589702
I41
tp2443
sg1696
(F8.40131824273541
I5
tp2444
sg1697
(F1.2767341494904207
I6
tp2445
sg1698
(F1.490271649118934
I6
tp2446
sg1699
(F1.0403940641907283
I5
tp2447
sg1700
(F2.364924655027148
I16
tp2448
sg1701
(F1.4221698558696816
I15
tp2449
sg1702
(F1.3940808584615585
I7
tp2450
sg1707
(F2.418140042501249
I6
tp2451
sg1704
(F8.40131824273541
I115
tp2452
sg1705
(F3.2476337297114717
I25
tp2453
sg1706
(F5.101951501628962
I30
tp2454
sg1703
(F2.418140042501249
I22
tp2455
sg1708
(F3.207984509018811
I8
tp2456
sg1709
(F8.40131824273541
I13
tp2457
sg1710
(F1.9797294878068503
I12
tp2458
sg1711
(F1.4244905860906925
I5
tp2459
sa(dp2460
g1752
(F1.957798585419959
I7
tp2461
sg1744
(F1.3799767890960326
I5
tp2462
sg1745
(F1.0927194400947522
I13
tp2463
sg1746
(F4.332445383359096
I14
tp2464
sg1747
(F1.297544066435084
I9
tp2465
sg1748
(F3.9134406564009248
I18
tp2466
sg1749
(F1.3531299846892044
I5
tp2467
sg1750
(F2.5266048495685816
I12
tp2468
sg1751
(F1.464027379912297
I10
tp2469
sg1755
(F1.4780477869638173
I5
tp2470
sg1753
(F2.0624486919707303
I8
tp2471
sg1756
(F1.6338667968307328
I17
tp2472
sg1760
(F1.6731257955482852
I7
tp2473
sg1757
(F3.0288319647171886
I30
tp2474
sg1758
(F2.2247302288121324
I6
tp2475
sg1759
(F1.09568997506988
I5
tp2476
sg1754
(F1.2131279476717056
I7
tp2477
sg1761
(F2.777675754010388
I7
tp2478
sg1762
(F2.404873137448425
I8
tp2479
sg1763
(F2.5524544847933943
I15
tp2480
sg1764
(F2.790466552441023
I10
tp2481
sg1765
(F2.3043876259159037
I9
tp2482
sa(dp2483
g1809
(F1.1555307277110742
I5
tp2484
sg1810
(F1.7849275842802088
I10
tp2485
sg1811
(F4.34154326671664
I19
tp2486
sg1808
(F2.6066959788330757
I11
tp2487
sg1812
(F2.5891335407175338
I17
tp2488
sg1821
(F1.8264429471180517
I7
tp2489
sg1826
(F1.0990125471226242
I7
tp2490
sg1814
(F1.7507226769357063
I5
tp2491
sg1816
(F3.4823198745081925
I16
tp2492
sg1817
(F3.4641180793320405
I5
tp2493
sg1838
(F3.0062138156783544
I13
tp2494
sg1818
(F3.04641228416338
I11
tp2495
sg1819
(F2.4213421927695427
I14
tp2496
sg1820
(F2.1947936197628946
I14
tp2497
sg1822
(F3.023631841584984
I22
tp2498
sg1823
(F1.783081350359947
I5
tp2499
sg1824
(F6.758513928905577
I20
tp2500
sg1825
(F2.3678108147848214
I7
tp2501
sg1813
(F1.1100623512461523
I6
tp2502
sg1815
(F4.116181657483071
I10
tp2503
sg1828
(F2.7622868931375906
I12
tp2504
sg1829
(F2.730308603429955
I17
tp2505
sg1827
(F1.69268528196536
I5
tp2506
sg1830
(F1.3274121382497088
I6
tp2507
sg1831
(F2.622654419358854
I11
tp2508
sg1833
(F1.6133621901869173
I7
tp2509
sg1834
(F2.490626769590611
I8
tp2510
sg1836
(F2.124419581108275
I7
tp2511
sg1835
(F6.758513928905577
I32
tp2512
sg1837
(F1.7996036612103192
I5
tp2513
sg1832
(F1.2877772930723594
I7
tp2514
sg1839
(F2.7870765696315405
I13
tp2515
sa(lp2516
(lp2517
F0.0
aF0.0
aF0.0
aF0.0
aF0.0
aF0.0
aF0.0
aF0.0
aF0.0
aF0.0
aF0.0
aF0.0
aF0.0
aF0.0
aF0.0
aF0.0
aF0.0
aF0.0
aF0.0
aF0.0
aF0.0
aF0.0
aF0.0
aF0.0
aF0.0
aF0.0
aF0.0
aF0.0
aF0.0
aF0.0
aF0.0
aF0.0
aF0.0
aF0.0
aF0.0
aF0.0
aF0.0
aF0.0
aF0.0
aF0.0
aa(lp2518
F3.871115999440616
aF0.0
aF0.0
aF0.0
aF0.0
aF0.0
aF0.0
aF0.0
aF0.0
aF0.0
aF0.0
aF0.0
aF0.0
aF0.0
aF0.0
aF0.0
aF0.0
aF0.0
aF0.0
aF0.0
aF0.0
aF0.0
aF0.0
aF0.0
aF0.0
aF0.0
aF0.0
aF0.0
aF0.0
aF0.0
aF0.0
aF0.0
aF0.0
aF0.0
aF0.0
aF0.0
aF0.0
aF0.0
aF0.0
aF0.0
aa(lp2519
F0.15870504982240324
aF3.8642855336656625
aF0.0
aF0.0
aF0.0
aF0.0
aF0.0
aF0.0
aF0.0
aF0.0
aF0.0
aF0.0
aF0.0
aF0.0
aF0.0
aF0.0
aF0.0
aF0.0
aF0.0
aF0.0
aF0.0
aF0.0
aF0.0
aF0.0
aF0.0
aF0.0
aF0.0
aF0.0
aF0.0
aF0.0
aF0.0
aF0.0
aF0.0
aF0.0
aF0.0
aF0.0
aF0.0
aF0.0
aF0.0
aF0.0
aa(lp2520
F0.0
aF0.0
aF9.491679863765617
aF0.0
aF0.0
aF0.0
aF0.0
aF0.0
aF0.0
aF0.0
aF0.0
aF0.0
aF0.0
aF0.0
aF0.0
aF0.0
aF0.0
aF0.0
aF0.0
aF0.0
aF0.0
aF0.0
aF0.0
aF0.0
aF0.0
aF0.0
aF0.0
aF0.0
aF0.0
aF0.0
aF0.0
aF0.0
aF0.0
aF0.0
aF0.0
aF0.0
aF0.0
aF0.0
aF0.0
aF0.0
aa(lp2521
F0.0
aF0.0
aF0.27696698799279795
aF5.1508852963841925
aF0.0
aF0.0
aF0.0
aF0.0
aF0.0
aF0.0
aF0.0
aF0.0
aF0.0
aF0.0
aF0.0
aF0.0
aF0.0
aF0.0
aF0.0
aF0.0
aF0.0
aF0.0
aF0.0
aF0.0
aF0.0
aF0.0
aF0.0
aF0.0
aF0.0
aF0.0
aF0.0
aF0.0
aF0.0
aF0.0
aF0.0
aF0.0
aF0.0
aF0.0
aF0.0
aF0.0
aa(lp2522
F0.0
aF0.0
aF0.3579728985906009
aF1.1719375141455466
aF0.5257986859073649
aF0.0
aF0.0
aF0.0
aF0.0
aF0.0
aF0.0
aF0.0
aF0.0
aF0.0
aF0.0
aF0.0
aF0.0
aF0.0
aF0.0
aF0.0
aF0.0
aF0.0
aF0.0
aF0.0
aF0.0
aF0.0
aF0.0
aF0.0
aF0.0
aF0.0
aF0.0
aF0.0
aF0.0
aF0.0
aF0.0
aF0.0
aF0.0
aF0.0
aF0.0
aF0.0
aa(lp2523
F0.008865437465859237
aF0.0018284399225084076
aF0.04520000587161415
aF0.4527261144483678
aF0.921608873647275
aF0.017831673977143362
aF0.0
aF0.0
aF0.0
aF0.0
aF0.0
aF0.0
aF0.0
aF0.0
aF0.0
aF0.0
aF0.0
aF0.0
aF0.0
aF0.0
aF0.0
aF0.0
aF0.0
aF0.0
aF0.0
aF0.0
aF0.0
aF0.0
aF0.0
aF0.0
aF0.0
aF0.0
aF0.0
aF0.0
aF0.0
aF0.0
aF0.0
aF0.0
aF0.0
aF0.0
aa(lp2524
F0.0
aF0.0
aF0.0
aF0.29190347023317875
aF0.44304465093659406
aF0.01129890678100993
aF0.8954682414968024
aF0.0
aF0.0
aF0.0
aF0.0
aF0.0
aF0.0
aF0.0
aF0.0
aF0.0
aF0.0
aF0.0
aF0.0
aF0.0
aF0.0
aF0.0
aF0.0
aF0.0
aF0.0
aF0.0
aF0.0
aF0.0
aF0.0
aF0.0
aF0.0
aF0.0
aF0.0
aF0.0
aF0.0
aF0.0
aF0.0
aF0.0
aF0.0
aF0.0
aa(lp2525
F0.0
aF0.0
aF0.10241495415792275
aF1.2083959563718742
aF0.07710398070128098
aF0.0635751215169567
aF0.0
aF0.0
aF0.0
aF0.0
aF0.0
aF0.0
aF0.0
aF0.0
aF0.0
aF0.0
aF0.0
aF0.0
aF0.0
aF0.0
aF0.0
aF0.0
aF0.0
aF0.0
aF0.0
aF0.0
aF0.0
aF0.0
aF0.0
aF0.0
aF0.0
aF0.0
aF0.0
aF0.0
aF0.0
aF0.0
aF0.0
aF0.0
aF0.0
aF0.0
aa(lp2526
F0.00843567668458096
aF0.0
aF0.0
aF0.2412497831026227
aF0.0017252487341259907
aF0.06945293939622615
aF0.0
aF0.0
aF1.3070673305040637
aF0.0
aF0.0
aF0.0
aF0.0
aF0.0
aF0.0
aF0.0
aF0.0
aF0.0
aF0.0
aF0.0
aF0.0
aF0.0
aF0.0
aF0.0
aF0.0
aF0.0
aF0.0
aF0.0
aF0.0
aF0.0
aF0.0
aF0.0
aF0.0
aF0.0
aF0.0
aF0.0
aF0.0
aF0.0
aF0.0
aF0.0
aa(lp2527
F1.0268959705256533
aF0.08208002366720199
aF0.019124169916714423
aF0.0
aF0.0
aF0.0
aF0.0
aF0.010702199241798115
aF0.0
aF0.018829250969384474
aF0.0
aF0.0
aF0.0
aF0.0
aF0.0
aF0.0
aF0.0
aF0.0
aF0.0
aF0.0
aF0.0
aF0.0
aF0.0
aF0.0
aF0.0
aF0.0
aF0.0
aF0.0
aF0.0
aF0.0
aF0.0
aF0.0
aF0.0
aF0.0
aF0.0
aF0.0
aF0.0
aF0.0
aF0.0
aF0.0
aa(lp2528
F0.03639828630138012
aF0.0
aF0.0
aF0.0
aF0.0
aF0.0
aF0.0
aF0.0
aF0.0
aF0.0
aF3.1840451270765886
aF0.0
aF0.0
aF0.0
aF0.0
aF0.0
aF0.0
aF0.0
aF0.0
aF0.0
aF0.0
aF0.0
aF0.0
aF0.0
aF0.0
aF0.0
aF0.0
aF0.0
aF0.0
aF0.0
aF0.0
aF0.0
aF0.0
aF0.0
aF0.0
aF0.0
aF0.0
aF0.0
aF0.0
aF0.0
aa(lp2529
F0.021244987611500215
aF0.0
aF0.0
aF0.0
aF0.0
aF0.05645450842332903
aF0.0
aF0.0
aF0.0
aF0.0
aF1.0121709779135268
aF0.15018433179682716
aF0.0
aF0.0
aF0.0
aF0.0
aF0.0
aF0.0
aF0.0
aF0.0
aF0.0
aF0.0
aF0.0
aF0.0
aF0.0
aF0.0
aF0.0
aF0.0
aF0.0
aF0.0
aF0.0
aF0.0
aF0.0
aF0.0
aF0.0
aF0.0
aF0.0
aF0.0
aF0.0
aF0.0
aa(lp2530
F0.0
aF0.0
aF0.009561958204453894
aF0.0
aF0.0
aF0.03336116847841767
aF0.0
aF0.0
aF0.0
aF0.0
aF0.0
aF0.009623969662773324
aF2.0437879099496183
aF0.0
aF0.0
aF0.0
aF0.0
aF0.0
aF0.0
aF0.0
aF0.0
aF0.0
aF0.0
aF0.0
aF0.0
aF0.0
aF0.0
aF0.0
aF0.0
aF0.0
aF0.0
aF0.0
aF0.0
aF0.0
aF0.0
aF0.0
aF0.0
aF0.0
aF0.0
aF0.0
aa(lp2531
F0.00807719026444828
aF0.0
aF0.0
aF0.0
aF0.0
aF0.0
aF0.0
aF0.0
aF0.0
aF0.0
aF0.007916445505516569
aF0.3703444083998946
aF0.18479884318690135
aF0.21160045762373725
aF0.0
aF0.0
aF0.0
aF0.0
aF0.0
aF0.0
aF0.0
aF0.0
aF0.0
aF0.0
aF0.0
aF0.0
aF0.0
aF0.0
aF0.0
aF0.0
aF0.0
aF0.0
aF0.0
aF0.0
aF0.0
aF0.0
aF0.0
aF0.0
aF0.0
aF0.0
aa(lp2532
F0.004091712141642909
aF0.0
aF0.019498946990748993
aF0.011346618807287673
aF0.015614479273272183
aF0.0
aF0.0
aF0.0
aF0.0
aF0.0015318829026950143
aF0.0894634952575014
aF0.16421112250965617
aF0.020318852761048507
aF0.004057483348520534
aF0.02376890064246763
aF0.0
aF0.0
aF0.0
aF0.0
aF0.0
aF0.0
aF0.0
aF0.0
aF0.0
aF0.0
aF0.0
aF0.0
aF0.0
aF0.0
aF0.0
aF0.0
aF0.0
aF0.0
aF0.0
aF0.0
aF0.0
aF0.0
aF0.0
aF0.0
aF0.0
aa(lp2533
F0.002168136206412723
aF0.0
aF0.04688803853281083
aF0.038749242522770976
aF0.01885958515367008
aF0.0
aF0.003282970468642079
aF0.0
aF0.0
aF0.008174367659123242
aF0.002377422445552014
aF0.0
aF0.0
aF0.0017970432761018028
aF0.0
aF2.087682633914402
aF0.0
aF0.0
aF0.0
aF0.0
aF0.0
aF0.0
aF0.0
aF0.0
aF0.0
aF0.0
aF0.0
aF0.0
aF0.0
aF0.0
aF0.0
aF0.0
aF0.0
aF0.0
aF0.0
aF0.0
aF0.0
aF0.0
aF0.0
aF0.0
aa(lp2534
F0.0
aF0.0
aF0.005614898706438596
aF0.0
aF0.020072055373152594
aF0.0
aF0.014275833262054902
aF0.003905061395184572
aF0.003661329061055579
aF0.0
aF0.213233295782802
aF0.01105398928778636
aF0.047722759228902435
aF0.03283230878567836
aF0.0
aF0.0
aF0.0
aF0.0
aF0.0
aF0.0
aF0.0
aF0.0
aF0.0
aF0.0
aF0.0
aF0.0
aF0.0
aF0.0
aF0.0
aF0.0
aF0.0
aF0.0
aF0.0
aF0.0
aF0.0
aF0.0
aF0.0
aF0.0
aF0.0
aF0.0
aa(lp2535
F0.0
aF0.0
aF0.0
aF0.012850169537460633
aF0.11644797276153286
aF0.0
aF0.0
aF0.0
aF0.008376642524477455
aF0.006766778699198832
aF0.006201715135287265
aF0.010803149211729564
aF0.0
aF0.0
aF0.0
aF0.032418732125129995
aF0.0
aF0.20845194579191972
aF0.0
aF0.0
aF0.0
aF0.0
aF0.0
aF0.0
aF0.0
aF0.0
aF0.0
aF0.0
aF0.0
aF0.0
aF0.0
aF0.0
aF0.0
aF0.0
aF0.0
aF0.0
aF0.0
aF0.0
aF0.0
aF0.0
aa(lp2536
F0.017409396154412397
aF0.0
aF0.0
aF0.0
aF0.0
aF0.008756879802849083
aF0.0
aF0.0
aF0.006741556723759112
aF0.0
aF0.013001967699152628
aF0.0
aF0.048323248436937916
aF0.003171492747829236
aF0.0
aF0.015586850195143064
aF0.0
aF0.04050438959109918
aF0.1913213063332762
aF0.0
aF0.0
aF0.0
aF0.0
aF0.0
aF0.0
aF0.0
aF0.0
aF0.0
aF0.0
aF0.0
aF0.0
aF0.0
aF0.0
aF0.0
aF0.0
aF0.0
aF0.0
aF0.0
aF0.0
aF0.0
aa(lp2537
F0.0
aF0.10082341418772978
aF1.3631722295747175
aF0.08017355394206338
aF0.0
aF0.0016970808160549316
aF0.0
aF0.0
aF0.0
aF0.0
aF0.09551395447029824
aF0.0016004167306741062
aF0.0
aF0.006490150913928649
aF0.0
aF0.0
aF0.0
aF0.0024643417108855302
aF0.0
aF0.0
aF0.0
aF0.0
aF0.0
aF0.0
aF0.0
aF0.0
aF0.0
aF0.0
aF0.0
aF0.0
aF0.0
aF0.0
aF0.0
aF0.0
aF0.0
aF0.0
aF0.0
aF0.0
aF0.0
aF0.0
aa(lp2538
F0.0
aF0.03675730442908538
aF0.6935605744831735
aF0.1154651206629421
aF0.015310210460803823
aF0.029602833905488714
aF0.006158368553178766
aF0.0
aF0.0
aF0.0
aF0.0013420542978713353
aF0.0
aF0.0
aF0.005719923376122738
aF0.0
aF0.0
aF0.0
aF0.0
aF0.0
aF0.0
aF0.26498660756579984
aF0.0
aF0.0
aF0.0
aF0.0
aF0.0
aF0.0
aF0.0
aF0.0
aF0.0
aF0.0
aF0.0
aF0.0
aF0.0
aF0.0
aF0.0
aF0.0
aF0.0
aF0.0
aF0.0
aa(lp2539
F0.0
aF0.010222889678887043
aF0.2614763698744428
aF0.008924436227021722
aF0.0
aF0.016142455939160763
aF0.0022458752093502256
aF0.0
aF0.0
aF0.0
aF0.0
aF0.0
aF0.0
aF0.02000755708688892
aF0.0
aF0.0
aF0.0
aF0.0
aF0.0
aF0.0
aF0.12189213062101953
aF0.10120197597616705
aF0.0
aF0.0
aF0.0
aF0.0
aF0.0
aF0.0
aF0.0
aF0.0
aF0.0
aF0.0
aF0.0
aF0.0
aF0.0
aF0.0
aF0.0
aF0.0
aF0.0
aF0.0
aa(lp2540
F0.0
aF0.0
aF0.11677171245355007
aF0.04996478915605716
aF0.0
aF0.016891186632690118
aF0.0011705040252469026
aF0.0
aF0.0
aF0.0
aF0.030836830415250666
aF0.0
aF0.0
aF0.002310439107439097
aF0.0
aF0.0
aF0.0
aF0.0
aF0.0
aF0.0
aF0.14327160959645419
aF0.013386037437119327
aF0.2958273114573753
aF0.0
aF0.0
aF0.0
aF0.0
aF0.0
aF0.0
aF0.0
aF0.0
aF0.0
aF0.0
aF0.0
aF0.0
aF0.0
aF0.0
aF0.0
aF0.0
aF0.0
aa(lp2541
F0.001303303988938823
aF0.0
aF0.010544985471628366
aF0.010558213566972204
aF0.002492037837462989
aF0.0032569415651247224
aF0.0
aF0.0
aF0.0
aF0.009921411500586784
aF0.06421156112930798
aF0.0
aF0.0
aF0.008913279957868754
aF0.0
aF0.7722744356165973
aF0.029564737493618178
aF0.002042736495777854
aF0.0
aF0.0
aF0.0
aF0.005614379066243703
aF0.0
aF0.0050018716555140725
aF0.0
aF0.0
aF0.0
aF0.0
aF0.0
aF0.0
aF0.0
aF0.0
aF0.0
aF0.0
aF0.0
aF0.0
aF0.0
aF0.0
aF0.0
aF0.0
aa(lp2542
F0.0
aF0.0
aF0.0
aF0.0
aF0.0
aF0.0
aF0.0
aF0.0
aF0.0
aF0.0
aF0.14176232619896528
aF0.0
aF0.0
aF0.014039872084738468
aF0.019161983196972432
aF0.2246915587745579
aF0.0
aF0.005811241262178367
aF0.0
aF0.0
aF0.0
aF0.0
aF0.0
aF0.0
aF0.16842693084077878
aF0.0
aF0.0
aF0.0
aF0.0
aF0.0
aF0.0
aF0.0
aF0.0
aF0.0
aF0.0
aF0.0
aF0.0
aF0.0
aF0.0
aF0.0
aa(lp2543
F0.0
aF0.0
aF0.0
aF0.0
aF0.0
aF0.0
aF0.0
aF0.016343992879296748
aF0.0
aF0.0
aF0.0
aF0.0
aF0.0
aF0.0
aF0.0
aF0.8082978959704071
aF0.0
aF0.0
aF0.0
aF0.0031696004078074257
aF0.0
aF0.0
aF0.0
aF0.0
aF0.07030217182030249
aF0.23296463323330446
aF0.0
aF0.0
aF0.0
aF0.0
aF0.0
aF0.0
aF0.0
aF0.0
aF0.0
aF0.0
aF0.0
aF0.0
aF0.0
aF0.0
aa(lp2544
F0.0
aF0.0
aF0.0
aF0.006966065694520754
aF0.0
aF0.011759184404439058
aF0.0
aF0.004058438318000841
aF0.0
aF0.0
aF0.01745660751040337
aF0.0
aF0.0
aF0.003975926252484888
aF0.0
aF0.1480793579274577
aF0.0
aF0.004830719197433304
aF0.05850375895961882
aF0.003953460164884928
aF0.0
aF0.0
aF0.0
aF0.0
aF0.0
aF0.08508407994715514
aF0.012701422304992726
aF0.0
aF0.0
aF0.0
aF0.0
aF0.0
aF0.0
aF0.0
aF0.0
aF0.0
aF0.0
aF0.0
aF0.0
aF0.0
aa(lp2545
F0.0
aF0.0
aF0.0
aF0.0
aF0.30953372472973995
aF0.018077040448412813
aF0.0
aF0.0
aF0.0
aF0.0
aF0.0
aF0.0
aF0.0
aF0.006969206646253796
aF0.0
aF0.01218219461443323
aF0.0
aF0.0
aF0.0
aF0.0
aF0.0
aF0.0
aF0.019159914376207062
aF0.007123309088037515
aF0.0
aF0.05395329642478406
aF0.0
aF0.08410266542233923
aF0.0
aF0.0
aF0.0
aF0.0
aF0.0
aF0.0
aF0.0
aF0.0
aF0.0
aF0.0
aF0.0
aF0.0
aa(lp2546
F0.01857305189716935
aF0.010342680481336288
aF0.0
aF0.0
aF0.0
aF0.030018044409049895
aF0.0
aF0.0
aF0.0
aF0.0
aF0.0
aF0.06398515595100156
aF0.029874941390896234
aF0.0
aF0.0
aF0.0
aF0.0
aF0.011925513351995097
aF0.0
aF0.0
aF0.0
aF0.0
aF0.0
aF0.010647881706740699
aF0.01221187976511934
aF0.025445584803912343
aF0.0
aF0.0
aF0.0
aF0.0
aF0.0
aF0.0
aF0.0
aF0.0
aF0.0
aF0.0
aF0.0
aF0.0
aF0.0
aF0.0
aa(lp2547
F0.001719566956734105
aF0.0010241357125576984
aF0.0
aF0.0
aF0.0011982612627682153
aF0.0018947022428181554
aF0.0
aF0.010759596953574983
aF0.0
aF0.0
aF0.0
aF0.003613092561871687
aF0.007038374697231205
aF0.005095599056016415
aF0.0
aF0.021162920178265324
aF0.0
aF0.0017851814761504498
aF0.0
aF0.0
aF0.0
aF0.0
aF0.0
aF0.0
aF0.0
aF0.0005535262254038504
aF0.0
aF0.0
aF0.002061896151298813
aF1.2862906778380114
aF0.0
aF0.0
aF0.0
aF0.0
aF0.0
aF0.0
aF0.0
aF0.0
aF0.0
aF0.0
aa(lp2548
F0.02697683774598255
aF0.03821787276415394
aF0.0013190322051667533
aF0.0069316918372566184
aF0.0
aF0.002881444060387968
aF0.0022486400012608904
aF0.0
aF0.0030520371676002155
aF0.0
aF0.014646731572247624
aF0.012459002915192197
aF0.0
aF0.0035198175348322845
aF0.0
aF0.004170178520122154
aF0.0
aF0.0032033222490196497
aF0.0
aF0.023318053269197732
aF0.0019783805147797462
aF0.0
aF0.0
aF0.0
aF0.03256354386613764
aF0.0
aF0.0
aF0.0
aF0.0
aF0.028113600887890694
aF0.0
aF0.0
aF0.0
aF0.0
aF0.0
aF0.0
aF0.0
aF0.0
aF0.0
aF0.0
aa(lp2549
F0.0
aF0.0
aF0.0
aF0.1751045329338139
aF0.0
aF0.06687596978479997
aF0.0
aF0.0
aF0.0
aF0.0
aF0.0
aF0.012909040139022472
aF0.0
aF0.0023052510804580937
aF0.0
aF0.0016741070616816457
aF0.0
aF0.0
aF0.0
aF0.020330680692238052
aF0.01624896064967595
aF0.0
aF0.0
aF0.0
aF0.0
aF0.0
aF0.0
aF0.0
aF0.0
aF0.13382615056933136
aF0.0014124728346591368
aF0.014910351991937595
aF0.0
aF0.0
aF0.0
aF0.0
aF0.0
aF0.0
aF0.0
aF0.0
aa(lp2550
F0.0
aF0.0
aF0.006131417629034932
aF0.0
aF0.06233762344029346
aF0.16292675642236787
aF0.0
aF0.004421673274631315
aF0.001655644700724309
aF0.0
aF0.0
aF0.0
aF0.0
aF0.0
aF0.0
aF0.002170436490779485
aF0.0
aF0.0
aF0.0
aF0.0
aF0.0
aF0.0
aF0.0014793505824607178
aF0.0
aF0.0
aF0.0
aF0.0
aF0.0
aF0.0
aF0.04136894007985382
aF0.0
aF0.0
aF0.39953055007128047
aF0.0
aF0.0
aF0.0
aF0.0
aF0.0
aF0.0
aF0.0
aa(lp2551
F0.0
aF0.0
aF0.0
aF0.0
aF0.04560613331631917
aF0.020749614312329374
aF0.0
aF0.0
aF0.0
aF0.0
aF0.0
aF0.0
aF0.0
aF0.0025824634928431557
aF0.0
aF0.019649764266194848
aF0.0
aF0.0
aF0.0
aF0.0
aF0.0
aF0.0
aF0.0011620083777620668
aF0.0
aF0.0
aF0.0
aF0.0
aF0.0
aF0.001447001889888258
aF0.2877932639942269
aF0.0
aF0.0
aF0.05699401471681772
aF0.4775663234796183
aF0.0
aF0.0
aF0.0
aF0.0
aF0.0
aF0.0
aa(lp2552
F0.01320392133988548
aF0.0
aF0.002397267550064457
aF0.0
aF0.0
aF0.011757703038948707
aF0.0
aF0.0
aF0.0
aF0.0
aF0.0
aF0.0
aF0.0
aF0.019051337271273238
aF0.0
aF0.004668517852358859
aF0.0
aF0.0
aF0.0
aF0.0
aF0.0
aF0.0
aF0.0
aF0.0
aF0.005242442934223208
aF0.0
aF0.0
aF0.0
aF0.0
aF0.0
aF0.010897229397957932
aF0.004632072595227249
aF0.20011550811294898
aF0.021463667326573902
aF0.07511399748784922
aF0.0
aF0.0
aF0.0
aF0.0
aF0.0
aa(lp2553
F0.0
aF0.0
aF0.0
aF0.0
aF0.0
aF0.015880511429423667
aF0.0
aF0.0
aF0.0
aF0.0
aF0.0
aF0.0
aF0.0
aF0.0014950197238085493
aF0.0
aF0.0
aF0.0
aF0.0
aF0.0
aF0.0
aF0.0
aF0.0
aF0.0019825601226048086
aF0.0
aF0.0
aF0.0
aF0.0
aF0.0
aF0.0
aF0.0041263563068987185
aF0.015728883588118935
aF0.006066066185004684
aF0.08643018624618226
aF0.011316303716399094
aF0.0017304522262822416
aF0.4033741800135839
aF0.0
aF0.0
aF0.0
aF0.0
aa(lp2554
F0.0
aF0.0
aF0.0
aF0.0
aF0.0
aF0.011515545801773637
aF0.0
aF0.0
aF0.0
aF0.0
aF0.0007240458314690478
aF0.0
aF0.0
aF0.0
aF0.0
aF0.002245439872748791
aF0.0
aF0.0
aF0.0
aF0.0035764456030656297
aF0.0
aF0.0
aF0.0
aF0.0
aF0.0
aF0.0009223597362222032
aF0.0
aF0.0
aF0.10472940042995299
aF0.0024588410263052577
aF0.0
aF0.03406746112195481
aF0.44256121255910663
aF0.01488852375555309
aF0.07053635970132226
aF0.000673199709872728
aF0.0
aF0.0
aF0.0
aF0.0
aa(lp2555
F0.08266275689653328
aF0.0
aF0.0
aF0.002345190342178213
aF0.0
aF0.003893418157403427
aF0.0
aF0.0
aF0.0
aF0.0
aF0.0335563929467719
aF0.0014798235752541222
aF0.0
aF0.044695413526134875
aF0.0
aF0.0
aF0.0
aF0.005587638270807015
aF0.0
aF0.01752713942621158
aF0.0
aF0.0
aF0.0
aF0.0038524199238260714
aF0.01875003913920257
aF0.0
aF0.0
aF0.0
aF0.0017004196302967442
aF0.0054727808846320326
aF0.0
aF0.002338385382041601
aF0.0
aF0.0
aF0.0
aF0.005561821294778226
aF0.0
aF0.0
aF0.0
aF0.0
aa(lp2556
F0.007530438574055814
aF0.0038855287952152253
aF0.0
aF0.0
aF0.0
aF0.0
aF0.0
aF0.0007030784630559898
aF0.0
aF0.0025312196122143213
aF0.010857127759655093
aF0.0
aF0.0011286282335651802
aF0.003198445922070094
aF0.0
aF0.003633634937749886
aF0.0
aF0.008491387827564463
aF0.004552262854252648
aF0.04796811683205346
aF0.0
aF0.0
aF0.0
aF0.0007943165877517299
aF0.011009839996247278
aF0.0
aF0.0
aF0.0006791214539069888
aF0.014369851268119275
aF0.0
aF0.0
aF0.0
aF0.0
aF0.0
aF0.0005879567538380043
aF0.0
aF0.0
aF0.0
aF0.29842322815922523
aF0.0
aatp2557
.