((lp0
(lp1
c__builtin__
set
p2
((lp3
tp4
Rp5
ag2
((lp6
S'building'
p7
aS'recognize'
p8
aS'computer'
p9
aS'opportunity'
p10
aS'century'
p11
aS'intelligence'
p12
aS'solving'
p13
aS'strong ai'
p14
aS'machine'
p15
aS'field'
p16
aS'program'
p17
aS'vision'
p18
aS'human'
p19
aS'rock'
p20
aS'nature'
p21
aS'interrogator'
p22
aS'intelligent'
p23
aS'spirit'
p24
aS'artificial intelligence'
p25
atp26
Rp27
aa(lp28
g2
((lp29
S'intelligence'
p30
aS'intelligent'
p31
aS'artificial intelligence'
p32
atp33
Rp34
ag2
((lp35
S'subsumption architecture'
p36
aS'act'
p37
aS'percept sequence'
p38
aS'rational agent'
p39
aS'simple'
p40
aS'autonomous agent'
p41
aS'component'
p42
aS'percept'
p43
aS'agent'
p44
aS'robot'
p45
aS'environment'
p46
aS'knowledge rich'
p47
aS'bounded rationality'
p48
aS'rationality'
p49
aS'behavior'
p50
aS'table'
p51
aS'performance'
p52
aS'agent program'
p53
aS'performance measure'
p54
aS'intelligent agent'
p55
aS'architecture'
p56
atp57
Rp58
aa(lp59
g2
((lp60
S'environment'
p61
aS'intelligence'
p62
aS'rational agent'
p63
aS'agent'
p64
aS'performance'
p65
atp66
Rp67
ag2
((lp68
S'agent refer'
p69
aS'goal state'
p70
aS'initial state'
p71
aS'state'
p72
aS'space search'
p73
aS'queen'
p74
aS'current state'
p75
aS'cross'
p76
aS'goal test'
p77
aS'formulation'
p78
aS'puzzle problem'
p79
aS'operator'
p80
aS'implicit state'
p81
aS'configuration'
p82
aS'state space'
p83
aS'puzzle'
p84
aS'successor'
p85
atp86
Rp87
aa(lp88
g2
((lp89
S'state space'
p90
aS'goal state'
p91
aS'initial state'
p92
aS'state'
p93
aS'operator'
p94
aS'successor'
p95
atp96
Rp97
ag2
((lp98
S'breadth'
p99
aS'search'
p100
aS'fringe'
p101
aS'breadth first search'
p102
aS'map'
p103
aS'first node'
p104
aS'search strategy'
p105
aS'search tree'
p106
aS'space'
p107
aS'solution'
p108
aS'iterative deepening search'
p109
aS'search problem'
p110
aS'time and space'
p111
aS'depth d'
p112
aS'depth first iterative deepening'
p113
aS'depth'
p114
aS'hamiltonian path'
p115
aS'back of fringe'
p116
aS'search algorithm'
p117
aS'city'
p118
aS'search space'
p119
atp120
Rp121
aa(lp122
g2
((lp123
S'depth'
p124
aS'search space'
p125
aS'fringe'
p126
aS'breadth first search'
p127
aS'space'
p128
aS'search tree'
p129
aS'search'
p130
aS'solution'
p131
aS'state'
p132
aS'goal state'
p133
aS'search algorithm'
p134
atp135
Rp136
ag2
((lp137
S'optimum path'
p138
aS'greedy search'
p139
aS'node'
p140
aS'forward search'
p141
aS'uniform cost'
p142
aS'distance'
p143
aS'first search'
p144
aS'node n'
p145
aS'heuristic function'
p146
aS'cost search'
p147
aS'goal node'
p148
aS'cost'
p149
aS't state'
p150
aS'expand'
p151
aS'path'
p152
aS'optimum'
p153
aS'generate'
p154
aS'space complexity'
p155
aS'bidirectional search'
p156
atp157
Rp158
aa(lp159
g2
((lp160
S'state'
p161
aS'node'
p162
aS'search space'
p163
aS'breadth first search'
p164
aS'initial state'
p165
aS'space'
p166
aS'goal node'
p167
aS'search'
p168
aS'first search'
p169
aS'search tree'
p170
aS'depth'
p171
aS'iterative deepening search'
p172
aS'solution'
p173
aS'heuristic function'
p174
aS'cost'
p175
aS'path'
p176
aS'goal state'
p177
aS'state space'
p178
aS'bidirectional search'
p179
atp180
Rp181
ag2
((lp182
S'global minimum'
p183
aS'current path'
p184
aS'algorithm'
p185
aS'hill climbing'
p186
aS'iteration'
p187
aS'number'
p188
aS'depth first search'
p189
aS'complexity'
p190
aS'iterative deepening'
p191
aS'optimum solution'
p192
aS'hill'
p193
aS'local search'
p194
aS'ida star'
p195
aS'time complexity'
p196
aS'start node'
p197
aS'empty'
p198
atp199
Rp200
aa(lp201
g2
((lp202
S'node'
p203
aS'search'
p204
aS'computer'
p205
aS'algorithm'
p206
aS'search tree'
p207
aS'cost'
p208
aS'fringe'
p209
aS'node n'
p210
aS'number'
p211
aS'cost search'
p212
aS'state'
p213
aS'uniform cost'
p214
aS'path'
p215
aS'goal state'
p216
aS'expand'
p217
aS'bidirectional search'
p218
atp219
Rp220
ag2
((lp221
S'utility'
p222
aS'pay'
p223
aS'position'
p224
aS'initial position'
p225
aS'min player'
p226
aS'move'
p227
aS'max player'
p228
aS'player'
p229
aS'static evaluation function'
p230
aS'game'
p231
aS'chess'
p232
aS'b power'
p233
aS'win'
p234
aS'power d'
p235
aS'other player'
p236
aS'game tree'
p237
aS'evaluation function'
p238
aS'utility value'
p239
aS'agent search'
p240
atp241
Rp242
aa(lp243
g2
((lp244
S'node'
p245
aS'depth'
p246
aS'search'
p247
aS'search tree'
p248
aS'move'
p249
aS'number'
p250
aS'player'
p251
aS'game'
p252
aS'game tree'
p253
aS'evaluation function'
p254
atp255
Rp256
ag2
((lp257
S'max ancestor'
p258
aS'exact minimax'
p259
aS'min'
p260
aS'min node'
p261
aS'node ordering'
p262
aS'minimax'
p263
aS'child'
p264
aS'minimax search'
p265
aS'exact minimax value'
p266
aS'static evaluation'
p267
aS'minimax value'
p268
aS'ply search'
p269
aS'max'
p270
aS'max node'
p271
aS'evaluation'
p272
aS'value of min'
p273
atp274
Rp275
aa(lp276
g2
((lp277
S'node'
p278
aS'search'
p279
aS'search tree'
p280
aS'queen'
p281
aS'depth first search'
p282
aS'solution'
p283
aS'state'
p284
atp285
Rp286
ag2
((lp287
S'satisfyability problem'
p288
aS'current assignment'
p289
aS'coloring'
p290
aS'constraint'
p291
aS'constraint satisfaction'
p292
aS'assignment'
p293
aS'satisfaction problem'
p294
aS'second queen'
p295
aS'constraint propagation'
p296
aS'satisfaction'
p297
aS'color'
p298
aS'third queen'
p299
aS'first queen'
p300
aS'csp'
p301
aS'backtracking'
p302
aS'current domain'
p303
atp304
Rp305
aa(lp306
g2
((lp307
S'search'
p308
aS'algorithm'
p309
aS'search tree'
p310
aS'constraint satisfaction'
p311
aS'assignment'
p312
aS'solution'
p313
aS'constraint'
p314
aS'depth first search'
p315
aS'constraint propagation'
p316
aS'satisfaction'
p317
aS'intelligent'
p318
aS'satisfaction problem'
p319
atp320
Rp321
ag2
((lp322
S'domain'
p323
aS'arc consistency'
p324
aS'arc'
p325
aS'legal value'
p326
aS'forward checking'
p327
aS'check'
p328
aS'class room'
p329
aS'time slot'
p330
aS'consistency'
p331
aS'assign'
p332
atp333
Rp334
aa(lp335
g2
((lp336
S'machine'
p337
aS'domain'
p338
aS'intelligence'
p339
aS'environment'
p340
aS'behavior'
p341
aS'intelligent'
p342
atp343
Rp344
ag2
((lp345
S'particular world'
p346
aS'interpretation'
p347
aS'knowledge'
p348
aS'compound proposition'
p349
aS'intelligent behavior'
p350
aS'valid proposition'
p351
aS'intelligent anil'
p352
aS'valid sentence'
p353
aS'propositional logic'
p354
aS'proposition'
p355
aS'compound'
p356
aS'world'
p357
aS'knowledge representation'
p358
aS'sentence p'
p359
aS'interpret'
p360
aS'proposition p'
p361
atp362
Rp363
aa(lp364
g2
((lp365
S'propositional logic'
p366
aS'proposition'
p367
aS'interpretation'
p368
atp369
Rp370
ag2
((lp371
S'false true'
p372
aS'conjunctive normal form'
p373
aS'truth table'
p374
aS'form'
p375
aS'false false'
p376
aS'clausal form'
p377
aS'truth value'
p378
aS'truth'
p379
aS'false'
p380
aS'normal form'
p381
aS'inference rule'
p382
atp383
Rp384
aa(lp385
g2
((lp386
S'propositional logic'
p387
aS'proposition'
p388
aS'number'
p389
aS'proposition p'
p390
atp391
Rp392
ag2
((lp393
S'natural number'
p394
aS'predicate'
p395
aS'drink'
p396
aS'type w'
p397
aS'drink tom'
p398
aS'mortal x'
p399
aS'logic'
p400
aS'man tom'
p401
aS'order logic'
p402
aS'predicate logic'
p403
aS'mammal tom'
p404
aS'drink milk'
p405
aS'valid predicate'
p406
aS'tom'
p407
aS'first order logic'
p408
aS'tom milk'
p409
atp410
Rp411
aa(lp412
g2
((lp413
S'predicate logic'
p414
aS'logic'
p415
aS'predicate'
p416
aS'first order logic'
p417
atp418
Rp419
ag2
((lp420
S'horn sentence'
p421
aS'perfect square'
p422
aS'universal'
p423
aS'square'
p424
aS'exist'
p425
aS'prime p'
p426
aS'prime number'
p427
aS'equality operator'
p428
aS'universal quantifier'
p429
aS'x dog'
p430
aS'universal elimination'
p431
aS'order predicate'
p432
aS'perfect square x'
p433
aS'dog x'
p434
aS'meaning'
p435
aS'prime y'
p436
aS'substitution'
p437
aS'quantifier'
p438
aS'square of p'
p439
aS'first order predicate'
p440
aS'prime'
p441
aS'sen prime'
p442
aS'equality'
p443
aS'square x'
p444
aS'square p'
p445
aS'existential quantifier'
p446
aS'order'
p447
atp448
Rp449
aa(lp450
g2
((lp451
S'predicate'
p452
aS'form'
p453
aS'propositional logic'
p454
aS'clausal form'
p455
aS'predicate logic'
p456
aS'exist'
p457
aS'logic'
p458
aS'quantifier'
p459
aS'first order predicate'
p460
aS'order'
p461
atp462
Rp463
ag2
((lp464
S'next step'
p465
aS'someone'
p466
aS'scope of negation'
p467
aS'clause'
p468
aS'null clause'
p469
aS'negation'
p470
aS'resolve'
p471
aS'unification'
p472
aS'happy x'
p473
aS'resolvent'
p474
aS'resolution'
p475
aS'canonical form'
p476
aS'happy'
p477
atp478
Rp479
aa(lp480
g2
((lp481
S'knowledge'
p482
aS'form'
p483
aS'clausal form'
p484
aS'state'
p485
aS'knowledge representation'
p486
aS'logic'
p487
atp488
Rp489
ag2
((lp490
S'antecedent'
p491
aS'inference machine'
p492
aS'inference'
p493
aS'consequent part'
p494
aS'assertion'
p495
aS'rule'
p496
aS'consequent'
p497
aS'inference mechanism'
p498
aS'rain today'
p499
aS'rule base'
p500
aS'antecedent part'
p501
aS'base'
p502
aS'control scheme'
p503
aS'fact base'
p504
aS'implication'
p505
aS'third rule'
p506
atp507
Rp508
aa(lp509
g2
((lp510
S'domain'
p511
aS'goal state'
p512
aS'inference machine'
p513
aS'search'
p514
aS'rule'
p515
aS'state'
p516
aS'cost'
p517
aS'rule base'
p518
aS'base'
p519
aS'path'
p520
aS'fact base'
p521
atp522
Rp523
ag2
((lp524
S'term memory'
p525
aS'particular state'
p526
aS'fire'
p527
aS'backward chaining'
p528
aS'conflict resolution'
p529
aS'working memory'
p530
aS'resolution strategy'
p531
aS'memory'
p532
aS'heuristic measure'
p533
aS'strategy'
p534
aS'conflict'
p535
atp536
Rp537
aa(lp538
g2
((lp539
S'node'
p540
aS'meaning'
p541
aS'proposition'
p542
aS'knowledge'
p543
aS'knowledge representation'
p544
atp545
Rp546
ag2
((lp547
S'hierarchical network'
p548
aS'top level'
p549
aS'canary can'
p550
aS'hierarchy'
p551
aS'concept animal'
p552
aS'salmon'
p553
aS'canary'
p554
aS'etc'
p555
aS'representation'
p556
aS'bird'
p557
aS'man'
p558
atp559
Rp560
aa(lp561
g2
((lp562
S'node'
p563
aS'inference'
p564
aS'bird'
p565
atp566
Rp567
ag2
((lp568
S'default'
p569
aS'nellie'
p570
aS'relationship'
p571
aS'inheritance'
p572
aS'pet bird'
p573
aS'current node'
p574
aS'height of john'
p575
aS'inherit'
p576
aS'ostrich'
p577
aS'semantic net'
p578
aS'fido'
p579
aS'subclass'
p580
aS'animal'
p581
aS'elephant'
p582
aS'property'
p583
aS'instance of elephant'
p584
atp585
Rp586
aa(lp587
g2
((lp588
S'inference'
p589
aS'inheritance'
p590
aS'color'
p591
aS'number'
p592
aS'rule'
p593
aS'fido'
p594
aS'human'
p595
aS'tom'
p596
aS'bird'
p597
atp598
Rp599
ag2
((lp600
S'slot'
p601
aS'concept dog'
p602
aS'instance of dog'
p603
aS'boy'
p604
aS'frame'
p605
aS'object'
p606
aS'type of teeth'
p607
aS'dog'
p608
aS'particular dog'
p609
aS'instance'
p610
aS'super class'
p611
aS'color of skin'
p612
aS'type'
p613
atp614
Rp615
aa(lp616
g2
((lp617
S'space search'
p618
aS'goal state'
p619
aS'initial state'
p620
aS'search'
p621
aS'state space'
p622
aS'agent'
p623
aS'search problem'
p624
aS'environment'
p625
aS'state'
p626
aS'proposition'
p627
aS'representation'
p628
aS'world'
p629
aS'order'
p630
atp631
Rp632
ag2
((lp633
S'go store'
p634
aS'description'
p635
aS'sequence'
p636
aS'list'
p637
aS'first order'
p638
aS'action pick'
p639
aS'add list'
p640
aS'objective'
p641
aS'delete list'
p642
aS'successor state'
p643
aS'action'
p644
aS'home'
p645
aS'action go'
p646
aS'store'
p647
atp648
Rp649
aa(lp650
g2
((lp651
S'search space'
p652
aS'forward search'
p653
aS'goal state'
p654
aS'algorithm'
p655
aS'initial state'
p656
aS'search'
p657
aS'state space'
p658
aS'agent'
p659
aS'current state'
p660
aS'action'
p661
aS'state'
p662
aS'objective'
p663
aS'order'
p664
atp665
Rp666
ag2
((lp667
S'goal'
p668
aS'current goal'
p669
aS'backward search'
p670
aS'strip'
p671
aS'regress'
p672
aS'sub goal'
p673
aS'regression'
p674
atp675
Rp676
aa(lp677
g2
((lp678
S'goal state'
p679
aS'goal'
p680
aS'algorithm'
p681
aS'state'
p682
aS'action'
p683
aS'table'
p684
aS'initial state'
p685
aS'order'
p686
atp687
Rp688
ag2
((lp689
S'partial plan'
p690
aS'precondition'
p691
aS'open condition'
p692
aS'causal link'
p693
aS'planning problem'
p694
aS'open precondition'
p695
aS'ordering'
p696
aS'unsafe'
p697
aS'flaw'
p698
aS'unsafe link'
p699
aS'new step'
p700
aS'partial order'
p701
aS'planning'
p702
aS'planning algorithm'
p703
aS'plan'
p704
aS'agenda'
p705
aS'step'
p706
aS'initial plan'
p707
aS'link'
p708
aS'causal'
p709
aS'condition'
p710
atp711
Rp712
aa(lp713
g2
((lp714
S'precondition'
p715
aS'goal'
p716
aS'initial state'
p717
aS'search'
p718
aS'solution'
p719
aS'state'
p720
aS'proposition'
p721
aS'plan'
p722
aS'action'
p723
aS'algorithm'
p724
aS'condition'
p725
atp726
Rp727
ag2
((lp728
S'maintenance'
p729
aS'present'
p730
aS'valid plan'
p731
aS'garbage'
p732
aS'level'
p733
aS'action level'
p734
aS'graph'
p735
aS'solution extraction'
p736
aS'graph expansion'
p737
aS'maintenance action'
p738
aS'dinner'
p739
aS'mutex'
p740
aS'planning graph'
p741
aS'next state'
p742
aS'carry'
p743
aS'previous level'
p744
aS'level pi'
p745
aS'state level'
p746
aS'graph plan'
p747
atp748
Rp749
aa(lp750
g2
((lp751
S'domain'
p752
aS'inference'
p753
aS'knowledge'
p754
aS'level'
p755
aS'working memory'
p756
aS'search'
p757
aS'number'
p758
aS'rule'
p759
aS'inference mechanism'
p760
aS'state'
p761
aS'base'
p762
aS'memory'
p763
aS'path'
p764
aS'order'
p765
aS'goal'
p766
atp767
Rp768
ag2
((lp769
S'engine'
p770
aS'human expert'
p771
aS'expert'
p772
aS'expert system'
p773
aS'doctor'
p774
aS'structure'
p775
aS'inference engine'
p776
aS'system'
p777
aS'mycin'
p778
aS'interface'
p779
aS'user interface'
p780
aS'knowledge acquisition'
p781
aS'user'
p782
aS'gas in engine'
p783
aS'phase'
p784
aS'expertise'
p785
aS'backward'
p786
aS'organism'
p787
aS'knowledge base'
p788
aS'match'
p789
aS'conclusion'
p790
atp791
Rp792
aa(lp793
g2
((lp794
S'expert'
p795
aS'rule'
p796
aS'proposition'
p797
aS'implication'
p798
aS'organism'
p799
aS'order'
p800
atp801
Rp802
ag2
((lp803
S'doorbell'
p804
aS'strength'
p805
aS'measure of disbelief'
p806
aS'belief'
p807
aS'deal'
p808
aS'hypothesis h'
p809
aS'uncertainty'
p810
aS'impreciseness'
p811
aS'disbelief'
p812
aS'mb prime'
p813
aS'wake up mohan'
p814
aS'wake'
p815
aS'door'
p816
aS'belief in h'
p817
aS'measure of belief'
p818
aS'door x'
p819
atp820
Rp821
aa(lp822
g2
((lp823
S'mb prime'
p824
aS'measure of belief'
p825
aS'belief'
p826
aS'rule'
p827
atp828
Rp829
ag2
((lp830
S'confidence'
p831
aS'sprinkler'
p832
aS'combination'
p833
aS'factor of h'
p834
aS'certainty'
p835
aS'factor'
p836
aS'certainty factor'
p837
aS'infer'
p838
atp839
Rp840
aa(lp841
g2
((lp842
S'inference'
p843
aS'knowledge'
p844
aS'default'
p845
aS'certainty'
p846
aS'uncertainty'
p847
aS'number'
p848
aS'rule'
p849
aS'etc'
p850
atp851
Rp852
ag2
((lp853
S'ball'
p854
aS'causality'
p855
aS'priori p'
p856
aS'priori'
p857
aS'default reasoning'
p858
aS'joint probability'
p859
aS'uncertain'
p860
aS'probability theory'
p861
aS'event'
p862
atp863
Rp864
aa(lp865
g2
((lp866
S'node'
p867
aS'belief'
p868
aS'number'
p869
aS'causal'
p870
aS'priori'
p871
aS'event'
p872
atp873
Rp874
ag2
((lp875
S'belief network'
p876
aS'fever'
p877
aS'probability of john'
p878
aS'parent'
p879
aS'probability'
p880
aS'probability of b'
p881
aS'scenario'
p882
aS'alarm'
p883
aS'priori probability'
p884
aS'evidence'
p885
aS'evidence e'
p886
aS'probability of alarm'
p887
aS'bayesian approach'
p888
aS'computation'
p889
aS'john calling'
p890
aS'compute'
p891
aS'conditional probability'
p892
aS'john'
p893
aS'cause'
p894
aS'earthquake'
p895
aS'ringing'
p896
atp897
Rp898
aa(lp899
g2
((lp900
S'predicate'
p901
aS'computer'
p902
aS'number'
p903
aS'uncertainty'
p904
atp905
Rp906
ag2
((lp907
S'belonging'
p908
aS'medium'
p909
aS'set'
p910
aS'temperature'
p911
aS'degree'
p912
aS'strong fever'
p913
aS'set theory'
p914
aS'imprecise'
p915
aS'set medium'
p916
aS'height'
p917
aS'person'
p918
aS'medium height'
p919
aS'set tall'
p920
aS'notion of truth'
p921
aS'tall'
p922
aS'crisp'
p923
aS'case of fuzzy'
p924
aS'element'
p925
aS'crisp set'
p926
aS'notion'
p927
atp928
Rp929
aa(lp930
g2
((lp931
S'set'
p932
aS'crisp'
p933
aS'temperature'
p934
aS'degree'
p935
aS'min'
p936
aS'number'
p937
aS'rule'
p938
aS'etc'
p939
aS'square'
p940
aS'set tall'
p941
aS'computer'
p942
aS'tall'
p943
aS'crisp set'
p944
atp945
Rp946
ag2
((lp947
S'control'
p948
aS'membership function'
p949
aS'angle'
p950
aS'fuzzy set'
p951
aS'power'
p952
aS'fuzzy set tall'
p953
aS'curve'
p954
aS'mew'
p955
aS'membership'
p956
aS'membership value'
p957
aS'relation'
p958
aS'tall will'
p959
aS'fuzzy'
p960
aS'crisp value'
p961
aS'fuzzy logic'
p962
atp963
Rp964
aa(lp965
g2
((lp966
S'set'
p967
aS'knowledge'
p968
aS'form'
p969
aS'space'
p970
aS'object'
p971
aS'system'
p972
aS'rule'
p973
aS'machine'
p974
aS'instance'
p975
aS'program'
p976
aS'performance'
p977
aS'etc'
p978
atp979
Rp980
ag2
((lp981
S'task'
p982
aS'patient'
p983
aS'apple'
p984
aS'inductive inference'
p985
aS'inductive bias'
p986
aS'learner'
p987
aS'experience'
p988
aS'machine learning'
p989
aS'concept learning'
p990
aS'learning'
p991
aS'learning problem'
p992
aS'region'
p993
atp994
Rp995
aa(lp996
g2
((lp997
S'set'
p998
aS'algorithm'
p999
aS'space'
p1000
aS'number'
p1001
aS'instance'
p1002
aS'concept learning'
p1003
aS'learning problem'
p1004
aS'type'
p1005
atp1006
Rp1007
ag2
((lp1008
S'target concept'
p1009
aS'training'
p1010
aS'version'
p1011
aS'hypothesis space'
p1012
aS'image'
p1013
aS'learning algorithm'
p1014
aS'bias'
p1015
aS'digit'
p1016
aS'preference'
p1017
aS'positive example'
p1018
aS'negative example'
p1019
aS'version space'
p1020
aS'hypothesis'
p1021
aS'preference bias'
p1022
aS'set of training'
p1023
aS'good hypothesis'
p1024
aS'possible hypothesis'
p1025
aS'training example'
p1026
aS'pixel'
p1027
aS'set of hypothesis'
p1028
aS'board'
p1029
atp1030
Rp1031
aa(lp1032
g2
((lp1033
S'node'
p1034
aS'training'
p1035
aS'set'
p1036
aS'algorithm'
p1037
aS'number'
p1038
aS'set of training'
p1039
aS'training example'
p1040
atp1041
Rp1042
ag2
((lp1043
S'information content'
p1044
aS'leaf'
p1045
aS'attribute'
p1046
aS'decision'
p1047
aS'target attribute'
p1048
aS'leaf node'
p1049
aS'same class'
p1050
aS'greedy algorithm'
p1051
aS'decision attribute'
p1052
aS'entropy'
p1053
aS'information gain'
p1054
atp1055
Rp1056
aa(lp1057
g2
((lp1058
S'node'
p1059
aS'training'
p1060
aS'set'
p1061
aS'temperature'
p1062
aS'algorithm'
p1063
aS'attribute'
p1064
aS'decision'
p1065
aS'rule'
p1066
aS'entropy'
p1067
atp1068
Rp1069
ag2
((lp1070
S'training set'
p1071
aS'noise'
p1072
aS'test set'
p1073
aS'rule set'
p1074
aS'decision tree'
p1075
aS'class'
p1076
aS'validation set'
p1077
aS'tree'
p1078
aS'feature'
p1079
aS'classifier'
p1080
aS'data set'
p1081
aS'train'
p1082
aS'testing'
p1083
aS'pruning'
p1084
aS'stopping'
p1085
aS'grow'
p1086
aS'accuracy'
p1087
aS'data'
p1088
aS'rule post'
p1089
aS'error pruning'
p1090
aS'size'
p1091
atp1092
Rp1093
aa(lp1094
g2
((lp1095
S'training set'
p1096
aS'algorithm'
p1097
aS'decision tree'
p1098
aS'decision'
p1099
aS'curve'
p1100
aS'training'
p1101
aS'concept learning'
p1102
aS'computer'
p1103
aS'training example'
p1104
aS'structure'
p1105
atp1106
Rp1107
ag2
((lp1108
S'weight'
p1109
aS'computing'
p1110
aS'process'
p1111
aS'training rule'
p1112
aS'neuron'
p1113
aS'linear unit'
p1114
aS'brain'
p1115
aS'weight vector'
p1116
aS'perceptron'
p1117
aS'descent'
p1118
aS'perform'
p1119
aS'human brain'
p1120
aS'sigma wixi'
p1121
aS'minus sigma'
p1122
aS'processing'
p1123
aS'linear threshold'
p1124
aS'eeta'
p1125
aS'threshold unit'
p1126
aS'xor function'
p1127
aS'gradient'
p1128
aS'gradient descent'
p1129
aS'vector'
p1130
aS'linear threshold unit'
p1131
aS'paradigm'
p1132
atp1133
Rp1134
aa(lp1135
g2
((lp1136
S'training'
p1137
aS'descent'
p1138
aS'weight'
p1139
aS'decision'
p1140
aS'gradient descent'
p1141
aS'number'
p1142
aS'linear threshold'
p1143
aS'weight vector'
p1144
aS'training example'
p1145
atp1146
Rp1147
ag2
((lp1148
S'tau'
p1149
aS'del od'
p1150
aS'learn'
p1151
aS'output unit'
p1152
aS'layer'
p1153
aS'surface'
p1154
aS'hidden unit'
p1155
aS'sigma x'
p1156
aS'back propagation'
p1157
aS'network'
p1158
aS'error function'
p1159
aS'neural network'
p1160
aS'unit'
p1161
aS'sigmoid unit'
p1162
aS'hidden'
p1163
aS'od by del'
p1164
aS'function'
p1165
aS'linear'
p1166
aS'del wi'
p1167
aS'decision surface'
p1168
aS'hidden layer'
p1169
aS'target value'
p1170
aS'sigmoidal function'
p1171
aS'propagation'
p1172
aS'positive region'
p1173
aS'error'
p1174
aS'sigmoid function'
p1175
aS'sigma'
p1176
atp1177
Rp1178
aa(lp1179
g2
((lp1180
S'training set'
p1181
aS'algorithm'
p1182
aS'probability'
p1183
aS'hypothesis space'
p1184
aS'attribute'
p1185
aS'number'
p1186
aS'instance'
p1187
aS'hypothesis'
p1188
aS'training'
p1189
aS'possible hypothesis'
p1190
aS'data'
p1191
aS'class'
p1192
atp1193
Rp1194
ag2
((lp1195
S'prior probability'
p1196
aS'p tumor'
p1197
aS'new instance'
p1198
aS'classification'
p1199
aS'malignant tumor'
p1200
aS'likely classification'
p1201
aS'maximum'
p1202
aS'bayesian learning'
p1203
aS'bayesian classification'
p1204
aS'tumor'
p1205
aS'tumor by plus'
p1206
aS'posterior'
p1207
aS'map hypothesis'
p1208
aS'bayesian'
p1209
aS'different hypothesis'
p1210
aS'posterior probability'
p1211
atp1212
Rp1213
aa(lp1214
g2
((lp1215
S'knowledge'
p1216
aS'algorithm'
p1217
aS'level'
p1218
aS'system'
p1219
aS'dog'
p1220
aS'etc'
p1221
aS'meaning'
p1222
aS'computer'
p1223
aS'interpret'
p1224
aS'order'
p1225
aS'structure'
p1226
atp1227
Rp1228
ag2
((lp1229
S'text'
p1230
aS'noun'
p1231
aS'common sense knowledge'
p1232
aS'noun phrase'
p1233
aS'industrial plant'
p1234
aS'information'
p1235
aS'language processing'
p1236
aS'application'
p1237
aS'speech'
p1238
aS'natural language processing'
p1239
aS'information retrieval'
p1240
aS'natural language'
p1241
aS'sort'
p1242
aS'plant'
p1243
aS'part of speech'
p1244
aS'understanding'
p1245
aS'dog ate'
p1246
aS'syntax'
p1247
aS'bank'
p1248
aS'school'
p1249
aS'word'
p1250
aS'language'
p1251
aS'verb phrase'
p1252
aS'english'
p1253
atp1254
Rp1255
aa(lp1256
g2
((lp1257
S'sort'
p1258
aS'domain'
p1259
aS'inference'
p1260
aS'knowledge'
p1261
aS'scenario'
p1262
aS'etc'
p1263
aS'language'
p1264
aS'frame'
p1265
aS'object'
p1266
aS'system'
p1267
aS'agent'
p1268
aS'understanding'
p1269
aS'machine'
p1270
aS'semantic net'
p1271
aS'speech'
p1272
aS'word'
p1273
aS'john'
p1274
aS'order'
p1275
aS'structure'
p1276
aS'natural language'
p1277
atp1278
Rp1279
ag2
((lp1280
S'machine translation'
p1281
aS'mary ate spaghetti'
p1282
aS'money'
p1283
aS'movie hall'
p1284
aS'sentence'
p1285
aS'co agent'
p1286
aS'balloon'
p1287
aS'script'
p1288
aS'question'
p1289
aS'mary ate'
p1290
aS'verb'
p1291
aS'role'
p1292
aS'hindi'
p1293
aS'movie'
p1294
aS'baby'
p1295
aS'query'
p1296
aS'translation'
p1297
aS'light bulb'
p1298
aS'issue'
p1299
aS'natural language understanding'
p1300
atp1301
Rp1302
aa(lp1303
(dp1304
a(dp1305
g30
(F4.357550071966408
I12
tp1306
sg31
(F4.357550071966408
I16
tp1307
sg32
(F4.357550071966408
I5
tp1308
sa(dp1309
g62
(F2.470644004099367
I9
tp1310
sg64
(F10.277346536194475
I99
tp1311
sg61
(F4.165244723583587
I21
tp1312
sg65
(F2.1143702187080753
I9
tp1313
sg63
(F10.277346536194475
I5
tp1314
sa(dp1315
g94
(F3.1745912720497764
I9
tp1316
sg93
(F10.035481360151094
I108
tp1317
sg90
(F10.035481360151094
I34
tp1318
sg91
(F10.035481360151094
I12
tp1319
sg92
(F10.035481360151094
I16
tp1320
sg95
(F2.373188451747915
I5
tp1321
sa(dp1322
g129
(F11.321696228181226
I11
tp1323
sg134
(F11.321696228181226
I11
tp1324
sg125
(F11.321696228181226
I5
tp1325
sg127
(F11.321696228181226
I11
tp1326
sg128
(F2.8578372866138544
I18
tp1327
sg132
(F5.859251925716299
I51
tp1328
sg133
(F5.859251925716299
I16
tp1329
sg130
(F11.321696228181226
I145
tp1330
sg126
(F2.341929019931419
I25
tp1331
sg131
(F2.310329962352971
I14
tp1332
sg124
(F2.0071312527419325
I11
tp1333
sa(dp1334
g170
(F8.440276995702652
I6
tp1335
sg174
(F2.6057835565652794
I7
tp1336
sg175
(F2.6460378143162164
I24
tp1337
sg163
(F8.440276995702652
I7
tp1338
sg164
(F8.440276995702652
I6
tp1339
sg166
(F4.225911052708902
I38
tp1340
sg171
(F2.0200796228318754
I21
tp1341
sg161
(F6.28822074532721
I61
tp1342
sg177
(F6.28822074532721
I7
tp1343
sg179
(F8.440276995702652
I6
tp1344
sg162
(F8.152855626366444
I50
tp1345
sg178
(F6.28822074532721
I16
tp1346
sg165
(F6.28822074532721
I5
tp1347
sg169
(F8.440276995702652
I25
tp1348
sg167
(F8.152855626366444
I6
tp1349
sg176
(F3.155154992096223
I31
tp1350
sg168
(F8.440276995702652
I91
tp1351
sg173
(F4.737308561048773
I41
tp1352
sg172
(F8.440276995702652
I7
tp1353
sa(dp1354
g207
(F8.048324937716659
I18
tp1355
sg211
(F2.83311041133745
I22
tp1356
sg212
(F8.048324937716659
I5
tp1357
sg214
(F3.5355237611324886
I5
tp1358
sg205
(F2.583474775892727
I5
tp1359
sg210
(F8.246547115472735
I6
tp1360
sg213
(F3.8313807854372097
I28
tp1361
sg218
(F8.048324937716659
I5
tp1362
sg203
(F8.246547115472735
I66
tp1363
sg216
(F3.8313807854372097
I6
tp1364
sg215
(F2.909110809186021
I17
tp1365
sg217
(F2.1051312700931697
I12
tp1366
sg204
(F8.048324937716659
I80
tp1367
sg206
(F2.297829925722995
I10
tp1368
sg209
(F2.412921880283379
I21
tp1369
sg208
(F3.5355237611324886
I57
tp1370
sa(dp1371
g248
(F7.0644346711364125
I12
tp1372
sg249
(F5.264536284896902
I25
tp1373
sg250
(F2.363616464103664
I14
tp1374
sg251
(F2.6680253312432907
I12
tp1375
sg245
(F10.459684948210867
I144
tp1376
sg252
(F7.707556234189125
I41
tp1377
sg253
(F7.707556234189125
I19
tp1378
sg247
(F7.0644346711364125
I80
tp1379
sg246
(F2.234355681871056
I15
tp1380
sg254
(F2.399977461918348
I7
tp1381
sa(dp1382
g280
(F6.79303803306017
I7
tp1383
sg281
(F2.0887030202415775
I31
tp1384
sg282
(F6.79303803306017
I7
tp1385
sg284
(F2.2148706078692046
I14
tp1386
sg278
(F3.4411168307352438
I19
tp1387
sg279
(F6.79303803306017
I50
tp1388
sg283
(F2.6437362601585495
I17
tp1389
sa(dp1390
g310
(F5.592138156523426
I7
tp1391
sg317
(F2.2357054950707678
I23
tp1392
sg319
(F2.3875078411091715
I5
tp1393
sg315
(F5.592138156523426
I13
tp1394
sg318
(F2.0714649562034686
I6
tp1395
sg311
(F7.0705120265392765
I23
tp1396
sg312
(F4.0154201095908775
I15
tp1397
sg316
(F7.0705120265392765
I14
tp1398
sg308
(F5.592138156523426
I42
tp1399
sg309
(F2.6700420844805084
I16
tp1400
sg314
(F7.0705120265392765
I59
tp1401
sg313
(F2.3008276583532115
I8
tp1402
sa(dp1403
g338
(F2.033559104693523
I8
tp1404
sg339
(F4.857329229610808
I9
tp1405
sg340
(F2.1941690000700635
I7
tp1406
sg337
(F3.2076059589143644
I18
tp1407
sg342
(F4.857329229610808
I40
tp1408
sg341
(F2.009938722374082
I10
tp1409
sa(dp1410
g368
(F2.4202546109447862
I24
tp1411
sg367
(F6.232449933124392
I28
tp1412
sg366
(F6.232449933124392
I9
tp1413
sa(dp1414
g389
(F2.4224116341646638
I22
tp1415
sg388
(F5.539973332859425
I23
tp1416
sg387
(F5.834900514168782
I28
tp1417
sg390
(F5.539973332859425
I5
tp1418
sa(dp1419
g414
(F5.187193436968367
I17
tp1420
sg416
(F5.187193436968367
I43
tp1421
sg417
(F4.280133054882758
I22
tp1422
sg415
(F4.280133054882758
I44
tp1423
sa(dp1424
g452
(F3.6323366012257368
I23
tp1425
sg456
(F3.6323366012257368
I17
tp1426
sg457
(F2.807259274442366
I8
tp1427
sg454
(F2.859420116592585
I10
tp1428
sg453
(F3.5985365432713583
I48
tp1429
sg455
(F3.5985365432713583
I31
tp1430
sg459
(F2.892826868423094
I9
tp1431
sg460
(F3.6323366012257368
I6
tp1432
sg458
(F2.859420116592585
I27
tp1433
sg461
(F3.4522643511575337
I19
tp1434
sa(dp1435
g482
(F4.39821886144311
I28
tp1436
sg485
(F3.084224745754123
I23
tp1437
sg483
(F3.7792298773612694
I26
tp1438
sg486
(F4.39821886144311
I9
tp1439
sg484
(F3.7792298773612694
I8
tp1440
sg487
(F3.6959993172347234
I20
tp1441
sa(dp1442
g511
(F2.2491784708201212
I6
tp1443
sg517
(F2.401439003201041
I8
tp1444
sg516
(F3.111254195581046
I23
tp1445
sg512
(F7.301528718602831
I6
tp1446
sg513
(F2.081243480359044
I5
tp1447
sg518
(F15.393470702284223
I7
tp1448
sg520
(F3.0213885827774334
I9
tp1449
sg514
(F2.3286873237349717
I13
tp1450
sg521
(F3.893404899899866
I9
tp1451
sg515
(F15.393470702284223
I98
tp1452
sg519
(F2.4598328213283436
I17
tp1453
sa(dp1454
g542
(F2.1475457175346055
I7
tp1455
sg540
(F3.4925376349285515
I8
tp1456
sg543
(F3.107682563721403
I21
tp1457
sg541
(F2.8564108643540176
I16
tp1458
sg544
(F3.107682563721403
I6
tp1459
sa(dp1460
g564
(F4.911437916957194
I8
tp1461
sg565
(F2.3215219024442026
I13
tp1462
sg563
(F4.17917806207133
I14
tp1463
sa(dp1464
g589
(F2.744211752484116
I6
tp1465
sg591
(F2.3376347939634723
I12
tp1466
sg592
(F2.429158457310336
I15
tp1467
sg595
(F2.6829813851299993
I27
tp1468
sg590
(F2.4689208453786344
I7
tp1469
sg594
(F2.9222530342254585
I27
tp1470
sg596
(F3.1978031348492233
I28
tp1471
sg597
(F2.145492871769504
I12
tp1472
sg593
(F2.280453045155779
I7
tp1473
sa(dp1474
g618
(F3.8492356238240215
I10
tp1475
sg623
(F6.343149212513702
I41
tp1476
sg627
(F6.490161008580108
I18
tp1477
sg625
(F2.949572783409808
I10
tp1478
sg626
(F9.37128773679261
I120
tp1479
sg622
(F9.37128773679261
I14
tp1480
sg619
(F9.37128773679261
I8
tp1481
sg620
(F9.37128773679261
I21
tp1482
sg624
(F3.8492356238240215
I5
tp1483
sg629
(F4.256572407682557
I37
tp1484
sg621
(F3.8492356238240215
I33
tp1485
sg628
(F2.022168398189498
I7
tp1486
sg630
(F2.4852951233070772
I15
tp1487
sa(dp1488
g652
(F7.099397286531538
I5
tp1489
sg662
(F9.036861992500372
I134
tp1490
sg663
(F2.207727636969685
I7
tp1491
sg658
(F9.036861992500372
I8
tp1492
sg653
(F7.099397286531538
I12
tp1493
sg654
(F9.036861992500372
I24
tp1494
sg656
(F9.036861992500372
I31
tp1495
sg659
(F4.907409151060216
I45
tp1496
sg657
(F7.099397286531538
I65
tp1497
sg655
(F4.346974379606646
I24
tp1498
sg660
(F9.036861992500372
I12
tp1499
sg661
(F10.489319275437618
I83
tp1500
sg664
(F3.386194638664661
I23
tp1501
sa(dp1502
g684
(F2.1832536566388328
I23
tp1503
sg680
(F3.4627122006250044
I27
tp1504
sg682
(F4.413649239942484
I57
tp1505
sg679
(F4.413649239942484
I10
tp1506
sg685
(F4.413649239942484
I30
tp1507
sg681
(F2.401591780454635
I14
tp1508
sg683
(F5.801851307501442
I50
tp1509
sg686
(F3.5098971575285134
I28
tp1510
sa(dp1511
g715
(F3.979666512000233
I34
tp1512
sg721
(F6.223433047441499
I33
tp1513
sg716
(F4.052318605964305
I22
tp1514
sg720
(F4.629164315122877
I62
tp1515
sg717
(F4.629164315122877
I22
tp1516
sg722
(F5.501187630595054
I59
tp1517
sg725
(F2.241539232638412
I10
tp1518
sg718
(F3.3578898232549315
I24
tp1519
sg724
(F2.5764964496369966
I14
tp1520
sg719
(F2.8597797377183998
I30
tp1521
sg723
(F9.447415048637474
I101
tp1522
sa(dp1523
g752
(F3.3931227332006797
I15
tp1524
sg753
(F3.8708055747185335
I19
tp1525
sg758
(F2.3868728898699754
I7
tp1526
sg754
(F7.160984969420651
I46
tp1527
sg763
(F2.5277850557043546
I15
tp1528
sg761
(F2.847146077339659
I19
tp1529
sg756
(F2.5277850557043546
I15
tp1530
sg760
(F3.8708055747185335
I7
tp1531
sg762
(F3.0095446252343705
I18
tp1532
sg764
(F2.1306923510308557
I6
tp1533
sg766
(F2.618342237257291
I11
tp1534
sg757
(F2.0203843151582412
I9
tp1535
sg755
(F2.8510668436430215
I9
tp1536
sg759
(F13.927153591356422
I60
tp1537
sg765
(F3.517317398758977
I13
tp1538
sa(dp1539
g797
(F3.7016817592870317
I16
tp1540
sg795
(F3.535725684201106
I9
tp1541
sg796
(F4.469457204439486
I18
tp1542
sg798
(F2.6031520847040515
I17
tp1543
sg799
(F2.209273371748113
I10
tp1544
sg800
(F2.2263225734370997
I7
tp1545
sa(dp1546
g824
(F2.2114058730945456
I6
tp1547
sg826
(F3.9825688510733945
I21
tp1548
sg827
(F8.033513012486642
I58
tp1549
sg825
(F3.9825688510733945
I11
tp1550
sa(dp1551
g843
(F3.0602973910038997
I9
tp1552
sg848
(F2.610538937785471
I10
tp1553
sg844
(F3.2294723894246244
I12
tp1554
sg845
(F2.2479543129237665
I10
tp1555
sg846
(F2.563377956098532
I11
tp1556
sg847
(F4.480466585344927
I17
tp1557
sg849
(F6.515495751449664
I21
tp1558
sg850
(F2.144839323660387
I5
tp1559
sa(dp1560
g869
(F2.2665827639163756
I13
tp1561
sg870
(F2.602555036101459
I12
tp1562
sg872
(F2.843368327607193
I8
tp1563
sg871
(F2.0816693499249515
I22
tp1564
sg867
(F5.267335412209101
I44
tp1565
sg868
(F3.3824566604768465
I26
tp1566
sa(dp1567
g901
(F2.121120838753632
I10
tp1568
sg902
(F2.19781114116504
I6
tp1569
sg903
(F2.664101441303178
I8
tp1570
sg904
(F2.25829565134722
I8
tp1571
sa(dp1572
g937
(F2.0044227272431705
I11
tp1573
sg932
(F8.69372628641921
I111
tp1574
sg941
(F8.69372628641921
I9
tp1575
sg944
(F8.69372628641921
I15
tp1576
sg934
(F2.2635764043552378
I10
tp1577
sg936
(F2.2012126437853907
I17
tp1578
sg940
(F2.046520768491414
I11
tp1579
sg935
(F2.1226258137198495
I17
tp1580
sg943
(F3.2794043527755132
I36
tp1581
sg933
(F3.28871250578523
I28
tp1582
sg938
(F5.021946032723976
I21
tp1583
sg939
(F2.0774156837962785
I10
tp1584
sg942
(F3.335100112585797
I6
tp1585
sa(dp1586
g967
(F3.8777600861047414
I44
tp1587
sg973
(F4.218135573103559
I6
tp1588
sg968
(F3.555640556478833
I25
tp1589
sg970
(F2.474613985900613
I17
tp1590
sg972
(F5.489670770099704
I36
tp1591
sg974
(F3.889044256840947
I17
tp1592
sg975
(F3.4644301687273327
I14
tp1593
sg976
(F2.2496373962697085
I7
tp1594
sg977
(F2.797759633599492
I18
tp1595
sg969
(F2.3212508820572917
I10
tp1596
sg971
(F2.4729566981330966
I9
tp1597
sg978
(F2.430120341162532
I8
tp1598
sa(dp1599
g998
(F7.917155067681643
I100
tp1600
sg1001
(F3.268357931605419
I14
tp1601
sg1003
(F3.1503443708679577
I5
tp1602
sg1000
(F5.379515990463551
I92
tp1603
sg1002
(F3.4932357211940213
I14
tp1604
sg1004
(F3.1503443708679577
I9
tp1605
sg1005
(F2.246570678184773
I5
tp1606
sg999
(F5.068736919365415
I30
tp1607
sa(dp1608
g1036
(F3.7188499819152803
I38
tp1609
sg1038
(F2.472599204537022
I16
tp1610
sg1034
(F5.193788333464451
I41
tp1611
sg1040
(F6.5420253479238974
I9
tp1612
sg1035
(F4.436411635409663
I54
tp1613
sg1037
(F5.008369840194959
I28
tp1614
sg1039
(F4.436411635409663
I8
tp1615
sa(dp1616
g1061
(F8.526814878223226
I92
tp1617
sg1064
(F7.708540914074161
I28
tp1618
sg1067
(F2.5954067757565054
I21
tp1619
sg1062
(F2.2339895991881153
I16
tp1620
sg1065
(F6.669428056579827
I60
tp1621
sg1059
(F5.908067270523166
I44
tp1622
sg1060
(F4.103116189604443
I37
tp1623
sg1063
(F3.038064868347119
I17
tp1624
sg1066
(F4.666819013221276
I24
tp1625
sa(dp1626
g1102
(F2.2233948457090795
I5
tp1627
sg1103
(F5.281568535954191
I6
tp1628
sg1099
(F2.5756400791888683
I20
tp1629
sg1098
(F2.5756400791888683
I8
tp1630
sg1096
(F4.8027721947107755
I5
tp1631
sg1104
(F4.8027721947107755
I10
tp1632
sg1105
(F2.0969771736892833
I6
tp1633
sg1101
(F4.8027721947107755
I40
tp1634
sg1097
(F2.8218487293476895
I10
tp1635
sg1100
(F2.1794458795915865
I12
tp1636
sa(dp1637
g1139
(F4.6136193512500645
I16
tp1638
sg1144
(F4.6136193512500645
I5
tp1639
sg1142
(F2.368719551885185
I10
tp1640
sg1140
(F2.5524551715877957
I18
tp1641
sg1143
(F3.335374561342764
I5
tp1642
sg1145
(F5.160390531757352
I6
tp1643
sg1138
(F2.0830045074347905
I15
tp1644
sg1137
(F5.160390531757352
I28
tp1645
sg1141
(F2.178857584108319
I15
tp1646
sa(dp1647
g1183
(F9.197698217177761
I57
tp1648
sg1185
(F4.654577384810817
I15
tp1649
sg1186
(F2.350224081282137
I15
tp1650
sg1190
(F8.40131824273541
I5
tp1651
sg1187
(F2.364924655027148
I16
tp1652
sg1181
(F2.418140042501249
I6
tp1653
sg1188
(F8.40131824273541
I115
tp1654
sg1191
(F3.2476337297114717
I25
tp1655
sg1192
(F5.101951501628962
I30
tp1656
sg1189
(F2.418140042501249
I22
tp1657
sg1182
(F3.207984509018811
I8
tp1658
sg1184
(F8.40131824273541
I13
tp1659
sa(dp1660
g1223
(F4.332445383359096
I14
tp1661
sg1216
(F3.9134406564009248
I18
tp1662
sg1219
(F2.5266048495685816
I12
tp1663
sg1224
(F2.2247302288121324
I6
tp1664
sg1222
(F3.0288319647171886
I30
tp1665
sg1226
(F2.0624486919707303
I8
tp1666
sg1217
(F2.777675754010388
I7
tp1667
sg1218
(F2.404873137448425
I8
tp1668
sg1220
(F2.5524544847933943
I15
tp1669
sg1221
(F2.790466552441023
I10
tp1670
sg1225
(F2.3043876259159037
I9
tp1671
sa(dp1672
g1260
(F4.116181657483071
I10
tp1673
sg1265
(F4.34154326671664
I19
tp1674
sg1259
(F2.6066959788330757
I11
tp1675
sg1268
(F2.5891335407175338
I17
tp1676
sg1261
(F3.4823198745081925
I16
tp1677
sg1271
(F3.4641180793320405
I5
tp1678
sg1263
(F3.0062138156783544
I13
tp1679
sg1267
(F3.04641228416338
I11
tp1680
sg1270
(F2.4213421927695427
I14
tp1681
sg1272
(F2.1947936197628946
I14
tp1682
sg1274
(F3.023631841584984
I22
tp1683
sg1277
(F6.758513928905577
I20
tp1684
sg1258
(F2.3678108147848214
I7
tp1685
sg1266
(F2.7622868931375906
I12
tp1686
sg1269
(F2.730308603429955
I17
tp1687
sg1276
(F2.622654419358854
I11
tp1688
sg1273
(F2.490626769590611
I8
tp1689
sg1262
(F2.124419581108275
I7
tp1690
sg1264
(F6.758513928905577
I32
tp1691
sg1275
(F2.7870765696315405
I13
tp1692
sa(lp1693
(lp1694
F0.0
aF0.0
aF0.0
aF0.0
aF0.0
aF0.0
aF0.0
aF0.0
aF0.0
aF0.0
aF0.0
aF0.0
aF0.0
aF0.0
aF0.0
aF0.0
aF0.0
aF0.0
aF0.0
aF0.0
aF0.0
aF0.0
aF0.0
aF0.0
aF0.0
aF0.0
aF0.0
aF0.0
aF0.0
aF0.0
aF0.0
aF0.0
aF0.0
aF0.0
aF0.0
aF0.0
aF0.0
aF0.0
aF0.0
aF0.0
aa(lp1695
F4.357550071966408
aF0.0
aF0.0
aF0.0
aF0.0
aF0.0
aF0.0
aF0.0
aF0.0
aF0.0
aF0.0
aF0.0
aF0.0
aF0.0
aF0.0
aF0.0
aF0.0
aF0.0
aF0.0
aF0.0
aF0.0
aF0.0
aF0.0
aF0.0
aF0.0
aF0.0
aF0.0
aF0.0
aF0.0
aF0.0
aF0.0
aF0.0
aF0.0
aF0.0
aF0.0
aF0.0
aF0.0
aF0.0
aF0.0
aF0.0
aa(lp1696
F0.03109901543621581
aF6.575348312883097
aF0.0
aF0.0
aF0.0
aF0.0
aF0.0
aF0.0
aF0.0
aF0.0
aF0.0
aF0.0
aF0.0
aF0.0
aF0.0
aF0.0
aF0.0
aF0.0
aF0.0
aF0.0
aF0.0
aF0.0
aF0.0
aF0.0
aF0.0
aF0.0
aF0.0
aF0.0
aF0.0
aF0.0
aF0.0
aF0.0
aF0.0
aF0.0
aF0.0
aF0.0
aF0.0
aF0.0
aF0.0
aF0.0
aa(lp1697
F0.0
aF0.0
aF9.491679863765617
aF0.0
aF0.0
aF0.0
aF0.0
aF0.0
aF0.0
aF0.0
aF0.0
aF0.0
aF0.0
aF0.0
aF0.0
aF0.0
aF0.0
aF0.0
aF0.0
aF0.0
aF0.0
aF0.0
aF0.0
aF0.0
aF0.0
aF0.0
aF0.0
aF0.0
aF0.0
aF0.0
aF0.0
aF0.0
aF0.0
aF0.0
aF0.0
aF0.0
aF0.0
aF0.0
aF0.0
aF0.0
aa(lp1698
F0.0
aF0.0
aF0.2244539045300126
aF5.753729253004122
aF0.0
aF0.0
aF0.0
aF0.0
aF0.0
aF0.0
aF0.0
aF0.0
aF0.0
aF0.0
aF0.0
aF0.0
aF0.0
aF0.0
aF0.0
aF0.0
aF0.0
aF0.0
aF0.0
aF0.0
aF0.0
aF0.0
aF0.0
aF0.0
aF0.0
aF0.0
aF0.0
aF0.0
aF0.0
aF0.0
aF0.0
aF0.0
aF0.0
aF0.0
aF0.0
aF0.0
aa(lp1699
F0.0
aF0.0
aF0.2589481301719475
aF1.2814328296889463
aF0.7269341693423741
aF0.0
aF0.0
aF0.0
aF0.0
aF0.0
aF0.0
aF0.0
aF0.0
aF0.0
aF0.0
aF0.0
aF0.0
aF0.0
aF0.0
aF0.0
aF0.0
aF0.0
aF0.0
aF0.0
aF0.0
aF0.0
aF0.0
aF0.0
aF0.0
aF0.0
aF0.0
aF0.0
aF0.0
aF0.0
aF0.0
aF0.0
aF0.0
aF0.0
aF0.0
aF0.0
aa(lp1700
F0.002224065750596356
aF0.0
aF0.04485776401682684
aF0.4335781009205494
aF1.333544867601513
aF0.029375595146919366
aF0.0
aF0.0
aF0.0
aF0.0
aF0.0
aF0.0
aF0.0
aF0.0
aF0.0
aF0.0
aF0.0
aF0.0
aF0.0
aF0.0
aF0.0
aF0.0
aF0.0
aF0.0
aF0.0
aF0.0
aF0.0
aF0.0
aF0.0
aF0.0
aF0.0
aF0.0
aF0.0
aF0.0
aF0.0
aF0.0
aF0.0
aF0.0
aF0.0
aF0.0
aa(lp1701
F0.0
aF0.0
aF0.0
aF0.555644979652533
aF0.40818282724725335
aF0.008967650541314714
aF0.8711150777535475
aF0.0
aF0.0
aF0.0
aF0.0
aF0.0
aF0.0
aF0.0
aF0.0
aF0.0
aF0.0
aF0.0
aF0.0
aF0.0
aF0.0
aF0.0
aF0.0
aF0.0
aF0.0
aF0.0
aF0.0
aF0.0
aF0.0
aF0.0
aF0.0
aF0.0
aF0.0
aF0.0
aF0.0
aF0.0
aF0.0
aF0.0
aF0.0
aF0.0
aa(lp1702
F0.0
aF0.0
aF0.18868567908898082
aF1.2772808403166256
aF0.06441499486105381
aF0.04684853815903565
aF0.0
aF0.0
aF0.0
aF0.0
aF0.0
aF0.0
aF0.0
aF0.0
aF0.0
aF0.0
aF0.0
aF0.0
aF0.0
aF0.0
aF0.0
aF0.0
aF0.0
aF0.0
aF0.0
aF0.0
aF0.0
aF0.0
aF0.0
aF0.0
aF0.0
aF0.0
aF0.0
aF0.0
aF0.0
aF0.0
aF0.0
aF0.0
aF0.0
aF0.0
aa(lp1703
F0.004483690381392789
aF0.0
aF0.0
aF0.3164733668143653
aF0.0
aF0.08327450893686339
aF0.0
aF0.0
aF1.736708272259323
aF0.0
aF0.0
aF0.0
aF0.0
aF0.0
aF0.0
aF0.0
aF0.0
aF0.0
aF0.0
aF0.0
aF0.0
aF0.0
aF0.0
aF0.0
aF0.0
aF0.0
aF0.0
aF0.0
aF0.0
aF0.0
aF0.0
aF0.0
aF0.0
aF0.0
aF0.0
aF0.0
aF0.0
aF0.0
aF0.0
aF0.0
aa(lp1704
F1.6073154321271095
aF0.12847308052257703
aF0.0
aF0.0
aF0.0
aF0.0
aF0.0
aF0.0
aF0.0
aF0.029471871082514825
aF0.0
aF0.0
aF0.0
aF0.0
aF0.0
aF0.0
aF0.0
aF0.0
aF0.0
aF0.0
aF0.0
aF0.0
aF0.0
aF0.0
aF0.0
aF0.0
aF0.0
aF0.0
aF0.0
aF0.0
aF0.0
aF0.0
aF0.0
aF0.0
aF0.0
aF0.0
aF0.0
aF0.0
aF0.0
aF0.0
aa(lp1705
F0.0
aF0.0
aF0.0
aF0.0
aF0.0
aF0.0
aF0.0
aF0.0
aF0.0
aF0.0
aF4.732569806365203
aF0.0
aF0.0
aF0.0
aF0.0
aF0.0
aF0.0
aF0.0
aF0.0
aF0.0
aF0.0
aF0.0
aF0.0
aF0.0
aF0.0
aF0.0
aF0.0
aF0.0
aF0.0
aF0.0
aF0.0
aF0.0
aF0.0
aF0.0
aF0.0
aF0.0
aF0.0
aF0.0
aF0.0
aF0.0
aa(lp1706
F0.0
aF0.0
aF0.0
aF0.0
aF0.0
aF0.17081107676802118
aF0.0
aF0.0
aF0.0
aF0.0
aF3.062466035738364
aF0.0
aF0.0
aF0.0
aF0.0
aF0.0
aF0.0
aF0.0
aF0.0
aF0.0
aF0.0
aF0.0
aF0.0
aF0.0
aF0.0
aF0.0
aF0.0
aF0.0
aF0.0
aF0.0
aF0.0
aF0.0
aF0.0
aF0.0
aF0.0
aF0.0
aF0.0
aF0.0
aF0.0
aF0.0
aa(lp1707
F0.0
aF0.0
aF0.0
aF0.0
aF0.0
aF0.0
aF0.0
aF0.0
aF0.0
aF0.0
aF0.0
aF0.0
aF4.712066570161619
aF0.0
aF0.0
aF0.0
aF0.0
aF0.0
aF0.0
aF0.0
aF0.0
aF0.0
aF0.0
aF0.0
aF0.0
aF0.0
aF0.0
aF0.0
aF0.0
aF0.0
aF0.0
aF0.0
aF0.0
aF0.0
aF0.0
aF0.0
aF0.0
aF0.0
aF0.0
aF0.0
aa(lp1708
F0.0
aF0.0
aF0.0
aF0.0
aF0.0
aF0.0
aF0.0
aF0.0
aF0.0
aF0.0
aF0.01444151574036659
aF0.2871559463822599
aF0.3371178896924686
aF0.27450617836503904
aF0.0
aF0.0
aF0.0
aF0.0
aF0.0
aF0.0
aF0.0
aF0.0
aF0.0
aF0.0
aF0.0
aF0.0
aF0.0
aF0.0
aF0.0
aF0.0
aF0.0
aF0.0
aF0.0
aF0.0
aF0.0
aF0.0
aF0.0
aF0.0
aF0.0
aF0.0
aa(lp1709
F0.0
aF0.0
aF0.10370931162623515
aF0.0
aF0.0
aF0.0
aF0.0
aF0.0
aF0.0
aF0.0
aF0.47583069553624285
aF0.37571291178445365
aF0.1080701554746995
aF0.0
aF0.0
aF0.0
aF0.0
aF0.0
aF0.0
aF0.0
aF0.0
aF0.0
aF0.0
aF0.0
aF0.0
aF0.0
aF0.0
aF0.0
aF0.0
aF0.0
aF0.0
aF0.0
aF0.0
aF0.0
aF0.0
aF0.0
aF0.0
aF0.0
aF0.0
aF0.0
aa(lp1710
F0.0
aF0.0
aF0.1043582259701321
aF0.013691965268455284
aF0.04197558504803729
aF0.0
aF0.0
aF0.0
aF0.0
aF0.006103605076852431
aF0.0
aF0.0
aF0.0
aF0.0
aF0.0
aF3.8525066558193557
aF0.0
aF0.0
aF0.0
aF0.0
aF0.0
aF0.0
aF0.0
aF0.0
aF0.0
aF0.0
aF0.0
aF0.0
aF0.0
aF0.0
aF0.0
aF0.0
aF0.0
aF0.0
aF0.0
aF0.0
aF0.0
aF0.0
aF0.0
aF0.0
aa(lp1711
F0.0
aF0.0
aF0.0
aF0.0
aF0.09634586579113247
aF0.0
aF0.0
aF0.0
aF0.0
aF0.0
aF1.0235198197574495
aF0.0
aF0.0
aF0.15759508217125617
aF0.0
aF0.0
aF0.0
aF0.0
aF0.0
aF0.0
aF0.0
aF0.0
aF0.0
aF0.0
aF0.0
aF0.0
aF0.0
aF0.0
aF0.0
aF0.0
aF0.0
aF0.0
aF0.0
aF0.0
aF0.0
aF0.0
aF0.0
aF0.0
aF0.0
aF0.0
aa(lp1712
F0.0
aF0.0
aF0.0
aF0.0
aF0.5572237416095106
aF0.0
aF0.0
aF0.0
aF0.0
aF0.0
aF0.0
aF0.0
aF0.0
aF0.0
aF0.0
aF0.374204793672929
aF0.0
aF0.2874265212549965
aF0.0
aF0.0
aF0.0
aF0.0
aF0.0
aF0.0
aF0.0
aF0.0
aF0.0
aF0.0
aF0.0
aF0.0
aF0.0
aF0.0
aF0.0
aF0.0
aF0.0
aF0.0
aF0.0
aF0.0
aF0.0
aF0.0
aa(lp1713
F0.057084710321914874
aF0.0
aF0.0
aF0.0
aF0.0
aF0.02871345694220255
aF0.0
aF0.0
aF0.02210529355993827
aF0.0
aF0.0
aF0.0
aF0.07055830399982525
aF0.0
aF0.0
aF0.051108655367998655
aF0.0
aF0.02028834866921517
aF0.15158909037310925
aF0.0
aF0.0
aF0.0
aF0.0
aF0.0
aF0.0
aF0.0
aF0.0
aF0.0
aF0.0
aF0.0
aF0.0
aF0.0
aF0.0
aF0.0
aF0.0
aF0.0
aF0.0
aF0.0
aF0.0
aF0.0
aa(lp1714
F0.0
aF0.1314113208745904
aF1.7767327630309002
aF0.0663811906990301
aF0.0
aF0.0
aF0.0
aF0.0
aF0.0
aF0.0
aF0.12449107203934494
aF0.0
aF0.0
aF0.008459139289676915
aF0.0
aF0.0
aF0.0
aF0.0032119761260100944
aF0.0
aF0.0
aF0.0
aF0.0
aF0.0
aF0.0
aF0.0
aF0.0
aF0.0
aF0.0
aF0.0
aF0.0
aF0.0
aF0.0
aF0.0
aF0.0
aF0.0
aF0.0
aF0.0
aF0.0
aF0.0
aF0.0
aa(lp1715
F0.0
aF0.03591371146490645
aF1.535781555076092
aF0.1616385786492788
aF0.013854735312795324
aF0.016966561247448286
aF0.0
aF0.0
aF0.0
aF0.0
aF0.0
aF0.0
aF0.0
aF0.012665876840020688
aF0.0
aF0.0
aF0.0
aF0.0
aF0.0
aF0.0
aF0.2881989244820654
aF0.0
aF0.0
aF0.0
aF0.0
aF0.0
aF0.0
aF0.0
aF0.0
aF0.0
aF0.0
aF0.0
aF0.0
aF0.0
aF0.0
aF0.0
aF0.0
aF0.0
aF0.0
aF0.0
aa(lp1716
F0.0
aF0.02626298854743366
aF0.6717426405979408
aF0.0
aF0.0
aF0.017584877053538124
aF0.0
aF0.0
aF0.0
aF0.0
aF0.0
aF0.0
aF0.0
aF0.05140016757886944
aF0.0
aF0.0
aF0.0
aF0.0
aF0.0
aF0.0
aF0.1517220530204352
aF0.048898132540206654
aF0.0
aF0.0
aF0.0
aF0.0
aF0.0
aF0.0
aF0.0
aF0.0
aF0.0
aF0.0
aF0.0
aF0.0
aF0.0
aF0.0
aF0.0
aF0.0
aF0.0
aF0.0
aa(lp1717
F0.0
aF0.0
aF0.17201937733701472
aF0.07360440074747639
aF0.0
aF0.007978533575518237
aF0.0
aF0.0
aF0.0
aF0.0
aF0.04542651859446349
aF0.0
aF0.0
aF0.0
aF0.0
aF0.0
aF0.0
aF0.0
aF0.0
aF0.0
aF0.21105704930599092
aF0.0197193119511645
aF0.3200359150228933
aF0.0
aF0.0
aF0.0
aF0.0
aF0.0
aF0.0
aF0.0
aF0.0
aF0.0
aF0.0
aF0.0
aF0.0
aF0.0
aF0.0
aF0.0
aF0.0
aF0.0
aa(lp1718
F0.0
aF0.0
aF0.0134066358040777
aF0.004506433416709832
aF0.0031683157636146556
aF0.004140795595809126
aF0.0
aF0.0
aF0.0
aF0.012613839156879851
aF0.08163700336885997
aF0.0
aF0.0
aF0.011332125448294103
aF0.0
aF0.9818507694456365
aF0.03758788186920973
aF0.0
aF0.0
aF0.0
aF0.0
aF0.007137983794257795
aF0.0
aF0.0063592569003190075
aF0.0
aF0.0
aF0.0
aF0.0
aF0.0
aF0.0
aF0.0
aF0.0
aF0.0
aF0.0
aF0.0
aF0.0
aF0.0
aF0.0
aF0.0
aF0.0
aa(lp1719
F0.0
aF0.0
aF0.0
aF0.0
aF0.0
aF0.0
aF0.0
aF0.0
aF0.0
aF0.0
aF0.12819677088439935
aF0.0
aF0.0
aF0.03373216020359242
aF0.0
aF0.5398433554973143
aF0.0
aF0.0
aF0.0
aF0.0
aF0.0
aF0.0
aF0.0
aF0.0
aF0.2333950860402211
aF0.0
aF0.0
aF0.0
aF0.0
aF0.0
aF0.0
aF0.0
aF0.0
aF0.0
aF0.0
aF0.0
aF0.0
aF0.0
aF0.0
aF0.0
aa(lp1720
F0.0
aF0.0
aF0.0
aF0.0
aF0.0
aF0.0
aF0.0
aF0.0
aF0.0
aF0.0
aF0.0
aF0.0
aF0.0
aF0.0
aF0.0
aF1.2133951945943366
aF0.0
aF0.0
aF0.0
aF0.0
aF0.0
aF0.0
aF0.0
aF0.0
aF0.0
aF1.0993018630696556
aF0.0
aF0.0
aF0.0
aF0.0
aF0.0
aF0.0
aF0.0
aF0.0
aF0.0
aF0.0
aF0.0
aF0.0
aF0.0
aF0.0
aa(lp1721
F0.0
aF0.0
aF0.0
aF0.0
aF0.0
aF0.03434919654980883
aF0.0
aF0.0
aF0.0
aF0.0
aF0.05099166930670459
aF0.0
aF0.0
aF0.0
aF0.0
aF0.43254759815652116
aF0.0
aF0.014110785024081493
aF0.02957834622268114
aF0.0
aF0.0
aF0.0
aF0.0
aF0.0
aF0.0
aF0.10022096309324179
aF0.03710152304879454
aF0.0
aF0.0
aF0.0
aF0.0
aF0.0
aF0.0
aF0.0
aF0.0
aF0.0
aF0.0
aF0.0
aF0.0
aF0.0
aa(lp1722
F0.0
aF0.0
aF0.0
aF0.0
aF0.30901701084960054
aF0.03928743457455051
aF0.0
aF0.0
aF0.0
aF0.0
aF0.0
aF0.0
aF0.0
aF0.0
aF0.0
aF0.0
aF0.0
aF0.0
aF0.0
aF0.0
aF0.0
aF0.0
aF0.04164088057762334
aF0.0
aF0.0
aF0.11725849756319735
aF0.0
aF0.18278312618455056
aF0.0
aF0.0
aF0.0
aF0.0
aF0.0
aF0.0
aF0.0
aF0.0
aF0.0
aF0.0
aF0.0
aF0.0
aa(lp1723
F0.10302239724211124
aF0.0
aF0.0
aF0.0
aF0.0
aF0.16650634008144863
aF0.0
aF0.0
aF0.0
aF0.0
aF0.0
aF0.0
aF0.16571256552762753
aF0.0
aF0.0
aF0.0
aF0.0
aF0.0
aF0.0
aF0.0
aF0.0
aF0.0
aF0.0
aF0.0
aF0.0
aF0.14114347820920126
aF0.0
aF0.0
aF0.0
aF0.0
aF0.0
aF0.0
aF0.0
aF0.0
aF0.0
aF0.0
aF0.0
aF0.0
aF0.0
aF0.0
aa(lp1724
F0.005096943625958935
aF0.0
aF0.0
aF0.0
aF0.0
aF0.005616059602566194
aF0.0
aF0.009531486231368222
aF0.0
aF0.0
aF0.0
aF0.0
aF0.0
aF0.005734011322823626
aF0.0
aF0.026862166756801708
aF0.0
aF0.005291430677015483
aF0.0
aF0.0
aF0.0
aF0.0
aF0.0
aF0.0
aF0.0
aF0.0
aF0.0
aF0.0
aF0.0
aF2.571984643106728
aF0.0
aF0.0
aF0.0
aF0.0
aF0.0
aF0.0
aF0.0
aF0.0
aF0.0
aF0.0
aa(lp1725
F0.06466130658782311
aF0.019889286494783116
aF0.0
aF0.016614706856362724
aF0.0
aF0.0
aF0.0
aF0.0
aF0.0
aF0.0
aF0.03510703551025704
aF0.009167657512074611
aF0.0
aF0.0
aF0.0
aF0.009995581926785683
aF0.0
aF0.007678105343325536
aF0.0
aF0.05589149498055333
aF0.0
aF0.0
aF0.0
aF0.0
aF0.07805219104407163
aF0.0
aF0.0
aF0.0
aF0.0
aF0.0673860362514252
aF0.0
aF0.0
aF0.0
aF0.0
aF0.0
aF0.0
aF0.0
aF0.0
aF0.0
aF0.0
aa(lp1726
F0.0
aF0.0
aF0.0
aF0.22997930814249382
aF0.0
aF0.18384676451992407
aF0.0
aF0.0
aF0.0
aF0.0
aF0.0
aF0.0
aF0.0
aF0.0
aF0.0
aF0.0
aF0.0
aF0.0
aF0.0
aF0.055890477218996426
aF0.0
aF0.0
aF0.0
aF0.0
aF0.0
aF0.0
aF0.0
aF0.0
aF0.0
aF0.3678975403197789
aF0.0
aF0.040989610773374915
aF0.0
aF0.0
aF0.0
aF0.0
aF0.0
aF0.0
aF0.0
aF0.0
aa(lp1727
F0.0
aF0.0
aF0.0
aF0.0
aF0.15680804246836708
aF0.264795202942638
aF0.0
aF0.0
aF0.0
aF0.0
aF0.0
aF0.0
aF0.0
aF0.0
aF0.0
aF0.0
aF0.0
aF0.0
aF0.0
aF0.0
aF0.0
aF0.0
aF0.0
aF0.0
aF0.0
aF0.0
aF0.0
aF0.0
aF0.0
aF0.10406207607715805
aF0.0
aF0.0
aF0.7377078413697662
aF0.0
aF0.0
aF0.0
aF0.0
aF0.0
aF0.0
aF0.0
aa(lp1728
F0.0
aF0.0
aF0.0
aF0.0
aF0.08520319891937701
aF0.016927926175647662
aF0.0
aF0.0
aF0.0
aF0.0
aF0.0
aF0.0
aF0.0
aF0.0
aF0.0
aF0.03671047404697169
aF0.0
aF0.0
aF0.0
aF0.0
aF0.0
aF0.0
aF0.0
aF0.0
aF0.0
aF0.0
aF0.0
aF0.0
aF0.0
aF0.5376668648859696
aF0.0
aF0.0
aF0.04975919338425577
aF0.6593002667450862
aF0.0
aF0.0
aF0.0
aF0.0
aF0.0
aF0.0
aa(lp1729
F0.02597492722600422
aF0.0
aF0.0
aF0.0
aF0.0
aF0.023129907617604015
aF0.0
aF0.0
aF0.0
aF0.0
aF0.0
aF0.0
aF0.0
aF0.0
aF0.0
aF0.0
aF0.0
aF0.0
aF0.0
aF0.0
aF0.0
aF0.0
aF0.0
aF0.0
aF0.010313002493553852
aF0.0
aF0.0
aF0.0
aF0.0
aF0.0
aF0.021437172586146754
aF0.009112273957824098
aF0.39366985202547344
aF0.04222360785555522
aF0.07314587148699152
aF0.0
aF0.0
aF0.0
aF0.0
aF0.0
aa(lp1730
F0.0
aF0.0
aF0.0
aF0.0
aF0.0
aF0.022304327230557298
aF0.0
aF0.0
aF0.0
aF0.0
aF0.0
aF0.0
aF0.0
aF0.0
aF0.0
aF0.0
aF0.0
aF0.0
aF0.0
aF0.0
aF0.0
aF0.0
aF0.0
aF0.0
aF0.0
aF0.0
aF0.0
aF0.0
aF0.0
aF0.0
aF0.0
aF0.0
aF0.33042048602589447
aF0.04326195206081009
aF0.0
aF0.8356441174958184
aF0.0
aF0.0
aF0.0
aF0.0
aa(lp1731
F0.0
aF0.0
aF0.0
aF0.0
aF0.0
aF0.031048540923232688
aF0.0
aF0.0
aF0.0
aF0.0
aF0.0
aF0.0
aF0.0
aF0.0
aF0.0
aF0.0
aF0.0
aF0.0
aF0.0
aF0.009642913985839541
aF0.0
aF0.0
aF0.0
aF0.0
aF0.0
aF0.0
aF0.0
aF0.0
aF0.13360570804768918
aF0.0
aF0.0
aF0.0
aF1.193246082791883
aF0.017792727006157555
aF0.19018213191640915
aF0.0
aF0.0
aF0.0
aF0.0
aF0.0
aa(lp1732
F0.040248331364981654
aF0.0
aF0.0
aF0.0
aF0.0
aF0.012902276229643473
aF0.0
aF0.0
aF0.0
aF0.0
aF0.1112014773564558
aF0.0
aF0.0
aF0.14811472803551265
aF0.0
aF0.0
aF0.0
aF0.018516699087199887
aF0.0
aF0.025405983591175126
aF0.0
aF0.0
aF0.0
aF0.012766413470197345
aF0.06213516619852532
aF0.0
aF0.0
aF0.0
aF0.0
aF0.0
aF0.0
aF0.0
aF0.0
aF0.0
aF0.0
aF0.0
aF0.0
aF0.0
aF0.0
aF0.0
aa(lp1733
F0.006075052096554408
aF0.007888041253082094
aF0.0
aF0.0
aF0.0
aF0.0
aF0.0
aF0.0
aF0.0
aF0.005138647986946923
aF0.00998514659357188
aF0.0
aF0.0
aF0.006493189140718643
aF0.0
aF0.007376669637066436
aF0.0
aF0.007003723943336668
aF0.003104048458182832
aF0.041446869098662104
aF0.0
aF0.0
aF0.0
aF0.0
aF0.022351159046145014
aF0.0
aF0.0
aF0.0
aF0.029172343219579778
aF0.0
aF0.0
aF0.0
aF0.0
aF0.0
aF0.0
aF0.0
aF0.0
aF0.0
aF0.5000911517186005
aF0.0
aatp1734
.