((lp0
(lp1
c__builtin__
set
p2
((lp3
tp4
Rp5
ag2
((lp6
S'intelligence'
p7
aS'strong ai'
p8
aS'machine'
p9
aS'computer'
p10
aS'human'
p11
aS'intelligent'
p12
aS'artificial intelligence'
p13
atp14
Rp15
aa(lp16
g2
((lp17
S'intelligence'
p18
aS'intelligent'
p19
aS'artificial intelligence'
p20
atp21
Rp22
ag2
((lp23
S'rational agent'
p24
aS'autonomous agent'
p25
aS'robot'
p26
aS'agent'
p27
aS'environment'
p28
aS'bounded rationality'
p29
aS'rationality'
p30
aS'agent program'
p31
aS'intelligent agent'
p32
atp33
Rp34
aa(lp35
g2
((lp36
S'environment'
p37
aS'agent'
p38
aS'rational agent'
p39
atp40
Rp41
ag2
((lp42
S'space search'
p43
aS'goal state'
p44
aS'initial state'
p45
aS'state'
p46
aS'current state'
p47
aS'goal test'
p48
aS'operator'
p49
aS'implicit state'
p50
aS'agent refer'
p51
aS'state space'
p52
atp53
Rp54
aa(lp55
g2
((lp56
S'state'
p57
aS'goal state'
p58
aS'state space'
p59
aS'initial state'
p60
atp61
Rp62
ag2
((lp63
S'depth'
p64
aS'search'
p65
aS'breadth first search'
p66
aS'space'
p67
aS'first node'
p68
aS'depth d'
p69
aS'search tree'
p70
aS'search strategy'
p71
aS'solution'
p72
aS'iterative deepening search'
p73
aS'search problem'
p74
aS'time and space'
p75
aS'depth first iterative deepening'
p76
aS'hamiltonian path'
p77
aS'search algorithm'
p78
aS'search space'
p79
atp80
Rp81
aa(lp82
g2
((lp83
S'search space'
p84
aS'goal state'
p85
aS'search tree'
p86
aS'search'
p87
aS'state'
p88
aS'breadth first search'
p89
aS'search algorithm'
p90
atp91
Rp92
ag2
((lp93
S'optimum path'
p94
aS'greedy search'
p95
aS'forward search'
p96
aS'node'
p97
aS'first search'
p98
aS'node n'
p99
aS'heuristic function'
p100
aS'cost search'
p101
aS'uniform cost'
p102
aS'goal node'
p103
aS'cost'
p104
aS't state'
p105
aS'path'
p106
aS'expand'
p107
aS'bidirectional search'
p108
atp109
Rp110
aa(lp111
g2
((lp112
S'node'
p113
aS'search space'
p114
aS'breadth first search'
p115
aS'initial state'
p116
aS'space'
p117
aS'goal node'
p118
aS'search'
p119
aS'first search'
p120
aS'search tree'
p121
aS'state space'
p122
aS'iterative deepening search'
p123
aS'solution'
p124
aS'state'
p125
aS'goal state'
p126
aS'bidirectional search'
p127
atp128
Rp129
ag2
((lp130
S'local search'
p131
aS'ida star'
p132
aS'algorithm'
p133
aS'depth first search'
p134
aS'number'
p135
aS'optimum solution'
p136
aS'start node'
p137
atp138
Rp139
aa(lp140
g2
((lp141
S'node'
p142
aS'search'
p143
aS'search tree'
p144
aS'node n'
p145
aS'cost search'
p146
aS'bidirectional search'
p147
atp148
Rp149
ag2
((lp150
S'max player'
p151
aS'initial position'
p152
aS'position'
p153
aS'min player'
p154
aS'move'
p155
aS'player'
p156
aS'game'
p157
aS'agent search'
p158
aS'game tree'
p159
aS'other player'
p160
aS'utility value'
p161
aS'utility'
p162
atp163
Rp164
aa(lp165
g2
((lp166
S'node'
p167
aS'search'
p168
aS'search tree'
p169
aS'move'
p170
aS'game'
p171
aS'game tree'
p172
atp173
Rp174
ag2
((lp175
S'max ancestor'
p176
aS'max'
p177
aS'exact minimax'
p178
aS'min'
p179
aS'min node'
p180
aS'node ordering'
p181
aS'minimax'
p182
aS'minimax search'
p183
aS'exact minimax value'
p184
aS'minimax value'
p185
aS'ply search'
p186
aS'max node'
p187
aS'value of min'
p188
atp189
Rp190
aa(lp191
g2
((lp192
S'search'
p193
aS'depth first search'
p194
aS'search tree'
p195
atp196
Rp197
ag2
((lp198
S'current assignment'
p199
aS'constraint'
p200
aS'constraint satisfaction'
p201
aS'assignment'
p202
aS'constraint propagation'
p203
aS'current domain'
p204
atp205
Rp206
aa(lp207
g2
((lp208
S'search'
p209
aS'search tree'
p210
aS'constraint satisfaction'
p211
aS'assignment'
p212
aS'constraint'
p213
aS'depth first search'
p214
aS'constraint propagation'
p215
atp216
Rp217
ag2
((lp218
S'domain'
p219
aS'legal value'
p220
aS'assign'
p221
atp222
Rp223
aa(lp224
g2
((lp225
S'intelligence'
p226
aS'intelligent'
p227
atp228
Rp229
ag2
((lp230
S'particular world'
p231
aS'interpretation'
p232
aS'knowledge'
p233
aS'intelligent behavior'
p234
aS'valid proposition'
p235
aS'compound proposition'
p236
aS'intelligent anil'
p237
aS'valid sentence'
p238
aS'propositional logic'
p239
aS'proposition'
p240
aS'world'
p241
aS'knowledge representation'
p242
aS'sentence p'
p243
aS'interpret'
p244
aS'proposition p'
p245
atp246
Rp247
aa(lp248
g2
((lp249
S'propositional logic'
p250
aS'proposition'
p251
atp252
Rp253
ag2
((lp254
S'false true'
p255
aS'false false'
p256
aS'false'
p257
aS'inference rule'
p258
atp259
Rp260
aa(lp261
g2
((lp262
S'propositional logic'
p263
aS'proposition'
p264
aS'proposition p'
p265
atp266
Rp267
ag2
((lp268
S'predicate'
p269
aS'order logic'
p270
aS'drink tom'
p271
aS'man tom'
p272
aS'tom'
p273
aS'predicate logic'
p274
aS'mammal tom'
p275
aS'valid predicate'
p276
aS'logic'
p277
aS'first order logic'
p278
aS'tom milk'
p279
atp280
Rp281
aa(lp282
g2
((lp283
S'predicate'
p284
aS'first order logic'
p285
aS'predicate logic'
p286
aS'logic'
p287
atp288
Rp289
ag2
((lp290
S'first order predicate'
p291
aS'horn sentence'
p292
aS'order predicate'
p293
aS'order'
p294
atp295
Rp296
aa(lp297
g2
((lp298
tp299
Rp300
ag2
((lp301
S'clause'
p302
aS'resolution'
p303
aS'null clause'
p304
atp305
Rp306
aa(lp307
g2
((lp308
S'knowledge representation'
p309
aS'knowledge'
p310
atp311
Rp312
ag2
((lp313
S'inference'
p314
aS'inference machine'
p315
aS'rule'
p316
aS'inference mechanism'
p317
aS'base'
p318
aS'rule base'
p319
aS'fact base'
p320
aS'third rule'
p321
atp322
Rp323
aa(lp324
g2
((lp325
S'rule base'
p326
aS'goal state'
p327
aS'rule'
p328
atp329
Rp330
ag2
((lp331
tp332
Rp333
aa(lp334
g2
((lp335
tp336
Rp337
ag2
((lp338
S'top level'
p339
aS'bird'
p340
aS'concept animal'
p341
atp342
Rp343
aa(lp344
g2
((lp345
S'node'
p346
aS'inference'
p347
atp348
Rp349
ag2
((lp350
S'relationship'
p351
aS'inheritance'
p352
aS'current node'
p353
aS'subclass'
p354
aS'semantic net'
p355
aS'inherit'
p356
aS'property'
p357
atp358
Rp359
aa(lp360
g2
((lp361
tp362
Rp363
ag2
((lp364
S'concept dog'
p365
aS'instance of dog'
p366
aS'frame'
p367
aS'dog'
p368
aS'particular dog'
p369
aS'instance'
p370
aS'super class'
p371
atp372
Rp373
aa(lp374
g2
((lp375
S'state space'
p376
aS'goal state'
p377
aS'initial state'
p378
aS'agent'
p379
aS'state'
p380
aS'proposition'
p381
aS'world'
p382
atp383
Rp384
ag2
((lp385
S'action'
p386
aS'action go'
p387
aS'action pick'
p388
aS'successor state'
p389
atp390
Rp391
aa(lp392
g2
((lp393
S'state space'
p394
aS'forward search'
p395
aS'goal state'
p396
aS'initial state'
p397
aS'algorithm'
p398
aS'search'
p399
aS'agent'
p400
aS'current state'
p401
aS'state'
p402
aS'action'
p403
aS'search space'
p404
atp405
Rp406
ag2
((lp407
S'sub goal'
p408
aS'current goal'
p409
aS'goal'
p410
aS'backward search'
p411
atp412
Rp413
aa(lp414
g2
((lp415
S'action'
p416
aS'state'
p417
aS'goal state'
p418
aS'initial state'
p419
atp420
Rp421
ag2
((lp422
S'new step'
p423
aS'planning algorithm'
p424
aS'planning problem'
p425
aS'open precondition'
p426
aS'step'
p427
aS'partial plan'
p428
aS'partial order'
p429
aS'planning'
p430
aS'plan'
p431
aS'precondition'
p432
aS'initial plan'
p433
atp434
Rp435
aa(lp436
g2
((lp437
S'goal'
p438
aS'initial state'
p439
aS'state'
p440
aS'proposition'
p441
aS'plan'
p442
aS'action'
p443
atp444
Rp445
ag2
((lp446
S'valid plan'
p447
aS'level pi'
p448
aS'action level'
p449
aS'graph'
p450
aS'level'
p451
aS'graph expansion'
p452
aS'maintenance action'
p453
aS'mutex'
p454
aS'planning graph'
p455
aS'next state'
p456
aS'previous level'
p457
aS'state level'
p458
aS'graph plan'
p459
atp460
Rp461
aa(lp462
g2
((lp463
S'knowledge'
p464
aS'rule'
p465
atp466
Rp467
ag2
((lp468
S'expert system'
p469
aS'expert'
p470
aS'knowledge base'
p471
aS'system'
p472
aS'mycin'
p473
aS'knowledge acquisition'
p474
aS'human expert'
p475
atp476
Rp477
aa(lp478
g2
((lp479
S'rule'
p480
atp481
Rp482
ag2
((lp483
S'doorbell'
p484
aS'measure of belief'
p485
aS'belief'
p486
aS'belief in h'
p487
aS'uncertainty'
p488
atp489
Rp490
aa(lp491
g2
((lp492
S'rule'
p493
atp494
Rp495
ag2
((lp496
S'certainty'
p497
aS'factor of h'
p498
aS'certainty factor'
p499
aS'factor'
p500
atp501
Rp502
aa(lp503
g2
((lp504
S'uncertainty'
p505
aS'rule'
p506
atp507
Rp508
ag2
((lp509
S'joint probability'
p510
aS'probability theory'
p511
aS'event'
p512
atp513
Rp514
aa(lp515
g2
((lp516
S'node'
p517
atp518
Rp519
ag2
((lp520
S'probability of alarm'
p521
aS'compute'
p522
aS'probability'
p523
aS'priori probability'
p524
aS'evidence'
p525
aS'evidence e'
p526
aS'computation'
p527
aS'probability of john'
p528
aS'conditional probability'
p529
aS'probability of b'
p530
atp531
Rp532
aa(lp533
g2
((lp534
tp535
Rp536
ag2
((lp537
S'set'
p538
aS'set theory'
p539
aS'set medium'
p540
aS'set tall'
p541
aS'tall'
p542
aS'case of fuzzy'
p543
aS'crisp set'
p544
atp545
Rp546
aa(lp547
g2
((lp548
S'set'
p549
aS'crisp set'
p550
aS'set tall'
p551
aS'rule'
p552
atp553
Rp554
ag2
((lp555
S'membership function'
p556
aS'fuzzy set'
p557
aS'fuzzy set tall'
p558
aS'curve'
p559
aS'membership'
p560
aS'membership value'
p561
aS'fuzzy'
p562
aS'fuzzy logic'
p563
atp564
Rp565
aa(lp566
g2
((lp567
S'system'
p568
aS'rule'
p569
atp570
Rp571
ag2
((lp572
S'concept learning'
p573
aS'machine learning'
p574
aS'learning'
p575
aS'learning problem'
p576
atp577
Rp578
aa(lp579
g2
((lp580
S'set'
p581
aS'algorithm'
p582
aS'space'
p583
atp584
Rp585
ag2
((lp586
S'training'
p587
aS'hypothesis space'
p588
aS'learning algorithm'
p589
aS'positive example'
p590
aS'negative example'
p591
aS'good hypothesis'
p592
aS'version space'
p593
aS'set of training'
p594
aS'hypothesis'
p595
aS'possible hypothesis'
p596
aS'training example'
p597
aS'set of hypothesis'
p598
atp599
Rp600
aa(lp601
g2
((lp602
S'node'
p603
aS'set of training'
p604
aS'training'
p605
aS'training example'
p606
aS'algorithm'
p607
atp608
Rp609
ag2
((lp610
S'attribute'
p611
aS'decision'
p612
aS'target attribute'
p613
aS'leaf node'
p614
aS'entropy'
p615
aS'greedy algorithm'
p616
aS'decision attribute'
p617
aS'same class'
p618
atp619
Rp620
aa(lp621
g2
((lp622
S'node'
p623
aS'training'
p624
aS'set'
p625
aS'attribute'
p626
aS'decision'
p627
aS'rule'
p628
atp629
Rp630
ag2
((lp631
S'training set'
p632
aS'test set'
p633
aS'rule set'
p634
aS'decision tree'
p635
aS'validation set'
p636
aS'tree'
p637
aS'class'
p638
aS'data set'
p639
aS'train'
p640
aS'data'
p641
aS'rule post'
p642
aS'accuracy'
p643
atp644
Rp645
aa(lp646
g2
((lp647
S'training'
p648
aS'computer'
p649
aS'training example'
p650
aS'training set'
p651
atp652
Rp653
ag2
((lp654
S'linear threshold unit'
p655
aS'weight'
p656
aS'computing'
p657
aS'training rule'
p658
aS'linear unit'
p659
aS'xor function'
p660
aS'weight vector'
p661
aS'perceptron'
p662
aS'threshold unit'
p663
atp664
Rp665
aa(lp666
g2
((lp667
S'weight vector'
p668
aS'training'
p669
aS'training example'
p670
aS'weight'
p671
atp672
Rp673
ag2
((lp674
S'function'
p675
aS'network'
p676
aS'error function'
p677
aS'output unit'
p678
aS'hidden unit'
p679
aS'sigmoid unit'
p680
aS'error'
p681
aS'sigmoid function'
p682
aS'sigmoidal function'
p683
aS'neural network'
p684
aS'unit'
p685
atp686
Rp687
aa(lp688
g2
((lp689
S'probability'
p690
aS'hypothesis space'
p691
aS'attribute'
p692
aS'hypothesis'
p693
aS'possible hypothesis'
p694
aS'class'
p695
atp696
Rp697
ag2
((lp698
S'classification'
p699
aS'likely classification'
p700
aS'map hypothesis'
p701
aS'bayesian classification'
p702
aS'prior probability'
p703
aS'different hypothesis'
p704
aS'posterior probability'
p705
atp706
Rp707
aa(lp708
g2
((lp709
S'computer'
p710
atp711
Rp712
ag2
((lp713
S'language processing'
p714
aS'language'
p715
aS'text'
p716
aS'part of speech'
p717
aS'understanding'
p718
aS'speech'
p719
aS'natural language processing'
p720
aS'natural language'
p721
atp722
Rp723
aa(lp724
g2
((lp725
S'frame'
p726
aS'inference'
p727
aS'language'
p728
aS'natural language'
p729
atp730
Rp731
ag2
((lp732
S'balloon'
p733
aS'natural language understanding'
p734
aS'sentence'
p735
atp736
Rp737
aa(lp738
(dp739
a(dp740
g18
(F4.357550071966408
I12
tp741
sg19
(F4.357550071966408
I16
tp742
sg20
(F4.357550071966408
I5
tp743
sa(dp744
g39
(F10.277346536194475
I5
tp745
sg38
(F10.277346536194475
I99
tp746
sg37
(F4.165244723583587
I21
tp747
sa(dp748
g57
(F10.035481360151094
I108
tp749
sg59
(F10.035481360151094
I34
tp750
sg58
(F10.035481360151094
I12
tp751
sg60
(F10.035481360151094
I16
tp752
sa(dp753
g86
(F11.321696228181226
I11
tp754
sg90
(F11.321696228181226
I11
tp755
sg84
(F11.321696228181226
I5
tp756
sg89
(F11.321696228181226
I11
tp757
sg88
(F5.859251925716299
I51
tp758
sg85
(F5.859251925716299
I16
tp759
sg87
(F11.321696228181226
I145
tp760
sa(dp761
g121
(F8.440276995702652
I6
tp762
sg126
(F6.28822074532721
I7
tp763
sg114
(F8.440276995702652
I7
tp764
sg115
(F8.440276995702652
I6
tp765
sg117
(F4.225911052708902
I38
tp766
sg125
(F6.28822074532721
I61
tp767
sg127
(F8.440276995702652
I6
tp768
sg113
(F8.152855626366444
I50
tp769
sg122
(F6.28822074532721
I16
tp770
sg116
(F6.28822074532721
I5
tp771
sg120
(F8.440276995702652
I25
tp772
sg118
(F8.152855626366444
I6
tp773
sg119
(F8.440276995702652
I91
tp774
sg124
(F4.737308561048773
I41
tp775
sg123
(F8.440276995702652
I7
tp776
sa(dp777
g144
(F8.048324937716659
I18
tp778
sg146
(F8.048324937716659
I5
tp779
sg145
(F8.246547115472735
I6
tp780
sg147
(F8.048324937716659
I5
tp781
sg142
(F8.246547115472735
I66
tp782
sg143
(F8.048324937716659
I80
tp783
sa(dp784
g167
(F10.459684948210867
I144
tp785
sg168
(F7.0644346711364125
I80
tp786
sg169
(F7.0644346711364125
I12
tp787
sg170
(F5.264536284896902
I25
tp788
sg171
(F7.707556234189125
I41
tp789
sg172
(F7.707556234189125
I19
tp790
sa(dp791
g193
(F6.79303803306017
I50
tp792
sg195
(F6.79303803306017
I7
tp793
sg194
(F6.79303803306017
I7
tp794
sa(dp795
g209
(F5.592138156523426
I42
tp796
sg213
(F7.0705120265392765
I59
tp797
sg211
(F7.0705120265392765
I23
tp798
sg212
(F4.0154201095908775
I15
tp799
sg210
(F5.592138156523426
I7
tp800
sg214
(F5.592138156523426
I13
tp801
sg215
(F7.0705120265392765
I14
tp802
sa(dp803
g226
(F4.857329229610808
I9
tp804
sg227
(F4.857329229610808
I40
tp805
sa(dp806
g250
(F6.232449933124392
I9
tp807
sg251
(F6.232449933124392
I28
tp808
sa(dp809
g265
(F5.539973332859425
I5
tp810
sg263
(F5.834900514168782
I28
tp811
sg264
(F5.539973332859425
I23
tp812
sa(dp813
g284
(F5.187193436968367
I43
tp814
sg286
(F5.187193436968367
I17
tp815
sg287
(F4.280133054882758
I44
tp816
sg285
(F4.280133054882758
I22
tp817
sa(dp818
a(dp819
g310
(F4.39821886144311
I28
tp820
sg309
(F4.39821886144311
I9
tp821
sa(dp822
g327
(F7.301528718602831
I6
tp823
sg328
(F15.393470702284223
I98
tp824
sg326
(F15.393470702284223
I7
tp825
sa(dp826
a(dp827
g346
(F4.17917806207133
I14
tp828
sg347
(F4.911437916957194
I8
tp829
sa(dp830
a(dp831
g376
(F9.37128773679261
I14
tp832
sg377
(F9.37128773679261
I8
tp833
sg378
(F9.37128773679261
I21
tp834
sg379
(F6.343149212513702
I41
tp835
sg380
(F9.37128773679261
I120
tp836
sg381
(F6.490161008580108
I18
tp837
sg382
(F4.256572407682557
I37
tp838
sa(dp839
g399
(F7.099397286531538
I65
tp840
sg395
(F7.099397286531538
I12
tp841
sg396
(F9.036861992500372
I24
tp842
sg404
(F7.099397286531538
I5
tp843
sg394
(F9.036861992500372
I8
tp844
sg400
(F4.907409151060216
I45
tp845
sg401
(F9.036861992500372
I12
tp846
sg402
(F9.036861992500372
I134
tp847
sg403
(F10.489319275437618
I83
tp848
sg398
(F4.346974379606646
I24
tp849
sg397
(F9.036861992500372
I31
tp850
sa(dp851
g418
(F4.413649239942484
I10
tp852
sg419
(F4.413649239942484
I30
tp853
sg417
(F4.413649239942484
I57
tp854
sg416
(F5.801851307501442
I50
tp855
sa(dp856
g438
(F4.052318605964305
I22
tp857
sg439
(F4.629164315122877
I22
tp858
sg440
(F4.629164315122877
I62
tp859
sg441
(F6.223433047441499
I33
tp860
sg442
(F5.501187630595054
I59
tp861
sg443
(F9.447415048637474
I101
tp862
sa(dp863
g464
(F7.160984969420651
I46
tp864
sg465
(F13.927153591356422
I60
tp865
sa(dp866
g480
(F4.469457204439486
I18
tp867
sa(dp868
g493
(F8.033513012486642
I58
tp869
sa(dp870
g505
(F4.480466585344927
I17
tp871
sg506
(F6.515495751449664
I21
tp872
sa(dp873
g517
(F5.267335412209101
I44
tp874
sa(dp875
a(dp876
g549
(F8.69372628641921
I111
tp877
sg552
(F5.021946032723976
I21
tp878
sg551
(F8.69372628641921
I9
tp879
sg550
(F8.69372628641921
I15
tp880
sa(dp881
g568
(F5.489670770099704
I36
tp882
sg569
(F4.218135573103559
I6
tp883
sa(dp884
g581
(F7.917155067681643
I100
tp885
sg582
(F5.068736919365415
I30
tp886
sg583
(F5.379515990463551
I92
tp887
sa(dp888
g603
(F5.193788333464451
I41
tp889
sg605
(F4.436411635409663
I54
tp890
sg607
(F5.008369840194959
I28
tp891
sg604
(F4.436411635409663
I8
tp892
sg606
(F6.5420253479238974
I9
tp893
sa(dp894
g623
(F5.908067270523166
I44
tp895
sg624
(F4.103116189604443
I37
tp896
sg625
(F8.526814878223226
I92
tp897
sg626
(F7.708540914074161
I28
tp898
sg627
(F6.669428056579827
I60
tp899
sg628
(F4.666819013221276
I24
tp900
sa(dp901
g648
(F4.8027721947107755
I40
tp902
sg651
(F4.8027721947107755
I5
tp903
sg649
(F5.281568535954191
I6
tp904
sg650
(F4.8027721947107755
I10
tp905
sa(dp906
g669
(F5.160390531757352
I28
tp907
sg671
(F4.6136193512500645
I16
tp908
sg668
(F4.6136193512500645
I5
tp909
sg670
(F5.160390531757352
I6
tp910
sa(dp911
g690
(F9.197698217177761
I57
tp912
sg691
(F8.40131824273541
I13
tp913
sg693
(F8.40131824273541
I115
tp914
sg692
(F4.654577384810817
I15
tp915
sg694
(F8.40131824273541
I5
tp916
sg695
(F5.101951501628962
I30
tp917
sa(dp918
g710
(F4.332445383359096
I14
tp919
sa(dp920
g727
(F4.116181657483071
I10
tp921
sg728
(F6.758513928905577
I32
tp922
sg726
(F4.34154326671664
I19
tp923
sg729
(F6.758513928905577
I20
tp924
sa(lp925
(lp926
F0.0
aF0.0
aF0.0
aF0.0
aF0.0
aF0.0
aF0.0
aF0.0
aF0.0
aF0.0
aF0.0
aF0.0
aF0.0
aF0.0
aF0.0
aF0.0
aF0.0
aF0.0
aF0.0
aF0.0
aF0.0
aF0.0
aF0.0
aF0.0
aF0.0
aF0.0
aF0.0
aF0.0
aF0.0
aF0.0
aF0.0
aF0.0
aF0.0
aF0.0
aF0.0
aF0.0
aF0.0
aF0.0
aF0.0
aF0.0
aa(lp927
F4.357550071966408
aF0.0
aF0.0
aF0.0
aF0.0
aF0.0
aF0.0
aF0.0
aF0.0
aF0.0
aF0.0
aF0.0
aF0.0
aF0.0
aF0.0
aF0.0
aF0.0
aF0.0
aF0.0
aF0.0
aF0.0
aF0.0
aF0.0
aF0.0
aF0.0
aF0.0
aF0.0
aF0.0
aF0.0
aF0.0
aF0.0
aF0.0
aF0.0
aF0.0
aF0.0
aF0.0
aF0.0
aF0.0
aF0.0
aF0.0
aa(lp928
F0.0
aF9.250513431675845
aF0.0
aF0.0
aF0.0
aF0.0
aF0.0
aF0.0
aF0.0
aF0.0
aF0.0
aF0.0
aF0.0
aF0.0
aF0.0
aF0.0
aF0.0
aF0.0
aF0.0
aF0.0
aF0.0
aF0.0
aF0.0
aF0.0
aF0.0
aF0.0
aF0.0
aF0.0
aF0.0
aF0.0
aF0.0
aF0.0
aF0.0
aF0.0
aF0.0
aF0.0
aF0.0
aF0.0
aF0.0
aF0.0
aa(lp929
F0.0
aF0.0
aF10.035481360151094
aF0.0
aF0.0
aF0.0
aF0.0
aF0.0
aF0.0
aF0.0
aF0.0
aF0.0
aF0.0
aF0.0
aF0.0
aF0.0
aF0.0
aF0.0
aF0.0
aF0.0
aF0.0
aF0.0
aF0.0
aF0.0
aF0.0
aF0.0
aF0.0
aF0.0
aF0.0
aF0.0
aF0.0
aF0.0
aF0.0
aF0.0
aF0.0
aF0.0
aF0.0
aF0.0
aF0.0
aF0.0
aa(lp930
F0.0
aF0.0
aF0.44865129031199086
aF5.919629742163328
aF0.0
aF0.0
aF0.0
aF0.0
aF0.0
aF0.0
aF0.0
aF0.0
aF0.0
aF0.0
aF0.0
aF0.0
aF0.0
aF0.0
aF0.0
aF0.0
aF0.0
aF0.0
aF0.0
aF0.0
aF0.0
aF0.0
aF0.0
aF0.0
aF0.0
aF0.0
aF0.0
aF0.0
aF0.0
aF0.0
aF0.0
aF0.0
aF0.0
aF0.0
aF0.0
aF0.0
aa(lp931
F0.0
aF0.0
aF0.4011839758667539
aF1.6839223577996485
aF0.5148448042604323
aF0.0
aF0.0
aF0.0
aF0.0
aF0.0
aF0.0
aF0.0
aF0.0
aF0.0
aF0.0
aF0.0
aF0.0
aF0.0
aF0.0
aF0.0
aF0.0
aF0.0
aF0.0
aF0.0
aF0.0
aF0.0
aF0.0
aF0.0
aF0.0
aF0.0
aF0.0
aF0.0
aF0.0
aF0.0
aF0.0
aF0.0
aF0.0
aF0.0
aF0.0
aF0.0
aa(lp932
F0.0
aF0.0
aF0.0
aF1.4606219331411714
aF2.4971653395970494
aF0.0
aF0.0
aF0.0
aF0.0
aF0.0
aF0.0
aF0.0
aF0.0
aF0.0
aF0.0
aF0.0
aF0.0
aF0.0
aF0.0
aF0.0
aF0.0
aF0.0
aF0.0
aF0.0
aF0.0
aF0.0
aF0.0
aF0.0
aF0.0
aF0.0
aF0.0
aF0.0
aF0.0
aF0.0
aF0.0
aF0.0
aF0.0
aF0.0
aF0.0
aF0.0
aa(lp933
F0.0
aF0.0
aF0.0
aF0.6748992624553997
aF0.7820325194924013
aF0.0
aF0.9253376653797042
aF0.0
aF0.0
aF0.0
aF0.0
aF0.0
aF0.0
aF0.0
aF0.0
aF0.0
aF0.0
aF0.0
aF0.0
aF0.0
aF0.0
aF0.0
aF0.0
aF0.0
aF0.0
aF0.0
aF0.0
aF0.0
aF0.0
aF0.0
aF0.0
aF0.0
aF0.0
aF0.0
aF0.0
aF0.0
aF0.0
aF0.0
aF0.0
aF0.0
aa(lp934
F0.0
aF0.0
aF0.0
aF4.033366332129476
aF0.0
aF0.24766284495531868
aF0.0
aF0.0
aF0.0
aF0.0
aF0.0
aF0.0
aF0.0
aF0.0
aF0.0
aF0.0
aF0.0
aF0.0
aF0.0
aF0.0
aF0.0
aF0.0
aF0.0
aF0.0
aF0.0
aF0.0
aF0.0
aF0.0
aF0.0
aF0.0
aF0.0
aF0.0
aF0.0
aF0.0
aF0.0
aF0.0
aF0.0
aF0.0
aF0.0
aF0.0
aa(lp935
F0.0
aF0.0
aF0.0
aF0.4525429722042078
aF0.0
aF0.06003121059851736
aF0.0
aF0.0
aF2.440959392870796
aF0.0
aF0.0
aF0.0
aF0.0
aF0.0
aF0.0
aF0.0
aF0.0
aF0.0
aF0.0
aF0.0
aF0.0
aF0.0
aF0.0
aF0.0
aF0.0
aF0.0
aF0.0
aF0.0
aF0.0
aF0.0
aF0.0
aF0.0
aF0.0
aF0.0
aF0.0
aF0.0
aF0.0
aF0.0
aF0.0
aF0.0
aa(lp936
F4.857329229610808
aF0.0
aF0.0
aF0.0
aF0.0
aF0.0
aF0.0
aF0.0
aF0.0
aF0.0
aF0.0
aF0.0
aF0.0
aF0.0
aF0.0
aF0.0
aF0.0
aF0.0
aF0.0
aF0.0
aF0.0
aF0.0
aF0.0
aF0.0
aF0.0
aF0.0
aF0.0
aF0.0
aF0.0
aF0.0
aF0.0
aF0.0
aF0.0
aF0.0
aF0.0
aF0.0
aF0.0
aF0.0
aF0.0
aF0.0
aa(lp937
F0.0
aF0.0
aF0.0
aF0.0
aF0.0
aF0.0
aF0.0
aF0.0
aF0.0
aF0.0
aF6.232449933124392
aF0.0
aF0.0
aF0.0
aF0.0
aF0.0
aF0.0
aF0.0
aF0.0
aF0.0
aF0.0
aF0.0
aF0.0
aF0.0
aF0.0
aF0.0
aF0.0
aF0.0
aF0.0
aF0.0
aF0.0
aF0.0
aF0.0
aF0.0
aF0.0
aF0.0
aF0.0
aF0.0
aF0.0
aF0.0
aa(lp938
F0.0
aF0.0
aF0.0
aF0.0
aF0.0
aF0.0
aF0.0
aF0.0
aF0.0
aF0.0
aF5.687436923514104
aF0.0
aF0.0
aF0.0
aF0.0
aF0.0
aF0.0
aF0.0
aF0.0
aF0.0
aF0.0
aF0.0
aF0.0
aF0.0
aF0.0
aF0.0
aF0.0
aF0.0
aF0.0
aF0.0
aF0.0
aF0.0
aF0.0
aF0.0
aF0.0
aF0.0
aF0.0
aF0.0
aF0.0
aF0.0
aa(lp939
F0.0
aF0.0
aF0.0
aF0.0
aF0.0
aF0.0
aF0.0
aF0.0
aF0.0
aF0.0
aF0.0
aF0.0
aF4.712066570161619
aF0.0
aF0.0
aF0.0
aF0.0
aF0.0
aF0.0
aF0.0
aF0.0
aF0.0
aF0.0
aF0.0
aF0.0
aF0.0
aF0.0
aF0.0
aF0.0
aF0.0
aF0.0
aF0.0
aF0.0
aF0.0
aF0.0
aF0.0
aF0.0
aF0.0
aF0.0
aF0.0
aa(lp940
F0.0
aF0.0
aF0.0
aF0.0
aF0.0
aF0.0
aF0.0
aF0.0
aF0.0
aF0.0
aF0.0
aF0.0
aF0.0
aF0.0
aF0.0
aF0.0
aF0.0
aF0.0
aF0.0
aF0.0
aF0.0
aF0.0
aF0.0
aF0.0
aF0.0
aF0.0
aF0.0
aF0.0
aF0.0
aF0.0
aF0.0
aF0.0
aF0.0
aF0.0
aF0.0
aF0.0
aF0.0
aF0.0
aF0.0
aF0.0
aa(lp941
F0.0
aF0.0
aF0.0
aF0.0
aF0.0
aF0.0
aF0.0
aF0.0
aF0.0
aF0.0
aF4.39821886144311
aF0.0
aF0.0
aF0.0
aF0.0
aF0.0
aF0.0
aF0.0
aF0.0
aF0.0
aF0.0
aF0.0
aF0.0
aF0.0
aF0.0
aF0.0
aF0.0
aF0.0
aF0.0
aF0.0
aF0.0
aF0.0
aF0.0
aF0.0
aF0.0
aF0.0
aF0.0
aF0.0
aF0.0
aF0.0
aa(lp942
F0.0
aF0.0
aF0.1315590760108618
aF0.0
aF0.0
aF0.0
aF0.0
aF0.0
aF0.0
aF0.0
aF0.0
aF0.0
aF0.0
aF0.0
aF0.0
aF9.707594136575636
aF0.0
aF0.0
aF0.0
aF0.0
aF0.0
aF0.0
aF0.0
aF0.0
aF0.0
aF0.0
aF0.0
aF0.0
aF0.0
aF0.0
aF0.0
aF0.0
aF0.0
aF0.0
aF0.0
aF0.0
aF0.0
aF0.0
aF0.0
aF0.0
aa(lp943
F0.0
aF0.0
aF0.0
aF0.0
aF0.0
aF0.0
aF0.0
aF0.0
aF0.0
aF0.0
aF0.0
aF0.0
aF0.0
aF0.0
aF0.0
aF0.0
aF0.0
aF0.0
aF0.0
aF0.0
aF0.0
aF0.0
aF0.0
aF0.0
aF0.0
aF0.0
aF0.0
aF0.0
aF0.0
aF0.0
aF0.0
aF0.0
aF0.0
aF0.0
aF0.0
aF0.0
aF0.0
aF0.0
aF0.0
aF0.0
aa(lp944
F0.0
aF0.0
aF0.0
aF0.0
aF1.329738474295423
aF0.0
aF0.0
aF0.0
aF0.0
aF0.0
aF0.0
aF0.0
aF0.0
aF0.0
aF0.0
aF0.8929887121740353
aF0.0
aF0.0
aF0.0
aF0.0
aF0.0
aF0.0
aF0.0
aF0.0
aF0.0
aF0.0
aF0.0
aF0.0
aF0.0
aF0.0
aF0.0
aF0.0
aF0.0
aF0.0
aF0.0
aF0.0
aF0.0
aF0.0
aF0.0
aF0.0
aa(lp945
F0.0
aF0.0
aF0.0
aF0.0
aF0.0
aF0.0
aF0.0
aF0.0
aF0.0
aF0.0
aF0.0
aF0.0
aF0.0
aF0.0
aF0.0
aF0.0
aF0.0
aF0.0
aF0.0
aF0.0
aF0.0
aF0.0
aF0.0
aF0.0
aF0.0
aF0.0
aF0.0
aF0.0
aF0.0
aF0.0
aF0.0
aF0.0
aF0.0
aF0.0
aF0.0
aF0.0
aF0.0
aF0.0
aF0.0
aF0.0
aa(lp946
F0.0
aF0.14344683823114274
aF3.3701487062265745
aF0.0
aF0.0
aF0.0
aF0.0
aF0.0
aF0.0
aF0.0
aF0.3026101238154402
aF0.0
aF0.0
aF0.0
aF0.0
aF0.0
aF0.0
aF0.0
aF0.0
aF0.0
aF0.0
aF0.0
aF0.0
aF0.0
aF0.0
aF0.0
aF0.0
aF0.0
aF0.0
aF0.0
aF0.0
aF0.0
aF0.0
aF0.0
aF0.0
aF0.0
aF0.0
aF0.0
aF0.0
aF0.0
aa(lp947
F0.0
aF0.04531775329318895
aF1.9379275153217506
aF0.20396380466127956
aF0.017482611828109677
aF0.021409272544748514
aF0.0
aF0.0
aF0.0
aF0.0
aF0.0
aF0.0
aF0.0
aF0.0
aF0.0
aF0.0
aF0.0
aF0.0
aF0.0
aF0.0
aF0.17866068127669243
aF0.0
aF0.0
aF0.0
aF0.0
aF0.0
aF0.0
aF0.0
aF0.0
aF0.0
aF0.0
aF0.0
aF0.0
aF0.0
aF0.0
aF0.0
aF0.0
aF0.0
aF0.0
aF0.0
aa(lp948
F0.0
aF0.0
aF2.184306001400107
aF0.0
aF0.0
aF0.0
aF0.0
aF0.0
aF0.0
aF0.0
aF0.0
aF0.0
aF0.0
aF0.0
aF0.0
aF0.0
aF0.0
aF0.0
aF0.0
aF0.0
aF0.49335470301883017
aF0.0
aF0.0
aF0.0
aF0.0
aF0.0
aF0.0
aF0.0
aF0.0
aF0.0
aF0.0
aF0.0
aF0.0
aF0.0
aF0.0
aF0.0
aF0.0
aF0.0
aF0.0
aF0.0
aa(lp949
F0.0
aF0.0
aF0.4335003372021423
aF0.0
aF0.0
aF0.0
aF0.0
aF0.0
aF0.0
aF0.0
aF0.11447786542116468
aF0.0
aF0.0
aF0.0
aF0.0
aF0.0
aF0.0
aF0.0
aF0.0
aF0.0
aF0.5318778817794787
aF0.04969398513445636
aF0.18091977157475372
aF0.0
aF0.0
aF0.0
aF0.0
aF0.0
aF0.0
aF0.0
aF0.0
aF0.0
aF0.0
aF0.0
aF0.0
aF0.0
aF0.0
aF0.0
aF0.0
aF0.0
aa(lp950
F0.0
aF0.0
aF0.0
aF0.0
aF0.0
aF0.0
aF0.0
aF0.0
aF0.0
aF0.0
aF1.55379862544033
aF0.0
aF0.0
aF0.0
aF0.0
aF3.9416472428367233
aF0.0
aF0.0
aF0.0
aF0.0
aF0.0
aF0.0
aF0.0
aF0.0
aF0.0
aF0.0
aF0.0
aF0.0
aF0.0
aF0.0
aF0.0
aF0.0
aF0.0
aF0.0
aF0.0
aF0.0
aF0.0
aF0.0
aF0.0
aF0.0
aa(lp951
F0.0
aF0.0
aF0.0
aF0.0
aF0.0
aF0.0
aF0.0
aF0.0
aF0.0
aF0.0
aF0.0
aF0.0
aF0.0
aF0.0
aF0.0
aF4.469457204439486
aF0.0
aF0.0
aF0.0
aF0.0
aF0.0
aF0.0
aF0.0
aF0.0
aF0.0
aF0.0
aF0.0
aF0.0
aF0.0
aF0.0
aF0.0
aF0.0
aF0.0
aF0.0
aF0.0
aF0.0
aF0.0
aF0.0
aF0.0
aF0.0
aa(lp952
F0.0
aF0.0
aF0.0
aF0.0
aF0.0
aF0.0
aF0.0
aF0.0
aF0.0
aF0.0
aF0.0
aF0.0
aF0.0
aF0.0
aF0.0
aF8.033513012486642
aF0.0
aF0.0
aF0.0
aF0.0
aF0.0
aF0.0
aF0.0
aF0.0
aF0.0
aF0.0
aF0.0
aF0.0
aF0.0
aF0.0
aF0.0
aF0.0
aF0.0
aF0.0
aF0.0
aF0.0
aF0.0
aF0.0
aF0.0
aF0.0
aa(lp953
F0.0
aF0.0
aF0.0
aF0.0
aF0.0
aF0.0
aF0.0
aF0.0
aF0.0
aF0.0
aF0.0
aF0.0
aF0.0
aF0.0
aF0.0
aF1.8003343523742494
aF0.0
aF0.0
aF0.0
aF0.0
aF0.0
aF0.0
aF0.0
aF0.0
aF0.0
aF1.002209630932418
aF0.0
aF0.0
aF0.0
aF0.0
aF0.0
aF0.0
aF0.0
aF0.0
aF0.0
aF0.0
aF0.0
aF0.0
aF0.0
aF0.0
aa(lp954
F0.0
aF0.0
aF0.0
aF0.0
aF5.267335412209101
aF0.0
aF0.0
aF0.0
aF0.0
aF0.0
aF0.0
aF0.0
aF0.0
aF0.0
aF0.0
aF0.0
aF0.0
aF0.0
aF0.0
aF0.0
aF0.0
aF0.0
aF0.0
aF0.0
aF0.0
aF0.0
aF0.0
aF0.0
aF0.0
aF0.0
aF0.0
aF0.0
aF0.0
aF0.0
aF0.0
aF0.0
aF0.0
aF0.0
aF0.0
aF0.0
aa(lp955
F0.0
aF0.0
aF0.0
aF0.0
aF0.0
aF0.0
aF0.0
aF0.0
aF0.0
aF0.0
aF0.0
aF0.0
aF0.0
aF0.0
aF0.0
aF0.0
aF0.0
aF0.0
aF0.0
aF0.0
aF0.0
aF0.0
aF0.0
aF0.0
aF0.0
aF0.0
aF0.0
aF0.0
aF0.0
aF0.0
aF0.0
aF0.0
aF0.0
aF0.0
aF0.0
aF0.0
aF0.0
aF0.0
aF0.0
aF0.0
aa(lp956
F0.0
aF0.0
aF0.0
aF0.0
aF0.0
aF0.0
aF0.0
aF0.0
aF0.0
aF0.0
aF0.0
aF0.0
aF0.0
aF0.0
aF0.0
aF0.16900779917821074
aF0.0
aF0.0
aF0.0
aF0.0
aF0.0
aF0.0
aF0.0
aF0.0
aF0.0
aF0.0
aF0.0
aF0.0
aF0.0
aF5.642562733974007
aF0.0
aF0.0
aF0.0
aF0.0
aF0.0
aF0.0
aF0.0
aF0.0
aF0.0
aF0.0
aa(lp957
F0.0
aF0.0
aF0.0
aF0.0
aF0.0
aF0.0
aF0.0
aF0.0
aF0.0
aF0.0
aF0.0
aF0.0
aF0.0
aF0.0
aF0.0
aF0.3012953980788256
aF0.0
aF0.0
aF0.0
aF0.0
aF0.0
aF0.0
aF0.0
aF0.0
aF2.352716044328445
aF0.0
aF0.0
aF0.0
aF0.0
aF0.0
aF0.0
aF0.0
aF0.0
aF0.0
aF0.0
aF0.0
aF0.0
aF0.0
aF0.0
aF0.0
aa(lp958
F0.0
aF0.0
aF0.0
aF0.7431163230069769
aF0.0
aF0.22832148285429799
aF0.0
aF0.0
aF0.0
aF0.0
aF0.0
aF0.0
aF0.0
aF0.0
aF0.0
aF0.0
aF0.0
aF0.0
aF0.0
aF0.0
aF0.0
aF0.0
aF0.0
aF0.0
aF0.0
aF0.0
aF0.0
aF0.0
aF0.0
aF1.1887620221744206
aF0.0
aF0.0
aF0.0
aF0.0
aF0.0
aF0.0
aF0.0
aF0.0
aF0.0
aF0.0
aa(lp959
F0.0
aF0.0
aF0.0
aF0.0
aF0.3042076023886322
aF0.20033479360779838
aF0.0
aF0.0
aF0.0
aF0.0
aF0.0
aF0.0
aF0.0
aF0.0
aF0.0
aF0.0
aF0.0
aF0.0
aF0.0
aF0.0
aF0.0
aF0.0
aF0.0
aF0.0
aF0.0
aF0.0
aF0.0
aF0.0
aF0.0
aF0.0
aF0.0
aF0.0
aF1.4311532122573465
aF0.0
aF0.0
aF0.0
aF0.0
aF0.0
aF0.0
aF0.0
aa(lp960
F0.0
aF0.0
aF0.0
aF0.0
aF0.15202044438773057
aF0.0
aF0.0
aF0.0
aF0.0
aF0.0
aF0.0
aF0.0
aF0.0
aF0.0
aF0.0
aF0.06549921422064948
aF0.0
aF0.0
aF0.0
aF0.0
aF0.0
aF0.0
aF0.0
aF0.0
aF0.0
aF0.0
aF0.0
aF0.0
aF0.0
aF0.45875261333130807
aF0.0
aF0.0
aF0.08878087661717216
aF0.7204734841975042
aF0.0
aF0.0
aF0.0
aF0.0
aF0.0
aF0.0
aa(lp961
F0.1298746361300211
aF0.0
aF0.0
aF0.0
aF0.0
aF0.0
aF0.0
aF0.0
aF0.0
aF0.0
aF0.0
aF0.0
aF0.0
aF0.0
aF0.0
aF0.0
aF0.0
aF0.0
aF0.0
aF0.0
aF0.0
aF0.0
aF0.0
aF0.0
aF0.0
aF0.0
aF0.0
aF0.0
aF0.0
aF0.0
aF0.0
aF0.0
aF1.968349260127367
aF0.0
aF0.09841746300636836
aF0.0
aF0.0
aF0.0
aF0.0
aF0.0
aa(lp962
F0.0
aF0.0
aF0.0
aF0.0
aF0.0
aF0.0
aF0.0
aF0.0
aF0.0
aF0.0
aF0.0
aF0.0
aF0.0
aF0.0
aF0.0
aF0.0
aF0.0
aF0.0
aF0.0
aF0.0
aF0.0
aF0.0
aF0.0
aF0.0
aF0.0
aF0.0
aF0.0
aF0.0
aF0.0
aF0.0
aF0.0
aF0.0
aF1.595029800725
aF0.0
aF0.0
aF0.8807818761477395
aF0.0
aF0.0
aF0.0
aF0.0
aa(lp963
F0.0
aF0.0
aF0.0
aF0.0
aF0.0
aF0.0
aF0.0
aF0.0
aF0.0
aF0.0
aF0.0
aF0.0
aF0.0
aF0.0
aF0.0
aF0.0
aF0.0
aF0.0
aF0.0
aF0.0
aF0.0
aF0.0
aF0.0
aF0.0
aF0.0
aF0.0
aF0.0
aF0.0
aF0.3718218428220797
aF0.0
aF0.0
aF0.0
aF2.3773943112421483
aF0.04951678068947677
aF0.10855215960912686
aF0.0
aF0.0
aF0.0
aF0.0
aF0.0
aa(lp964
F4.332445383359096
aF0.0
aF0.0
aF0.0
aF0.0
aF0.0
aF0.0
aF0.0
aF0.0
aF0.0
aF0.0
aF0.0
aF0.0
aF0.0
aF0.0
aF0.0
aF0.0
aF0.0
aF0.0
aF0.0
aF0.0
aF0.0
aF0.0
aF0.0
aF0.0
aF0.0
aF0.0
aF0.0
aF0.0
aF0.0
aF0.0
aF0.0
aF0.0
aF0.0
aF0.0
aF0.0
aF0.0
aF0.0
aF0.0
aF0.0
aa(lp965
F0.0
aF0.0
aF0.0
aF0.0
aF0.0
aF0.0
aF0.0
aF0.0
aF0.0
aF0.0
aF0.0
aF0.0
aF0.0
aF0.0
aF0.0
aF0.1270426437494775
aF0.0
aF0.0
aF0.0
aF0.254596673048198
aF0.0
aF0.0
aF0.0
aF0.0
aF0.0
aF0.0
aF0.0
aF0.0
aF0.0
aF0.0
aF0.0
aF0.0
aF0.0
aF0.0
aF0.0
aF0.0
aF0.0
aF0.0
aF2.1693995327351234
aF0.0
aatp966
.