(lp0
(S'agent'
p1
F22.65524692020931
(lp2
(I0
I5
tp3
a(I1
I217
tp4
a(I2
I99
tp5
a(I3
I5
tp6
a(I6
I10
tp7
a(I20
I41
tp8
a(I21
I45
tp9
a(I22
I5
tp10
a(I31
I10
tp11
a(I39
I17
tp12
atp13
a(S'agent program'
p14
F22.65524692020931
(lp15
(I1
I5
tp16
atp17
a(S'rational agent'
p18
F22.65524692020931
(lp19
(I1
I10
tp20
a(I2
I5
tp21
atp22
a(S'intelligent agent'
p23
F22.65524692020931
(lp24
(I1
I7
tp25
atp26
a(S'autonomous agent'
p27
F22.65524692020931
(lp28
(I1
I5
tp29
atp30
a(S'rule base'
p31
F15.47093959556931
(lp32
(I15
I8
tp33
a(I16
I7
tp34
atp35
a(S'third rule'
p36
F15.47093959556931
(lp37
(I15
I5
tp38
atp39
a(S'rule'
p40
F15.47093959556931
(lp41
(I11
I20
tp42
a(I15
I125
tp43
a(I16
I98
tp44
a(I19
I7
tp45
a(I24
I60
tp46
a(I25
I18
tp47
a(I26
I58
tp48
a(I27
I21
tp49
a(I28
I10
tp50
a(I30
I21
tp51
a(I31
I6
tp52
a(I32
I6
tp53
a(I34
I24
tp54
a(I35
I8
tp55
a(I37
I12
tp56
atp57
a(S'action'
p58
F13.987803538789123
(lp59
(I1
I48
tp60
a(I2
I18
tp61
a(I15
I8
tp62
a(I17
I5
tp63
a(I20
I92
tp64
a(I21
I83
tp65
a(I22
I50
tp66
a(I23
I101
tp67
atp68
a(S'action go'
p69
F13.987803538789123
(lp70
(I20
I6
tp71
atp72
a(S'action pick'
p73
F13.987803538789123
(lp74
(I20
I5
tp75
atp76
a(S'hypothesis'
p77
F13.351364158584385
(lp78
(I25
I19
tp79
a(I26
I7
tp80
a(I28
I15
tp81
a(I31
I90
tp82
a(I32
I209
tp83
a(I33
I5
tp84
a(I34
I10
tp85
a(I37
I115
tp86
atp87
a(S'hypothesis space'
p88
F13.351364158584385
(lp89
(I31
I9
tp90
a(I32
I58
tp91
a(I37
I13
tp92
atp93
a(S'possible hypothesis'
p94
F13.351364158584385
(lp95
(I32
I13
tp96
a(I37
I5
tp97
atp98
a(S'good hypothesis'
p99
F13.351364158584385
(lp100
(I32
I5
tp101
atp102
a(S'set of hypothesis'
p103
F13.351364158584385
(lp104
(I32
I7
tp105
atp106
a(S'tree'
p107
F13.1132370347099
(lp108
(I2
I7
tp109
a(I3
I45
tp110
a(I4
I27
tp111
a(I5
I18
tp112
a(I6
I63
tp113
a(I7
I49
tp114
a(I9
I8
tp115
a(I33
I100
tp116
a(I34
I142
tp117
a(I35
I9
tp118
atp119
a(S'decision tree'
p120
F13.1132370347099
(lp121
(I33
I86
tp122
a(I34
I52
tp123
a(I35
I8
tp124
atp125
a(S'expert system'
p126
F13.056217822555297
(lp127
(I24
I53
tp128
atp129
a(S'system'
p130
F13.056217822555297
(lp131
(I0
I21
tp132
a(I2
I10
tp133
a(I15
I21
tp134
a(I16
I21
tp135
a(I19
I8
tp136
a(I21
I6
tp137
a(I24
I76
tp138
a(I31
I36
tp139
a(I38
I12
tp140
a(I39
I11
tp141
atp142
a(S'constraint satisfaction'
p143
F12.68871003628807
(lp144
(I8
I24
tp145
a(I9
I23
tp146
atp147
a(S'constraint propagation'
p148
F12.68871003628807
(lp149
(I8
I8
tp150
a(I9
I14
tp151
atp152
a(S'constraint'
p153
F12.68871003628807
(lp154
(I8
I59
tp155
a(I9
I59
tp156
atp157
a(S'expert'
p158
F12.161301994885296
(lp159
(I0
I6
tp160
a(I16
I23
tp161
a(I24
I85
tp162
a(I25
I9
tp163
a(I29
I5
tp164
atp165
a(S'human expert'
p166
F12.161301994885296
(lp167
(I24
I5
tp168
atp169
a(S'implicit state'
p170
F11.631884303580371
(lp171
(I2
I5
tp172
atp173
a(S'goal state'
p174
F11.631884303580371
(lp175
(I2
I24
tp176
a(I3
I12
tp177
a(I4
I16
tp178
a(I5
I7
tp179
a(I6
I6
tp180
a(I16
I6
tp181
a(I20
I8
tp182
a(I21
I24
tp183
a(I22
I10
tp184
atp185
a(S'current state'
p186
F11.631884303580371
(lp187
(I2
I7
tp188
a(I21
I12
tp189
atp190
a(S'initial state'
p191
F11.631884303580371
(lp192
(I2
I31
tp193
a(I3
I16
tp194
a(I5
I5
tp195
a(I20
I21
tp196
a(I21
I31
tp197
a(I22
I30
tp198
a(I23
I22
tp199
atp200
a(S'state'
p201
F11.631884303580371
(lp202
(I1
I15
tp203
a(I2
I175
tp204
a(I3
I108
tp205
a(I4
I51
tp206
a(I5
I61
tp207
a(I6
I28
tp208
a(I8
I14
tp209
a(I15
I23
tp210
a(I16
I23
tp211
a(I17
I5
tp212
a(I20
I120
tp213
a(I21
I134
tp214
a(I22
I57
tp215
a(I23
I62
tp216
a(I24
I19
tp217
a(I33
I12
tp218
atp219
a(S'state space'
p220
F11.631884303580371
(lp221
(I2
I39
tp222
a(I3
I34
tp223
a(I5
I16
tp224
a(I20
I14
tp225
a(I21
I8
tp226
atp227
a(S'strong ai'
p228
F11.560596065156595
(lp229
(I0
I6
tp230
atp231
a(S'ai'
p232
F11.560596065156595
(lp233
(I0
I80
tp234
a(I23
I6
tp235
a(I37
I19
tp236
atp237
a(S'search problem'
p238
F11.397800664655428
(lp239
(I2
I17
tp240
a(I3
I5
tp241
a(I20
I5
tp242
atp243
a(S'search'
p244
F11.397800664655428
(lp245
(I2
I63
tp246
a(I3
I174
tp247
a(I4
I145
tp248
a(I5
I91
tp249
a(I6
I80
tp250
a(I7
I80
tp251
a(I8
I50
tp252
a(I9
I42
tp253
a(I15
I9
tp254
a(I16
I13
tp255
a(I18
I8
tp256
a(I20
I33
tp257
a(I21
I65
tp258
a(I22
I6
tp259
a(I23
I24
tp260
a(I24
I9
tp261
a(I32
I13
tp262
a(I38
I7
tp263
atp264
a(S'breadth first search'
p265
F11.397800664655428
(lp266
(I3
I36
tp267
a(I4
I11
tp268
a(I5
I6
tp269
atp270
a(S'search algorithm'
p271
F11.397800664655428
(lp272
(I3
I11
tp273
a(I4
I11
tp274
atp275
a(S'search tree'
p276
F11.397800664655428
(lp277
(I2
I5
tp278
a(I3
I40
tp279
a(I4
I11
tp280
a(I5
I6
tp281
a(I6
I18
tp282
a(I7
I12
tp283
a(I8
I7
tp284
a(I9
I7
tp285
atp286
a(S'search strategy'
p287
F11.397800664655428
(lp288
(I3
I5
tp289
atp290
a(S'iterative deepening search'
p291
F11.397800664655428
(lp292
(I3
I7
tp293
a(I5
I7
tp294
atp295
a(S'search space'
p296
F11.397800664655428
(lp297
(I3
I6
tp298
a(I4
I5
tp299
a(I5
I7
tp300
a(I15
I8
tp301
a(I21
I5
tp302
atp303
a(S'greedy search'
p304
F11.321696228181226
(lp305
(I4
I9
tp306
atp307
a(S'cost search'
p308
F11.321696228181226
(lp309
(I4
I7
tp310
a(I6
I5
tp311
atp312
a(S'forward search'
p313
F11.321696228181226
(lp314
(I4
I5
tp315
a(I21
I12
tp316
atp317
a(S'first search'
p318
F11.321696228181226
(lp319
(I4
I22
tp320
a(I5
I25
tp321
atp322
a(S'bidirectional search'
p323
F11.321696228181226
(lp324
(I4
I23
tp325
a(I5
I6
tp326
a(I6
I5
tp327
atp328
a(S'probability of john'
p329
F11.07784870612619
(lp330
(I28
I9
tp331
atp332
a(S'probability'
p333
F11.07784870612619
(lp334
(I26
I9
tp335
a(I27
I113
tp336
a(I28
I119
tp337
a(I34
I7
tp338
a(I37
I57
tp339
atp340
a(S'probability of alarm'
p341
F11.07784870612619
(lp342
(I28
I7
tp343
atp344
a(S'conditional probability'
p345
F11.07784870612619
(lp346
(I27
I11
tp347
a(I28
I13
tp348
atp349
a(S'probability of b'
p350
F11.07784870612619
(lp351
(I27
I9
tp352
a(I28
I6
tp353
atp354
a(S'priori probability'
p355
F11.07784870612619
(lp356
(I27
I12
tp357
a(I28
I12
tp358
atp359
a(S'goal node'
p360
F11.028803745092134
(lp361
(I3
I15
tp362
a(I4
I16
tp363
a(I5
I6
tp364
atp365
a(S'node n'
p366
F11.028803745092134
(lp367
(I4
I14
tp368
a(I6
I6
tp369
atp370
a(S'node'
p371
F11.028803745092134
(lp372
(I2
I25
tp373
a(I3
I84
tp374
a(I4
I129
tp375
a(I5
I50
tp376
a(I6
I66
tp377
a(I7
I144
tp378
a(I8
I19
tp379
a(I15
I10
tp380
a(I17
I8
tp381
a(I18
I14
tp382
a(I28
I44
tp383
a(I33
I41
tp384
a(I34
I44
tp385
atp386
a(S'fuzzy logic'
p387
F10.909948121587904
(lp388
(I30
I7
tp389
atp390
a(S'fuzzy set tall'
p391
F10.909948121587904
(lp392
(I30
I8
tp393
atp394
a(S'fuzzy set'
p395
F10.909948121587904
(lp396
(I29
I42
tp397
a(I30
I57
tp398
atp399
a(S'fuzzy'
p400
F10.909948121587904
(lp401
(I29
I60
tp402
a(I30
I107
tp403
atp404
a(S'min node'
p405
F10.459684948210867
(lp406
(I6
I5
tp407
a(I7
I32
tp408
atp409
a(S'node ordering'
p410
F10.459684948210867
(lp411
(I7
I5
tp412
atp413
a(S'max node'
p414
F10.459684948210867
(lp415
(I6
I6
tp416
a(I7
I31
tp417
atp418
a(S'joint probability'
p419
F10.400837518551134
(lp420
(I27
I5
tp421
atp422
a(S'probability theory'
p423
F10.400837518551134
(lp424
(I27
I5
tp425
atp426
a(S'neural network'
p427
F10.387785793467197
(lp428
(I0
I5
tp429
a(I35
I18
tp430
a(I36
I42
tp431
atp432
a(S'network'
p433
F10.387785793467197
(lp434
(I17
I18
tp435
a(I28
I24
tp436
a(I35
I37
tp437
a(I36
I75
tp438
atp439
a(S'environment'
p440
F10.282350867260014
(lp441
(I1
I110
tp442
a(I2
I21
tp443
a(I10
I7
tp444
a(I20
I10
tp445
a(I31
I8
tp446
atp447
a(S'agent refer'
p448
F10.277346536194475
(lp449
(I2
I5
tp450
atp451
a(S'decision attribute'
p452
F10.167863170318077
(lp453
(I33
I5
tp454
atp455
a(S'attribute'
p456
F10.167863170318077
(lp457
(I17
I11
tp458
a(I19
I12
tp459
a(I33
I95
tp460
a(I34
I28
tp461
a(I37
I15
tp462
atp463
a(S'target attribute'
p464
F10.167863170318077
(lp465
(I33
I8
tp466
atp467
a(S'sentence'
p468
F10.050549690089651
(lp469
(I10
I51
tp470
a(I11
I20
tp471
a(I12
I14
tp472
a(I13
I114
tp473
a(I14
I5
tp474
a(I17
I6
tp475
a(I38
I38
tp476
a(I39
I45
tp477
atp478
a(S'intelligent'
p479
F9.818419482662943
(lp480
(I0
I23
tp481
a(I1
I16
tp482
a(I9
I6
tp483
a(I10
I40
tp484
a(I12
I13
tp485
atp486
a(S'artificial intelligence'
p487
F9.818419482662943
(lp488
(I0
I21
tp489
a(I1
I5
tp490
atp491
a(S'intelligence'
p492
F9.818419482662943
(lp493
(I0
I47
tp494
a(I1
I12
tp495
a(I2
I9
tp496
a(I10
I9
tp497
atp498
a(S'horn sentence'
p499
F9.810691229771907
(lp500
(I13
I8
tp501
atp502
a(S'set medium'
p503
F9.631522206587876
(lp504
(I29
I5
tp505
atp506
a(S'set'
p507
F9.631522206587876
(lp508
(I2
I18
tp509
a(I3
I12
tp510
a(I8
I14
tp511
a(I9
I11
tp512
a(I10
I6
tp513
a(I11
I37
tp514
a(I12
I23
tp515
a(I14
I9
tp516
a(I15
I18
tp517
a(I16
I7
tp518
a(I19
I13
tp519
a(I20
I9
tp520
a(I21
I15
tp521
a(I22
I24
tp522
a(I23
I16
tp523
a(I27
I11
tp524
a(I28
I21
tp525
a(I29
I134
tp526
a(I30
I111
tp527
a(I31
I44
tp528
a(I32
I100
tp529
a(I33
I38
tp530
a(I34
I92
tp531
a(I36
I9
tp532
a(I37
I14
tp533
a(I38
I5
tp534
atp535
a(S'set tall'
p536
F9.631522206587876
(lp537
(I29
I7
tp538
a(I30
I9
tp539
atp540
a(S'crisp set'
p541
F9.631522206587876
(lp542
(I29
I21
tp543
a(I30
I15
tp544
atp545
a(S'set theory'
p546
F9.631522206587876
(lp547
(I29
I6
tp548
atp549
a(S'knowledge'
p550
F9.558551360585955
(lp551
(I0
I18
tp552
a(I1
I15
tp553
a(I2
I5
tp554
a(I10
I72
tp555
a(I15
I28
tp556
a(I16
I7
tp557
a(I17
I21
tp558
a(I18
I6
tp559
a(I19
I8
tp560
a(I24
I46
tp561
a(I25
I11
tp562
a(I27
I12
tp563
a(I31
I25
tp564
a(I37
I6
tp565
a(I38
I18
tp566
a(I39
I16
tp567
atp568
a(S'knowledge representation'
p569
F9.558551360585955
(lp570
(I10
I12
tp571
a(I15
I9
tp572
a(I17
I6
tp573
a(I19
I7
tp574
atp575
a(S'action level'
p576
F9.447415048637474
(lp577
(I23
I11
tp578
atp579
a(S'maintenance action'
p580
F9.447415048637474
(lp581
(I23
I23
tp582
atp583
a(S'decision'
p584
F9.396273168128369
(lp585
(I10
I7
tp586
a(I27
I8
tp587
a(I33
I116
tp588
a(I34
I60
tp589
a(I35
I20
tp590
a(I36
I18
tp591
a(I37
I6
tp592
atp593
a(S'successor state'
p594
F9.37128773679261
(lp595
(I20
I5
tp596
atp597
a(S'posterior probability'
p598
F9.197698217177761
(lp599
(I37
I16
tp600
atp601
a(S'prior probability'
p602
F9.197698217177761
(lp603
(I37
I12
tp604
atp605
a(S'sigmoid function'
p606
F8.900737811824332
(lp607
(I35
I13
tp608
a(I36
I8
tp609
atp610
a(S'error function'
p611
F8.900737811824332
(lp612
(I35
I9
tp613
a(I36
I5
tp614
atp615
a(S'function'
p616
F8.900737811824332
(lp617
(I1
I9
tp618
a(I2
I7
tp619
a(I6
I19
tp620
a(I12
I16
tp621
a(I13
I8
tp622
a(I20
I5
tp623
a(I29
I13
tp624
a(I30
I12
tp625
a(I32
I9
tp626
a(I33
I6
tp627
a(I35
I70
tp628
a(I36
I57
tp629
atp630
a(S'sigmoidal function'
p631
F8.900737811824332
(lp632
(I36
I6
tp633
atp634
a(S'certainty factor'
p635
F8.614103234885777
(lp636
(I25
I9
tp637
a(I26
I71
tp638
atp639
a(S'certainty'
p640
F8.614103234885777
(lp641
(I24
I8
tp642
a(I25
I27
tp643
a(I26
I103
tp644
a(I27
I11
tp645
atp646
a(S'rule set'
p647
F8.526814878223226
(lp648
(I34
I5
tp649
atp650
a(S'data set'
p651
F8.526814878223226
(lp652
(I34
I16
tp653
atp654
a(S'validation set'
p655
F8.526814878223226
(lp656
(I34
I15
tp657
atp658
a(S'test set'
p659
F8.526814878223226
(lp660
(I31
I5
tp661
a(I32
I15
tp662
a(I33
I7
tp663
a(I34
I13
tp664
atp665
a(S'training set'
p666
F8.526814878223226
(lp667
(I31
I11
tp668
a(I32
I29
tp669
a(I33
I9
tp670
a(I34
I18
tp671
a(I35
I5
tp672
a(I37
I6
tp673
atp674
a(S'first node'
p675
F8.491221969200824
(lp676
(I3
I8
tp677
atp678
a(S'depth first search'
p679
F8.440276995702652
(lp680
(I5
I13
tp681
a(I8
I7
tp682
a(I9
I13
tp683
atp684
a(S'local search'
p685
F8.440276995702652
(lp686
(I5
I15
tp687
atp688
a(S'xor function'
p689
F8.420674534101403
(lp690
(I35
I6
tp691
atp692
a(S'different hypothesis'
p693
F8.40131824273541
(lp694
(I37
I6
tp695
atp696
a(S'map hypothesis'
p697
F8.40131824273541
(lp698
(I37
I9
tp699
atp700
a(S'graph'
p701
F8.33608682002541
(lp702
(I3
I28
tp703
a(I4
I13
tp704
a(I5
I10
tp705
a(I8
I16
tp706
a(I9
I10
tp707
a(I23
I111
tp708
a(I28
I7
tp709
a(I29
I6
tp710
atp711
a(S'planning graph'
p712
F8.33608682002541
(lp713
(I23
I67
tp714
atp715
a(S'graph expansion'
p716
F8.33608682002541
(lp717
(I23
I6
tp718
atp719
a(S'graph plan'
p720
F8.33608682002541
(lp721
(I23
I16
tp722
atp723
a(S'natural language'
p724
F8.274998757635391
(lp725
(I0
I15
tp726
a(I38
I28
tp727
a(I39
I20
tp728
atp729
a(S'language processing'
p730
F8.274998757635391
(lp731
(I38
I16
tp732
atp733
a(S'language'
p734
F8.274998757635391
(lp735
(I0
I20
tp736
a(I10
I44
tp737
a(I31
I6
tp738
a(I38
I50
tp739
a(I39
I32
tp740
atp741
a(S'natural language processing'
p742
F8.274998757635391
(lp743
(I38
I16
tp744
atp745
a(S'start node'
p746
F8.152855626366444
(lp747
(I5
I5
tp748
atp749
a(S'proposition'
p750
F8.066536001501833
(lp751
(I10
I54
tp752
a(I11
I28
tp753
a(I12
I23
tp754
a(I17
I7
tp755
a(I20
I18
tp756
a(I23
I33
tp757
a(I25
I16
tp758
atp759
a(S'propositional logic'
p760
F8.066536001501833
(lp761
(I10
I21
tp762
a(I11
I9
tp763
a(I12
I28
tp764
a(I14
I10
tp765
atp766
a(S'valid proposition'
p767
F8.066536001501833
(lp768
(I10
I5
tp769
atp770
a(S'compound proposition'
p771
F8.066536001501833
(lp772
(I10
I9
tp773
atp774
a(S'proposition p'
p775
F8.066536001501833
(lp776
(I10
I6
tp777
a(I12
I5
tp778
atp779
a(S'agent search'
p780
F8.048324937716659
(lp781
(I6
I5
tp782
atp783
a(S'machine'
p784
F8.033318389644757
(lp785
(I0
I20
tp786
a(I2
I10
tp787
a(I6
I5
tp788
a(I10
I18
tp789
a(I11
I7
tp790
a(I15
I10
tp791
a(I24
I5
tp792
a(I31
I17
tp793
a(I38
I10
tp794
a(I39
I14
tp795
atp796
a(S'goal'
p797
F8.022930007547785
(lp798
(I1
I15
tp799
a(I2
I58
tp800
a(I3
I52
tp801
a(I4
I65
tp802
a(I5
I15
tp803
a(I6
I17
tp804
a(I11
I6
tp805
a(I12
I5
tp806
a(I14
I23
tp807
a(I15
I22
tp808
a(I16
I50
tp809
a(I20
I40
tp810
a(I21
I82
tp811
a(I22
I27
tp812
a(I23
I22
tp813
a(I24
I11
tp814
atp815
a(S'current goal'
p816
F8.022930007547785
(lp817
(I21
I8
tp818
atp819
a(S'sub goal'
p820
F8.022930007547785
(lp821
(I21
I8
tp822
atp823
a(S'set of training'
p824
F7.917155067681643
(lp825
(I32
I7
tp826
a(I33
I8
tp827
atp828
a(S'game tree'
p829
F7.886469628232589
(lp830
(I6
I22
tp831
a(I7
I19
tp832
atp833
a(S'game'
p834
F7.886469628232589
(lp835
(I6
I52
tp836
a(I7
I41
tp837
a(I17
I13
tp838
a(I31
I7
tp839
atp840
a(S'computer'
p841
F7.787937279172848
(lp842
(I0
I25
tp843
a(I6
I5
tp844
a(I29
I6
tp845
a(I30
I6
tp846
a(I35
I6
tp847
a(I38
I14
tp848
atp849
a(S'training'
p850
F7.645488119092731
(lp851
(I31
I34
tp852
a(I32
I90
tp853
a(I33
I54
tp854
a(I34
I37
tp855
a(I35
I40
tp856
a(I36
I28
tp857
a(I37
I22
tp858
atp859
a(S'training example'
p860
F7.645488119092731
(lp861
(I31
I7
tp862
a(I32
I9
tp863
a(I33
I9
tp864
a(I35
I10
tp865
a(I36
I6
tp866
atp867
a(S'variable xi'
p868
F7.6146281124930635
(lp869
(I8
I7
tp870
atp871
a(S'current assignment'
p872
F7.535271637994059
(lp873
(I8
I7
tp874
atp875
a(S'assignment'
p876
F7.535271637994059
(lp877
(I8
I37
tp878
a(I9
I15
tp879
atp880
a(S'initial plan'
p881
F7.41547106639712
(lp882
(I22
I6
tp883
atp884
a(S'plan'
p885
F7.41547106639712
(lp886
(I2
I5
tp887
a(I3
I7
tp888
a(I20
I8
tp889
a(I21
I32
tp890
a(I22
I94
tp891
a(I23
I59
tp892
atp893
a(S'planning algorithm'
p894
F7.41547106639712
(lp895
(I21
I10
tp896
a(I22
I5
tp897
atp898
a(S'planning problem'
p899
F7.41547106639712
(lp900
(I20
I25
tp901
a(I21
I11
tp902
a(I22
I5
tp903
atp904
a(S'planning'
p905
F7.41547106639712
(lp906
(I20
I61
tp907
a(I21
I45
tp908
a(I22
I27
tp909
atp910
a(S'partial plan'
p911
F7.41547106639712
(lp912
(I21
I6
tp913
a(I22
I36
tp914
atp915
a(S'membership function'
p916
F7.241205954601914
(lp917
(I30
I6
tp918
atp919
a(S'membership'
p920
F7.241205954601914
(lp921
(I29
I62
tp922
a(I30
I89
tp923
atp924
a(S'membership value'
p925
F7.241205954601914
(lp926
(I30
I18
tp927
atp928
a(S'space search'
p929
F7.19511905892209
(lp930
(I2
I14
tp931
a(I20
I10
tp932
atp933
a(S'unit'
p934
F7.170828844320003
(lp935
(I35
I44
tp936
a(I36
I44
tp937
atp938
a(S'output unit'
p939
F7.170828844320003
(lp940
(I36
I10
tp941
atp942
a(S'sigmoid unit'
p943
F7.170828844320003
(lp944
(I36
I8
tp945
atp946
a(S'hidden unit'
p947
F7.170828844320003
(lp948
(I36
I7
tp949
atp950
a(S'knowledge acquisition'
p951
F7.160984969420651
(lp952
(I24
I5
tp953
atp954
a(S'knowledge base'
p955
F7.160984969420651
(lp956
(I13
I6
tp957
a(I14
I7
tp958
a(I24
I17
tp959
atp960
a(S'threshold unit'
p961
F7.102951337279893
(lp962
(I35
I6
tp963
atp964
a(S'linear threshold unit'
p965
F7.102951337279893
(lp966
(I35
I6
tp967
atp968
a(S'linear unit'
p969
F7.102951337279893
(lp970
(I35
I14
tp971
atp972
a(S'backward search'
p973
F7.099397286531538
(lp974
(I21
I15
tp975
atp976
a(S'algorithm'
p977
F7.0812946559272065
(lp978
(I2
I5
tp979
a(I3
I44
tp980
a(I4
I30
tp981
a(I5
I31
tp982
a(I6
I10
tp983
a(I7
I5
tp984
a(I8
I6
tp985
a(I9
I16
tp986
a(I21
I24
tp987
a(I22
I14
tp988
a(I23
I14
tp989
a(I32
I30
tp990
a(I33
I28
tp991
a(I34
I17
tp992
a(I35
I10
tp993
a(I36
I6
tp994
a(I37
I8
tp995
a(I38
I7
tp996
atp997
a(S'ply search'
p998
F7.0644346711364125
(lp999
(I7
I19
tp1000
atp1001
a(S'minimax search'
p1002
F7.0644346711364125
(lp1003
(I7
I11
tp1004
atp1005
a(S'understanding'
p1006
F6.961631714425881
(lp1007
(I38
I8
tp1008
a(I39
I17
tp1009
atp1010
a(S'min player'
p1011
F6.952620538375391
(lp1012
(I6
I5
tp1013
atp1014
a(S'other player'
p1015
F6.952620538375391
(lp1016
(I6
I8
tp1017
atp1018
a(S'max player'
p1019
F6.952620538375391
(lp1020
(I6
I10
tp1021
atp1022
a(S'player'
p1023
F6.952620538375391
(lp1024
(I6
I49
tp1025
a(I7
I12
tp1026
atp1027
a(S'concept animal'
p1028
F6.919346402837399
(lp1029
(I17
I5
tp1030
atp1031
a(S'factor of h'
p1032
F6.776110884315487
(lp1033
(I26
I7
tp1034
atp1035
a(S'factor'
p1036
F6.776110884315487
(lp1037
(I3
I5
tp1038
a(I6
I8
tp1039
a(I7
I5
tp1040
a(I23
I6
tp1041
a(I25
I10
tp1042
a(I26
I76
tp1043
atp1044
a(S'natural language understanding'
p1045
F6.758513928905577
(lp1046
(I39
I8
tp1047
atp1048
a(S'data'
p1049
F6.576214198451434
(lp1050
(I27
I20
tp1051
a(I34
I64
tp1052
a(I37
I25
tp1053
atp1054
a(S'semantic net'
p1055
F6.543846915044007
(lp1056
(I17
I12
tp1057
a(I18
I23
tp1058
a(I39
I5
tp1059
atp1060
a(S'positive example'
p1061
F6.542266339516969
(lp1062
(I32
I7
tp1063
atp1064
a(S'negative example'
p1065
F6.542266339516969
(lp1066
(I32
I6
tp1067
atp1068
a(S'move'
p1069
F6.417886336980678
(lp1070
(I2
I28
tp1071
a(I4
I26
tp1072
a(I6
I50
tp1073
a(I7
I25
tp1074
a(I16
I9
tp1075
a(I21
I22
tp1076
a(I22
I11
tp1077
atp1078
a(S'path'
p1079
F6.332898320921262
(lp1080
(I1
I5
tp1081
a(I2
I12
tp1082
a(I3
I36
tp1083
a(I4
I65
tp1084
a(I5
I31
tp1085
a(I6
I17
tp1086
a(I7
I30
tp1087
a(I8
I5
tp1088
a(I9
I6
tp1089
a(I15
I6
tp1090
a(I16
I9
tp1091
a(I18
I8
tp1092
a(I21
I11
tp1093
a(I24
I6
tp1094
a(I28
I15
tp1095
atp1096
a(S'optimum path'
p1097
F6.332898320921262
(lp1098
(I4
I7
tp1099
atp1100
a(S'null clause'
p1101
F6.281058429273545
(lp1102
(I11
I9
tp1103
a(I14
I10
tp1104
atp1105
a(S'clause'
p1106
F6.281058429273545
(lp1107
(I8
I8
tp1108
a(I11
I38
tp1109
a(I12
I6
tp1110
a(I13
I7
tp1111
a(I14
I44
tp1112
a(I15
I11
tp1113
atp1114
a(S'text'
p1115
F6.268155527176124
(lp1116
(I38
I25
tp1117
a(I39
I10
tp1118
atp1119
a(S'human'
p1120
F6.219867979090936
(lp1121
(I0
I29
tp1122
a(I6
I6
tp1123
a(I16
I6
tp1124
a(I19
I27
tp1125
a(I39
I5
tp1126
atp1127
a(S'frame'
p1128
F6.140498163121974
(lp1129
(I19
I34
tp1130
a(I39
I19
tp1131
atp1132
a(S'case of fuzzy'
p1133
F6.070041090635516
(lp1134
(I29
I5
tp1135
atp1136
a(S'concept dog'
p1137
F6.067447049964151
(lp1138
(I19
I6
tp1139
atp1140
a(S'particular dog'
p1141
F6.067447049964151
(lp1142
(I19
I7
tp1143
atp1144
a(S'instance of dog'
p1145
F6.067447049964151
(lp1146
(I19
I5
tp1147
atp1148
a(S'dog'
p1149
F6.067447049964151
(lp1150
(I12
I17
tp1151
a(I13
I13
tp1152
a(I18
I27
tp1153
a(I19
I61
tp1154
a(I38
I15
tp1155
atp1156
a(S'belief'
p1157
F6.003252425069468
(lp1158
(I25
I45
tp1159
a(I26
I21
tp1160
a(I28
I26
tp1161
a(I37
I7
tp1162
atp1163
a(S'belief in h'
p1164
F6.003252425069468
(lp1165
(I25
I8
tp1166
atp1167
a(S'measure of belief'
p1168
F6.003252425069468
(lp1169
(I25
I20
tp1170
a(I26
I11
tp1171
atp1172
a(S'partial order'
p1173
F5.901009736083789
(lp1174
(I21
I12
tp1175
a(I22
I18
tp1176
a(I23
I6
tp1177
atp1178
a(S'minimax value'
p1179
F5.861398928312637
(lp1180
(I7
I20
tp1181
atp1182
a(S'exact minimax'
p1183
F5.861398928312637
(lp1184
(I7
I9
tp1185
atp1186
a(S'exact minimax value'
p1187
F5.861398928312637
(lp1188
(I7
I6
tp1189
atp1190
a(S'minimax'
p1191
F5.861398928312637
(lp1192
(I6
I33
tp1193
a(I7
I66
tp1194
atp1195
a(S't state'
p1196
F5.859251925716299
(lp1197
(I4
I20
tp1198
atp1199
a(S'order logic'
p1200
F5.834900514168782
(lp1201
(I12
I10
tp1202
atp1203
a(S'predicate logic'
p1204
F5.834900514168782
(lp1205
(I12
I19
tp1206
a(I13
I17
tp1207
a(I14
I17
tp1208
atp1209
a(S'first order logic'
p1210
F5.834900514168782
(lp1211
(I12
I10
tp1212
a(I13
I22
tp1213
atp1214
a(S'logic'
p1215
F5.834900514168782
(lp1216
(I0
I6
tp1217
a(I10
I29
tp1218
a(I12
I63
tp1219
a(I13
I44
tp1220
a(I14
I27
tp1221
a(I15
I20
tp1222
a(I17
I6
tp1223
a(I29
I7
tp1224
a(I30
I11
tp1225
atp1226
a(S'weight vector'
p1227
F5.821453313460534
(lp1228
(I35
I7
tp1229
a(I36
I5
tp1230
atp1231
a(S'weight'
p1232
F5.821453313460534
(lp1233
(I35
I28
tp1234
a(I36
I16
tp1235
atp1236
a(S'balloon'
p1237
F5.810104039052249
(lp1238
(I39
I43
tp1239
atp1240
a(S'computation'
p1241
F5.776676804462864
(lp1242
(I28
I8
tp1243
atp1244
a(S'compute'
p1245
F5.776676804462864
(lp1246
(I19
I5
tp1247
a(I28
I21
tp1248
atp1249
a(S'time and space'
p1250
F5.775477170365573
(lp1251
(I3
I6
tp1252
atp1253
a(S'space'
p1254
F5.775477170365573
(lp1255
(I0
I6
tp1256
a(I2
I41
tp1257
a(I3
I53
tp1258
a(I4
I18
tp1259
a(I5
I38
tp1260
a(I16
I10
tp1261
a(I21
I17
tp1262
a(I24
I5
tp1263
a(I27
I10
tp1264
a(I31
I17
tp1265
a(I32
I92
tp1266
atp1267
a(S'machine learning'
p1268
F5.74498230206536
(lp1269
(I31
I15
tp1270
atp1271
a(S'learning problem'
p1272
F5.74498230206536
(lp1273
(I31
I8
tp1274
a(I32
I9
tp1275
atp1276
a(S'learning'
p1277
F5.74498230206536
(lp1278
(I0
I8
tp1279
a(I1
I14
tp1280
a(I31
I99
tp1281
a(I37
I41
tp1282
a(I38
I9
tp1283
atp1284
a(S'concept learning'
p1285
F5.74498230206536
(lp1286
(I31
I16
tp1287
a(I32
I5
tp1288
a(I35
I5
tp1289
a(I37
I6
tp1290
atp1291
a(S'uncertainty'
p1292
F5.713614781641258
(lp1293
(I24
I5
tp1294
a(I25
I25
tp1295
a(I27
I17
tp1296
a(I29
I8
tp1297
atp1298
a(S'predicate'
p1299
F5.691648307168023
(lp1300
(I12
I55
tp1301
a(I13
I43
tp1302
a(I14
I23
tp1303
a(I29
I10
tp1304
atp1305
a(S'valid predicate'
p1306
F5.691648307168023
(lp1307
(I12
I9
tp1308
atp1309
a(S'level'
p1310
F5.677020854924879
(lp1311
(I3
I14
tp1312
a(I4
I5
tp1313
a(I17
I39
tp1314
a(I18
I7
tp1315
a(I23
I76
tp1316
a(I24
I9
tp1317
a(I38
I8
tp1318
a(I39
I5
tp1319
atp1320
a(S'previous level'
p1321
F5.677020854924879
(lp1322
(I23
I6
tp1323
atp1324
a(S'state level'
p1325
F5.677020854924879
(lp1326
(I23
I13
tp1327
atp1328
a(S'level pi'
p1329
F5.677020854924879
(lp1330
(I23
I6
tp1331
atp1332
a(S'goal test'
p1333
F5.6292478517507165
(lp1334
(I2
I8
tp1335
atp1336
a(S'heuristic function'
p1337
F5.612726061517747
(lp1338
(I4
I19
tp1339
a(I5
I7
tp1340
atp1341
a(S'class'
p1342
F5.524466752126003
(lp1343
(I8
I7
tp1344
a(I9
I17
tp1345
a(I10
I12
tp1346
a(I17
I11
tp1347
a(I18
I25
tp1348
a(I19
I52
tp1349
a(I21
I5
tp1350
a(I31
I7
tp1351
a(I32
I18
tp1352
a(I33
I31
tp1353
a(I34
I38
tp1354
a(I37
I30
tp1355
atp1356
a(S'valid plan'
p1357
F5.501187630595054
(lp1358
(I23
I13
tp1359
atp1360
a(S'same class'
p1361
F5.467446490836606
(lp1362
(I33
I6
tp1363
atp1364
a(S'version space'
p1365
F5.379515990463551
(lp1366
(I32
I24
tp1367
atp1368
a(S'event'
p1369
F5.374022055093259
(lp1370
(I17
I5
tp1371
a(I27
I17
tp1372
a(I28
I8
tp1373
atp1374
a(S'interpret'
p1375
F5.354316777208884
(lp1376
(I10
I25
tp1377
a(I38
I6
tp1378
atp1379
a(S'interpretation'
p1380
F5.354316777208884
(lp1381
(I10
I13
tp1382
a(I11
I24
tp1383
a(I39
I5
tp1384
atp1385
a(S'tall'
p1386
F5.350440697581447
(lp1387
(I29
I35
tp1388
a(I30
I36
tp1389
atp1390
a(S'solution'
p1391
F5.348890485491942
(lp1392
(I2
I21
tp1393
a(I3
I45
tp1394
a(I4
I14
tp1395
a(I5
I41
tp1396
a(I6
I10
tp1397
a(I8
I17
tp1398
a(I9
I8
tp1399
a(I20
I5
tp1400
a(I22
I8
tp1401
a(I23
I30
tp1402
a(I24
I5
tp1403
atp1404
a(S'doorbell'
p1405
F5.346698109656147
(lp1406
(I25
I46
tp1407
a(I27
I13
tp1408
atp1409
a(S'step'
p1410
F5.3447084816683335
(lp1411
(I3
I7
tp1412
a(I6
I6
tp1413
a(I9
I5
tp1414
a(I14
I13
tp1415
a(I21
I5
tp1416
a(I22
I39
tp1417
a(I36
I5
tp1418
atp1419
a(S'new step'
p1420
F5.3447084816683335
(lp1421
(I22
I8
tp1422
atp1423
a(S'domain'
p1424
F5.291809192802864
(lp1425
(I8
I32
tp1426
a(I9
I40
tp1427
a(I10
I8
tp1428
a(I15
I5
tp1429
a(I16
I6
tp1430
a(I24
I15
tp1431
a(I39
I11
tp1432
atp1433
a(S'computing'
p1434
F5.281568535954191
(lp1435
(I35
I10
tp1436
atp1437
a(S'resolution'
p1438
F5.247734735057177
(lp1439
(I11
I25
tp1440
a(I12
I10
tp1441
a(I14
I37
tp1442
a(I15
I15
tp1443
atp1444
a(S'leaf node'
p1445
F5.193788333464451
(lp1446
(I33
I11
tp1447
atp1448
a(S'rationality'
p1449
F5.189268932793039
(lp1450
(I1
I20
tp1451
atp1452
a(S'bounded rationality'
p1453
F5.189268932793039
(lp1454
(I1
I9
tp1455
atp1456
a(S'order predicate'
p1457
F5.187193436968367
(lp1458
(I13
I7
tp1459
atp1460
a(S'first order predicate'
p1461
F5.187193436968367
(lp1462
(I13
I7
tp1463
a(I14
I6
tp1464
atp1465
a(S'super class'
p1466
F5.090097758503689
(lp1467
(I19
I7
tp1468
atp1469
a(S'top level'
p1470
F5.089184214953407
(lp1471
(I17
I7
tp1472
atp1473
a(S'tom'
p1474
F5.077102024304651
(lp1475
(I11
I7
tp1476
a(I12
I107
tp1477
a(I17
I15
tp1478
a(I19
I28
tp1479
a(I30
I12
tp1480
a(I39
I7
tp1481
atp1482
a(S'man tom'
p1483
F5.077102024304651
(lp1484
(I12
I16
tp1485
atp1486
a(S'drink tom'
p1487
F5.077102024304651
(lp1488
(I12
I12
tp1489
atp1490
a(S'tom milk'
p1491
F5.077102024304651
(lp1492
(I12
I12
tp1493
atp1494
a(S'mammal tom'
p1495
F5.077102024304651
(lp1496
(I12
I22
tp1497
atp1498
a(S'learning algorithm'
p1499
F5.068736919365415
(lp1500
(I32
I8
tp1501
atp1502
a(S'particular world'
p1503
F5.0614633091219225
(lp1504
(I10
I8
tp1505
atp1506
a(S'world'
p1507
F5.0614633091219225
(lp1508
(I1
I6
tp1509
a(I10
I45
tp1510
a(I20
I37
tp1511
a(I21
I11
tp1512
atp1513
a(S'operator'
p1514
F5.052509821425422
(lp1515
(I2
I9
tp1516
a(I3
I9
tp1517
a(I10
I9
tp1518
atp1519
a(S'greedy algorithm'
p1520
F5.008369840194959
(lp1521
(I33
I5
tp1522
atp1523
a(S'inference mechanism'
p1524
F4.972703651112785
(lp1525
(I15
I5
tp1526
a(I24
I7
tp1527
atp1528
a(S'inference'
p1529
F4.972703651112785
(lp1530
(I11
I26
tp1531
a(I13
I5
tp1532
a(I15
I16
tp1533
a(I18
I8
tp1534
a(I19
I6
tp1535
a(I24
I19
tp1536
a(I27
I9
tp1537
a(I39
I10
tp1538
atp1539
a(S'inference machine'
p1540
F4.972703651112785
(lp1541
(I15
I9
tp1542
a(I16
I5
tp1543
atp1544
a(S'error'
p1545
F4.87220093032063
(lp1546
(I32
I14
tp1547
a(I33
I15
tp1548
a(I34
I27
tp1549
a(I35
I40
tp1550
a(I36
I39
tp1551
atp1552
a(S'max'
p1553
F4.8647442781234
(lp1554
(I6
I38
tp1555
a(I7
I82
tp1556
a(I26
I5
tp1557
a(I30
I13
tp1558
atp1559
a(S'max ancestor'
p1560
F4.8647442781234
(lp1561
(I7
I6
tp1562
atp1563
a(S'intelligent behavior'
p1564
F4.857329229610808
(lp1565
(I10
I9
tp1566
atp1567
a(S'intelligent anil'
p1568
F4.857329229610808
(lp1569
(I10
I5
tp1570
atp1571
a(S'instance'
p1572
F4.849619197469863
(lp1573
(I17
I10
tp1574
a(I18
I29
tp1575
a(I19
I33
tp1576
a(I31
I14
tp1577
a(I32
I14
tp1578
a(I37
I16
tp1579
atp1580
a(S'training rule'
p1581
F4.8027721947107755
(lp1582
(I35
I7
tp1583
atp1584
a(S'subclass'
p1585
F4.793093051626058
(lp1586
(I18
I37
tp1587
atp1588
a(S'cost'
p1589
F4.780457433048813
(lp1590
(I2
I13
tp1591
a(I3
I18
tp1592
a(I4
I48
tp1593
a(I5
I24
tp1594
a(I6
I57
tp1595
a(I16
I8
tp1596
atp1597
a(S'uniform cost'
p1598
F4.780457433048813
(lp1599
(I4
I7
tp1600
a(I6
I5
tp1601
atp1602
a(S'property'
p1603
F4.748897588590027
(lp1604
(I4
I5
tp1605
a(I18
I18
tp1606
a(I19
I5
tp1607
atp1608
a(S'false false'
p1609
F4.748880651263815
(lp1610
(I11
I6
tp1611
atp1612
a(S'false true'
p1613
F4.748880651263815
(lp1614
(I11
I6
tp1615
a(I32
I5
tp1616
atp1617
a(S'false'
p1618
F4.748880651263815
(lp1619
(I8
I5
tp1620
a(I10
I38
tp1621
a(I11
I76
tp1622
a(I12
I8
tp1623
a(I15
I8
tp1624
a(I20
I8
tp1625
a(I31
I10
tp1626
a(I32
I19
tp1627
atp1628
a(S'optimum solution'
p1629
F4.737308561048773
(lp1630
(I4
I7
tp1631
a(I5
I7
tp1632
atp1633
a(S'precondition'
p1634
F4.719603706403701
(lp1635
(I20
I8
tp1636
a(I21
I13
tp1637
a(I22
I22
tp1638
a(I23
I34
tp1639
atp1640
a(S'open precondition'
p1641
F4.719603706403701
(lp1642
(I22
I5
tp1643
atp1644
a(S'mutex'
p1645
F4.716096955051355
(lp1646
(I23
I88
tp1647
atp1648
a(S'rule post'
p1649
F4.666819013221276
(lp1650
(I34
I5
tp1651
atp1652
a(S'legal value'
p1653
F4.659972587036471
(lp1654
(I9
I8
tp1655
atp1656
a(S'inference rule'
p1657
F4.652510951835973
(lp1658
(I11
I9
tp1659
atp1660
a(S'fact base'
p1661
F4.629281737534822
(lp1662
(I15
I16
tp1663
a(I16
I9
tp1664
atp1665
a(S'next state'
p1666
F4.629164315122877
(lp1667
(I23
I5
tp1668
atp1669
a(S'hamiltonian path'
p1670
F4.615477402956344
(lp1671
(I3
I6
tp1672
atp1673
a(S'inheritance'
p1674
F4.597002503159699
(lp1675
(I18
I20
tp1676
a(I19
I7
tp1677
atp1678
a(S'inherit'
p1679
F4.597002503159699
(lp1680
(I17
I10
tp1681
a(I18
I12
tp1682
atp1683
a(S'accuracy'
p1684
F4.562417009777027
(lp1685
(I31
I9
tp1686
a(I32
I28
tp1687
a(I33
I11
tp1688
a(I34
I42
tp1689
atp1690
a(S'relationship'
p1691
F4.55885556919256
(lp1692
(I17
I7
tp1693
a(I18
I20
tp1694
a(I19
I6
tp1695
a(I27
I5
tp1696
a(I39
I5
tp1697
atp1698
a(S'sentence p'
p1699
F4.515006305826198
(lp1700
(I10
I6
tp1701
atp1702
a(S'valid sentence'
p1703
F4.515006305826198
(lp1704
(I10
I12
tp1705
atp1706
a(S'depth first iterative deepening'
p1707
F4.5084883786183205
(lp1708
(I3
I5
tp1709
atp1710
a(S'depth d'
p1711
F4.5084883786183205
(lp1712
(I3
I10
tp1713
atp1714
a(S'depth'
p1715
F4.5084883786183205
(lp1716
(I3
I69
tp1717
a(I4
I11
tp1718
a(I5
I21
tp1719
a(I6
I8
tp1720
a(I7
I15
tp1721
a(I8
I9
tp1722
a(I9
I13
tp1723
atp1724
a(S'position'
p1725
F4.495224067348804
(lp1726
(I2
I12
tp1727
a(I4
I9
tp1728
a(I6
I25
tp1729
atp1730
a(S'initial position'
p1731
F4.495224067348804
(lp1732
(I6
I5
tp1733
atp1734
a(S'current domain'
p1735
F4.4586707268499985
(lp1736
(I8
I7
tp1737
atp1738
a(S'bird'
p1739
F4.4556157307645625
(lp1740
(I12
I13
tp1741
a(I17
I51
tp1742
a(I18
I13
tp1743
a(I19
I12
tp1744
atp1745
a(S'curve'
p1746
F4.403808575578834
(lp1747
(I29
I15
tp1748
a(I30
I22
tp1749
a(I32
I7
tp1750
a(I35
I12
tp1751
a(I36
I5
tp1752
atp1753
a(S'speech'
p1754
F4.392805664193476
(lp1755
(I31
I5
tp1756
a(I38
I33
tp1757
a(I39
I14
tp1758
atp1759
a(S'part of speech'
p1760
F4.392805664193476
(lp1761
(I38
I9
tp1762
atp1763
a(S'utility value'
p1764
F4.319821307736596
(lp1765
(I6
I5
tp1766
atp1767
a(S'utility'
p1768
F4.319821307736596
(lp1769
(I1
I16
tp1770
a(I6
I45
tp1771
atp1772
a(S'expand'
p1773
F4.302653228610767
(lp1774
(I4
I33
tp1775
a(I6
I12
tp1776
atp1777
a(S'number'
p1778
F4.289517854702035
(lp1779
(I1
I6
tp1780
a(I2
I9
tp1781
a(I3
I22
tp1782
a(I4
I15
tp1783
a(I5
I40
tp1784
a(I6
I22
tp1785
a(I7
I14
tp1786
a(I9
I5
tp1787
a(I12
I22
tp1788
a(I13
I23
tp1789
a(I17
I5
tp1790
a(I18
I7
tp1791
a(I19
I15
tp1792
a(I20
I7
tp1793
a(I21
I8
tp1794
a(I22
I6
tp1795
a(I23
I12
tp1796
a(I24
I7
tp1797
a(I27
I10
tp1798
a(I28
I13
tp1799
a(I29
I8
tp1800
a(I30
I11
tp1801
a(I31
I9
tp1802
a(I32
I14
tp1803
a(I33
I16
tp1804
a(I34
I5
tp1805
a(I36
I10
tp1806
a(I37
I15
tp1807
atp1808
a(S'base'
p1809
F4.238241115026352
(lp1810
(I15
I27
tp1811
a(I16
I17
tp1812
a(I24
I18
tp1813
atp1814
a(S'entropy'
p1815
F4.221314795068082
(lp1816
(I33
I31
tp1817
a(I34
I21
tp1818
atp1819
a(S'current node'
p1820
F4.17917806207133
(lp1821
(I18
I6
tp1822
atp1823
a(S'order'
p1824
F4.172763135316845
(lp1825
(I1
I8
tp1826
a(I2
I5
tp1827
a(I3
I25
tp1828
a(I4
I19
tp1829
a(I5
I7
tp1830
a(I6
I7
tp1831
a(I7
I14
tp1832
a(I8
I9
tp1833
a(I9
I9
tp1834
a(I10
I15
tp1835
a(I12
I15
tp1836
a(I13
I34
tp1837
a(I14
I19
tp1838
a(I16
I6
tp1839
a(I19
I7
tp1840
a(I20
I15
tp1841
a(I21
I23
tp1842
a(I22
I28
tp1843
a(I23
I9
tp1844
a(I24
I13
tp1845
a(I25
I7
tp1846
a(I27
I5
tp1847
a(I28
I6
tp1848
a(I30
I5
tp1849
a(I31
I11
tp1850
a(I32
I7
tp1851
a(I34
I8
tp1852
a(I35
I7
tp1853
a(I38
I9
tp1854
a(I39
I13
tp1855
atp1856
a(S'mycin'
p1857
F4.166319737945198
(lp1858
(I24
I14
tp1859
a(I25
I6
tp1860
a(I26
I7
tp1861
atp1862
a(S'robot'
p1863
F4.136414106136075
(lp1864
(I0
I6
tp1865
a(I1
I22
tp1866
atp1867
a(S'perceptron'
p1868
F4.113353601653031
(lp1869
(I35
I29
tp1870
atp1871
a(S'classification'
p1872
F4.110234888644278
(lp1873
(I31
I9
tp1874
a(I32
I7
tp1875
a(I33
I12
tp1876
a(I34
I9
tp1877
a(I37
I29
tp1878
atp1879
a(S'bayesian classification'
p1880
F4.110234888644278
(lp1881
(I37
I5
tp1882
atp1883
a(S'likely classification'
p1884
F4.110234888644278
(lp1885
(I37
I6
tp1886
atp1887
a(S'train'
p1888
F4.103116189604443
(lp1889
(I16
I10
tp1890
a(I34
I5
tp1891
atp1892
a(S'min'
p1893
F4.071774411527211
(lp1894
(I6
I23
tp1895
a(I7
I68
tp1896
a(I26
I6
tp1897
a(I30
I17
tp1898
atp1899
a(S'value of min'
p1900
F4.071774411527211
(lp1901
(I7
I6
tp1902
atp1903
a(S'ida star'
p1904
F4.071011549788719
(lp1905
(I5
I33
tp1906
atp1907
a(S'evidence'
p1908
F4.0357372664316244
(lp1909
(I25
I22
tp1910
a(I26
I18
tp1911
a(I28
I25
tp1912
a(I37
I16
tp1913
atp1914
a(S'evidence e'
p1915
F4.0357372664316244
(lp1916
(I26
I5
tp1917
a(I28
I7
tp1918
atp1919
a(S'assign'
p1920
F4.0154201095908775
(lp1921
(I9
I16
tp1922
atp1923
a(S'instance of elephant'
p1924
F3.981119211685736
(lp1925
(I18
I5
tp1926
atp1927
a(S'wi'
p1928
F3.9774102251554613
(lp1929
(I35
I38
tp1930
a(I36
I21
tp1931
atp1932
a(S'delta wi'
p1933
F3.9774102251554613
(lp1934
(I35
I21
tp1935
atp1936
a(S'back of fringe'
p1937
F3.9566398440457267
(lp1938
(I3
I9
tp1939
atp1940
a(S'fringe'
p1941
F3.9566398440457267
(lp1942
(I2
I17
tp1943
a(I3
I64
tp1944
a(I4
I25
tp1945
a(I5
I8
tp1946
a(I6
I21
tp1947
atp1948
a(S'fire'
p1949
F3.92327532145323
(lp1950
(I15
I23
tp1951
a(I16
I31
tp1952
atp1953
a(S'common sense knowledge'
p1954
F3.9134406564009248
(lp1955
(I38
I5
tp1956
atp1957
a(S'exist'
p1958
F3.9102653929098157
(lp1959
(I13
I7
tp1960
a(I14
I8
tp1961
atp1962
a(S'slot'
p1963
F3.8849575454437786
(lp1964
(I9
I9
tp1965
a(I19
I24
tp1966
atp1967
a(S'inference engine'
p1968
F3.8708055747185335
(lp1969
(I24
I6
tp1970
atp1971
a(S'component'
p1972
F3.8617859767702107
(lp1973
(I1
I11
tp1974
atp1975
a(S'conjunctive normal form'
p1976
F3.84289406658454
(lp1977
(I11
I7
tp1978
atp1979
a(S'normal form'
p1980
F3.84289406658454
(lp1981
(I11
I10
tp1982
atp1983
a(S'clausal form'
p1984
F3.84289406658454
(lp1985
(I11
I24
tp1986
a(I12
I7
tp1987
a(I14
I31
tp1988
a(I15
I8
tp1989
atp1990
a(S'form'
p1991
F3.84289406658454
(lp1992
(I10
I9
tp1993
a(I11
I46
tp1994
a(I13
I7
tp1995
a(I14
I48
tp1996
a(I15
I26
tp1997
a(I17
I9
tp1998
a(I18
I8
tp1999
a(I24
I6
tp2000
a(I29
I7
tp2001
a(I30
I7
tp2002
a(I31
I10
tp2003
a(I38
I5
tp2004
atp2005
a(S'doctor'
p2006
F3.824039417906015
(lp2007
(I0
I5
tp2008
a(I24
I11
tp2009
atp2010
a(S'rock'
p2011
F3.8174625357343737
(lp2012
(I0
I9
tp2013
atp2014
a(S'elephant'
p2015
F3.7774262048859386
(lp2016
(I18
I27
tp2017
a(I19
I10
tp2018
atp2019
a(S'plant'
p2020
F3.7508395080475325
(lp2021
(I38
I26
tp2022
atp2023
a(S'industrial plant'
p2024
F3.7508395080475325
(lp2025
(I38
I5
tp2026
atp2027
a(S'stopping'
p2028
F3.742412842366133
(lp2029
(I34
I6
tp2030
atp2031
a(S'information'
p2032
F3.739719870830795
(lp2033
(I0
I6
tp2034
a(I3
I6
tp2035
a(I15
I5
tp2036
a(I19
I6
tp2037
a(I24
I5
tp2038
a(I25
I6
tp2039
a(I27
I6
tp2040
a(I38
I23
tp2041
atp2042
a(S'information retrieval'
p2043
F3.739719870830795
(lp2044
(I38
I10
tp2045
atp2046
a(S'nellie'
p2047
F3.7181621374608507
(lp2048
(I18
I37
tp2049
atp2050
a(S'hidden layer'
p2051
F3.714636478906092
(lp2052
(I36
I9
tp2053
atp2054
a(S'layer'
p2055
F3.714636478906092
(lp2056
(I1
I11
tp2057
a(I35
I7
tp2058
a(I36
I20
tp2059
atp2060
a(S'type'
p2061
F3.709238248623012
(lp2062
(I12
I24
tp2063
a(I17
I11
tp2064
a(I19
I18
tp2065
a(I32
I5
tp2066
a(I39
I5
tp2067
atp2068
a(S'type of teeth'
p2069
F3.709238248623012
(lp2070
(I19
I5
tp2071
atp2072
a(S'negation'
p2073
F3.679777381009661
(lp2074
(I11
I15
tp2075
a(I13
I5
tp2076
a(I14
I30
tp2077
atp2078
a(S'scope of negation'
p2079
F3.679777381009661
(lp2080
(I14
I5
tp2081
atp2082
a(S'machine translation'
p2083
F3.6658672699021255
(lp2084
(I38
I6
tp2085
a(I39
I8
tp2086
atp2087
a(S'translation'
p2088
F3.6658672699021255
(lp2089
(I0
I6
tp2090
a(I39
I12
tp2091
atp2092
a(S'condition'
p2093
F3.636154989080008
(lp2094
(I15
I6
tp2095
a(I21
I10
tp2096
a(I22
I21
tp2097
a(I23
I10
tp2098
a(I34
I5
tp2099
atp2100
a(S'open condition'
p2101
F3.636154989080008
(lp2102
(I22
I12
tp2103
atp2104
a(S'error pruning'
p2105
F3.627132226659469
(lp2106
(I34
I12
tp2107
atp2108
a(S'type w'
p2109
F3.6134786515384048
(lp2110
(I12
I5
tp2111
atp2112
a(S'canonical form'
p2113
F3.5985365432713583
(lp2114
(I14
I7
tp2115
atp2116
a(S'breadth'
p2117
F3.596747247778607
(lp2118
(I3
I39
tp2119
a(I4
I11
tp2120
a(I5
I6
tp2121
atp2122
a(S'mb'
p2123
F3.59384822754914
(lp2124
(I25
I32
tp2125
a(I26
I17
tp2126
atp2127
a(S'mb prime'
p2128
F3.59384822754914
(lp2129
(I25
I6
tp2130
a(I26
I6
tp2131
atp2132
a(S'mb h'
p2133
F3.59384822754914
(lp2134
(I25
I20
tp2135
atp2136
a(S'linear threshold'
p2137
F3.592488723745363
(lp2138
(I35
I6
tp2139
a(I36
I5
tp2140
atp2141
a(S'english'
p2142
F3.5883726246343755
(lp2143
(I13
I5
tp2144
a(I38
I25
tp2145
atp2146
a(S'degree'
p2147
F3.5843212866334007
(lp2148
(I8
I5
tp2149
a(I29
I24
tp2150
a(I30
I17
tp2151
atp2152
a(S'brain'
p2153
F3.564288569102007
(lp2154
(I35
I15
tp2155
atp2156
a(S'human brain'
p2157
F3.564288569102007
(lp2158
(I35
I5
tp2159
atp2160
a(S'chess'
p2161
F3.5609330844117744
(lp2162
(I0
I7
tp2163
a(I6
I24
tp2164
atp2165
a(S'task'
p2166
F3.543436817980611
(lp2167
(I31
I11
tp2168
atp2169
a(S'assertion'
p2170
F3.539242434575881
(lp2171
(I15
I7
tp2172
atp2173
a(S'satisfaction'
p2174
F3.5380739600461943
(lp2175
(I8
I25
tp2176
a(I9
I23
tp2177
atp2178
a(S'satisfaction problem'
p2179
F3.5380739600461943
(lp2180
(I8
I15
tp2181
a(I9
I5
tp2182
atp2183
a(S'notion'
p2184
F3.5318097726415747
(lp2185
(I18
I6
tp2186
a(I29
I20
tp2187
atp2188
a(S'notion of truth'
p2189
F3.5318097726415747
(lp2190
(I29
I7
tp2191
atp2192
a(S'object'
p2193
F3.525095415800109
(lp2194
(I12
I11
tp2195
a(I17
I10
tp2196
a(I18
I11
tp2197
a(I19
I18
tp2198
a(I27
I6
tp2199
a(I31
I9
tp2200
a(I39
I12
tp2201
atp2202
a(S'boy'
p2203
F3.5149784287233308
(lp2204
(I15
I7
tp2205
a(I17
I7
tp2206
a(I19
I25
tp2207
a(I26
I5
tp2208
a(I30
I6
tp2209
a(I38
I5
tp2210
a(I39
I7
tp2211
atp2212
a(S'existential quantifier'
p2213
F3.5106975718992777
(lp2214
(I13
I16
tp2215
atp2216
a(S'universal quantifier'
p2217
F3.5106975718992777
(lp2218
(I12
I5
tp2219
a(I13
I8
tp2220
atp2221
a(S'quantifier'
p2222
F3.5106975718992777
(lp2223
(I12
I9
tp2224
a(I13
I25
tp2225
a(I14
I9
tp2226
atp2227
a(S'ordering'
p2228
F3.5098971575285134
(lp2229
(I22
I16
tp2230
atp2231
a(S'coloring'
p2232
F3.4704787771513885
(lp2233
(I3
I9
tp2234
a(I8
I14
tp2235
atp2236
a(S'color'
p2237
F3.4704787771513885
(lp2238
(I3
I7
tp2239
a(I8
I24
tp2240
a(I17
I5
tp2241
a(I18
I8
tp2242
a(I19
I12
tp2243
a(I31
I10
tp2244
a(I33
I5
tp2245
atp2246
a(S'o l'
p2247
F3.4560499545110974
(lp2248
(I22
I11
tp2249
atp2250
a(S'o p'
p2251
F3.4560499545110974
(lp2252
(I22
I11
tp2253
atp2254
a(S'p o'
p2255
F3.4560499545110974
(lp2256
(I22
I11
tp2257
atp2258
a(S'o'
p2259
F3.4560499545110974
(lp2260
(I6
I5
tp2261
a(I8
I10
tp2262
a(I9
I8
tp2263
a(I22
I31
tp2264
a(I35
I23
tp2265
atp2266
a(S'alarm'
p2267
F3.45098395959467
(lp2268
(I15
I8
tp2269
a(I16
I8
tp2270
a(I28
I56
tp2271
atp2272
a(S'belief network'
p2273
F3.448462251176817
(lp2274
(I28
I22
tp2275
atp2276
a(S'performance'
p2277
F3.442500974984316
(lp2278
(I1
I17
tp2279
a(I2
I9
tp2280
a(I31
I18
tp2281
atp2282
a(S'performance measure'
p2283
F3.442500974984316
(lp2284
(I1
I10
tp2285
atp2286
a(S'iteration'
p2287
F3.423930177146015
(lp2288
(I5
I24
tp2289
atp2290
a(S'iterative deepening'
p2291
F3.423930177146015
(lp2292
(I3
I10
tp2293
a(I4
I5
tp2294
a(I5
I15
tp2295
atp2296
a(S'door'
p2297
F3.417923859536847
(lp2298
(I25
I22
tp2299
atp2300
a(S'door x'
p2301
F3.417923859536847
(lp2302
(I25
I7
tp2303
atp2304
a(S'unsafe link'
p2305
F3.4053100118604895
(lp2306
(I22
I13
tp2307
atp2308
a(S'causal link'
p2309
F3.4053100118604895
(lp2310
(I21
I5
tp2311
a(I22
I19
tp2312
atp2313
a(S'link'
p2314
F3.4053100118604895
(lp2315
(I17
I12
tp2316
a(I18
I7
tp2317
a(I22
I36
tp2318
atp2319
a(S'solving'
p2320
F3.4046707465114934
(lp2321
(I0
I11
tp2322
atp2323
a(S'configuration'
p2324
F3.4028287888284967
(lp2325
(I2
I24
tp2326
a(I5
I11
tp2327
atp2328
a(S'verb'
p2329
F3.390214535989357
(lp2330
(I38
I15
tp2331
a(I39
I17
tp2332
atp2333
a(S'bayesian learning'
p2334
F3.365239109245491
(lp2335
(I37
I7
tp2336
atp2337
a(S'bayesian'
p2338
F3.365239109245491
(lp2339
(I37
I23
tp2340
atp2341
a(S'movie'
p2342
F3.357217682443465
(lp2343
(I39
I22
tp2344
atp2345
a(S'movie hall'
p2346
F3.357217682443465
(lp2347
(I39
I14
tp2348
atp2349
a(S'fido'
p2350
F3.3492810707244076
(lp2351
(I18
I37
tp2352
a(I19
I27
tp2353
a(I27
I8
tp2354
atp2355
a(S'posterior'
p2356
F3.343821700461052
(lp2357
(I37
I30
tp2358
atp2359
a(S'linear'
p2360
F3.335374561342764
(lp2361
(I36
I29
tp2362
atp2363
a(S'crisp'
p2364
F3.3353645663214726
(lp2365
(I29
I24
tp2366
a(I30
I28
tp2367
atp2368
a(S'noun phrase'
p2369
F3.3241849339118184
(lp2370
(I38
I11
tp2371
atp2372
a(S'noun'
p2373
F3.3241849339118184
(lp2374
(I38
I31
tp2375
atp2376
a(S'formulation'
p2377
F3.3101385246152537
(lp2378
(I2
I14
tp2379
atp2380
a(S'bank'
p2381
F3.3087557378824823
(lp2382
(I3
I14
tp2383
a(I38
I24
tp2384
atp2385
a(S'truth table'
p2386
F3.298358144035204
(lp2387
(I11
I10
tp2388
atp2389
a(S'truth'
p2390
F3.298358144035204
(lp2391
(I10
I10
tp2392
a(I11
I26
tp2393
a(I29
I10
tp2394
a(I30
I7
tp2395
atp2396
a(S'truth value'
p2397
F3.298358144035204
(lp2398
(I10
I7
tp2399
a(I11
I7
tp2400
atp2401
a(S'crisp value'
p2402
F3.28871250578523
(lp2403
(I30
I8
tp2404
atp2405
a(S'flaw'
p2406
F3.283522208509331
(lp2407
(I22
I32
tp2408
atp2409
a(S'century'
p2410
F3.2809859432151156
(lp2411
(I0
I8
tp2412
atp2413
a(S'tall will'
p2414
F3.2794043527755132
(lp2415
(I30
I5
tp2416
atp2417
a(S'pay'
p2418
F3.263035678507352
(lp2419
(I6
I20
tp2420
atp2421
a(S'classifier'
p2422
F3.25776271133804
(lp2423
(I32
I15
tp2424
a(I33
I13
tp2425
a(I34
I17
tp2426
atp2427
a(S'bayesian approach'
p2428
F3.2328915886793177
(lp2429
(I28
I9
tp2430
atp2431
a(S'etc'
p2432
F3.214831973500869
(lp2433
(I10
I8
tp2434
a(I11
I5
tp2435
a(I15
I5
tp2436
a(I17
I15
tp2437
a(I19
I5
tp2438
a(I24
I6
tp2439
a(I25
I5
tp2440
a(I27
I5
tp2441
a(I29
I5
tp2442
a(I30
I10
tp2443
a(I31
I8
tp2444
a(I38
I10
tp2445
a(I39
I13
tp2446
atp2447
a(S'confidence'
p2448
F3.2056289642015727
(lp2449
(I26
I15
tp2450
atp2451
a(S'man'
p2452
F3.2010303333494288
(lp2453
(I12
I49
tp2454
a(I17
I30
tp2455
a(I18
I6
tp2456
a(I38
I12
tp2457
a(I39
I7
tp2458
atp2459
a(S'meaning'
p2460
F3.199965955600312
(lp2461
(I10
I19
tp2462
a(I13
I5
tp2463
a(I17
I16
tp2464
a(I38
I30
tp2465
atp2466
a(S'home'
p2467
F3.1997158731372406
(lp2468
(I20
I18
tp2469
atp2470
a(S'strength'
p2471
F3.1975549400373753
(lp2472
(I25
I14
tp2473
a(I30
I5
tp2474
atp2475
a(S'successor'
p2476
F3.186597476335064
(lp2477
(I2
I14
tp2478
a(I3
I5
tp2479
a(I5
I8
tp2480
a(I6
I7
tp2481
a(I13
I10
tp2482
atp2483
a(S'sigma'
p2484
F3.183067318727707
(lp2485
(I35
I20
tp2486
a(I36
I25
tp2487
atp2488
a(S'sigma x'
p2489
F3.183067318727707
(lp2490
(I36
I8
tp2491
atp2492
a(S'information content'
p2493
F3.1807650523867563
(lp2494
(I33
I15
tp2495
atp2496
a(S'information gain'
p2497
F3.1807650523867563
(lp2498
(I33
I10
tp2499
a(I34
I6
tp2500
atp2501
a(S'go store'
p2502
F3.1795636322239442
(lp2503
(I20
I8
tp2504
atp2505
a(S'store'
p2506
F3.1795636322239442
(lp2507
(I20
I22
tp2508
atp2509
a(S'feature'
p2510
F3.1681499807763984
(lp2511
(I34
I7
tp2512
atp2513
a(S'current path'
p2514
F3.155154992096223
(lp2515
(I5
I5
tp2516
atp2517
a(S'digit'
p2518
F3.152869550490743
(lp2519
(I32
I7
tp2520
atp2521
a(S'nature'
p2522
F3.151720403502267
(lp2523
(I0
I5
tp2524
atp2525
a(S'word'
p2526
F3.1443137886249213
(lp2527
(I13
I5
tp2528
a(I38
I9
tp2529
a(I39
I8
tp2530
atp2531
a(S'strip'
p2532
F3.140111893687273
(lp2533
(I21
I5
tp2534
atp2535
a(S'temperature'
p2536
F3.139486047039442
(lp2537
(I29
I8
tp2538
a(I30
I10
tp2539
a(I34
I16
tp2540
atp2541
a(S'implication'
p2542
F3.139477214608412
(lp2543
(I10
I6
tp2544
a(I11
I9
tp2545
a(I12
I9
tp2546
a(I14
I12
tp2547
a(I15
I14
tp2548
a(I25
I17
tp2549
a(I26
I5
tp2550
atp2551
a(S'happy'
p2552
F3.138583096411231
(lp2553
(I14
I29
tp2554
atp2555
a(S'happy x'
p2556
F3.138583096411231
(lp2557
(I14
I13
tp2558
atp2559
a(S'john calling'
p2560
F3.1186569787728993
(lp2561
(I28
I13
tp2562
atp2563
a(S'john'
p2564
F3.1186569787728993
(lp2565
(I12
I7
tp2566
a(I17
I13
tp2567
a(I18
I7
tp2568
a(I28
I39
tp2569
a(I30
I13
tp2570
a(I38
I7
tp2571
a(I39
I22
tp2572
atp2573
a(S'gas in engine'
p2574
F3.1145004214553187
(lp2575
(I24
I7
tp2576
atp2577
a(S'engine'
p2578
F3.1145004214553187
(lp2579
(I24
I14
tp2580
atp2581
a(S'particular state'
p2582
F3.111254195581046
(lp2583
(I16
I5
tp2584
atp2585
a(S'medium height'
p2586
F3.110680737129168
(lp2587
(I29
I12
tp2588
atp2589
a(S'height'
p2590
F3.110680737129168
(lp2591
(I18
I12
tp2592
a(I19
I6
tp2593
a(I29
I32
tp2594
a(I30
I6
tp2595
atp2596
a(S'script'
p2597
F3.107751232477532
(lp2598
(I39
I17
tp2599
atp2600
a(S'resolve'
p2601
F3.1057323704276443
(lp2602
(I14
I23
tp2603
atp2604
a(S'resolvent'
p2605
F3.1057323704276443
(lp2606
(I11
I6
tp2607
a(I14
I9
tp2608
atp2609
a(S'inductive bias'
p2610
F3.1014351572562915
(lp2611
(I31
I6
tp2612
atp2613
a(S'inductive inference'
p2614
F3.1014351572562915
(lp2615
(I31
I13
tp2616
atp2617
a(S'building'
p2618
F3.095759035792114
(lp2619
(I0
I8
tp2620
atp2621
a(S'process'
p2622
F3.0778836787503887
(lp2623
(I2
I5
tp2624
a(I24
I5
tp2625
a(I27
I5
tp2626
a(I35
I7
tp2627
atp2628
a(S'processing'
p2629
F3.0778836787503887
(lp2630
(I35
I10
tp2631
a(I38
I17
tp2632
atp2633
a(S'next step'
p2634
F3.0453105593712975
(lp2635
(I14
I6
tp2636
atp2637
a(S'strong fever'
p2638
F3.0395458738617047
(lp2639
(I29
I19
tp2640
atp2641
a(S'imprecise'
p2642
F3.038221735347765
(lp2643
(I29
I11
tp2644
atp2645
a(S'mary ate spaghetti'
p2646
F3.0316534486153373
(lp2647
(I39
I6
tp2648
atp2649
a(S'mary ate'
p2650
F3.0316534486153373
(lp2651
(I39
I6
tp2652
atp2653
a(S'hierarchy'
p2654
F3.026062991768623
(lp2655
(I17
I13
tp2656
atp2657
a(S'evaluation function'
p2658
F3.012508256868129
(lp2659
(I6
I7
tp2660
a(I7
I7
tp2661
atp2662
a(S'static evaluation function'
p2663
F3.012508256868129
(lp2664
(I6
I5
tp2665
atp2666
a(S'percept'
p2667
F2.997356030511076
(lp2668
(I1
I21
tp2669
atp2670
a(S'percept sequence'
p2671
F2.997356030511076
(lp2672
(I1
I7
tp2673
atp2674
a(S'issue'
p2675
F2.989110358940532
(lp2676
(I27
I8
tp2677
a(I39
I6
tp2678
atp2679
a(S'behavior'
p2680
F2.984045656231667
(lp2681
(I0
I15
tp2682
a(I1
I12
tp2683
a(I10
I10
tp2684
atp2685
a(S'back propagation'
p2686
F2.9820829175355157
(lp2687
(I36
I18
tp2688
atp2689
a(S'propagation'
p2690
F2.9820829175355157
(lp2691
(I8
I9
tp2692
a(I9
I14
tp2693
a(I36
I18
tp2694
atp2695
a(S'canary'
p2696
F2.9705153862797595
(lp2697
(I17
I27
tp2698
atp2699
a(S'canary can'
p2700
F2.9705153862797595
(lp2701
(I17
I7
tp2702
atp2703
a(S'objective'
p2704
F2.963059909562967
(lp2705
(I2
I13
tp2706
a(I8
I5
tp2707
a(I11
I6
tp2708
a(I20
I9
tp2709
a(I21
I7
tp2710
a(I32
I9
tp2711
atp2712
a(S'program'
p2713
F2.958485540031609
(lp2714
(I0
I8
tp2715
a(I1
I7
tp2716
a(I31
I7
tp2717
a(I38
I7
tp2718
atp2719
a(S'antecedent part'
p2720
F2.9572466037819303
(lp2721
(I15
I9
tp2722
atp2723
a(S'antecedent'
p2724
F2.9572466037819303
(lp2725
(I15
I22
tp2726
a(I26
I9
tp2727
a(I30
I9
tp2728
atp2729
a(S'role'
p2730
F2.9301836199500677
(lp2731
(I10
I6
tp2732
a(I39
I7
tp2733
atp2734
a(S'strategy'
p2735
F2.9226860693208137
(lp2736
(I2
I7
tp2737
a(I3
I13
tp2738
a(I7
I8
tp2739
a(I15
I10
tp2740
a(I16
I17
tp2741
atp2742
a(S'resolution strategy'
p2743
F2.9226860693208137
(lp2744
(I15
I6
tp2745
a(I16
I8
tp2746
atp2747
a(S'application'
p2748
F2.8952343888454117
(lp2749
(I24
I5
tp2750
a(I38
I6
tp2751
atp2752
a(S'cause'
p2753
F2.8816681144734932
(lp2754
(I28
I13
tp2755
atp2756
a(S'preference bias'
p2757
F2.8775006549402127
(lp2758
(I32
I7
tp2759
atp2760
a(S'bias'
p2761
F2.8775006549402127
(lp2762
(I31
I13
tp2763
a(I32
I20
tp2764
atp2765
a(S'salmon'
p2766
F2.8731040160219283
(lp2767
(I17
I23
tp2768
atp2769
a(S'optimum'
p2770
F2.8683528321146246
(lp2771
(I3
I7
tp2772
a(I4
I27
tp2773
atp2774
a(S'image'
p2775
F2.862563879029792
(lp2776
(I0
I5
tp2777
a(I32
I19
tp2778
atp2779
a(S'solution extraction'
p2780
F2.8597797377183998
(lp2781
(I23
I9
tp2782
atp2783
a(S'space complexity'
p2784
F2.8578372866138544
(lp2785
(I4
I5
tp2786
atp2787
a(S'csp'
p2788
F2.853502058191258
(lp2789
(I8
I13
tp2790
atp2791
a(S'version'
p2792
F2.848816189984484
(lp2793
(I32
I26
tp2794
atp2795
a(S'child'
p2796
F2.8397050630389984
(lp2797
(I6
I5
tp2798
a(I7
I31
tp2799
a(I10
I7
tp2800
a(I17
I5
tp2801
a(I27
I6
tp2802
a(I39
I6
tp2803
atp2804
a(S'consequent'
p2805
F2.8392669533388144
(lp2806
(I15
I15
tp2807
atp2808
a(S'consequent part'
p2809
F2.8392669533388144
(lp2810
(I15
I7
tp2811
atp2812
a(S'memory'
p2813
F2.8340222979508716
(lp2814
(I5
I13
tp2815
a(I16
I23
tp2816
a(I24
I15
tp2817
atp2818
a(S'term memory'
p2819
F2.8340222979508716
(lp2820
(I16
I6
tp2821
atp2822
a(S'working memory'
p2823
F2.8340222979508716
(lp2824
(I16
I17
tp2825
a(I24
I15
tp2826
atp2827
a(S'representation'
p2828
F2.8285162991078394
(lp2829
(I2
I9
tp2830
a(I3
I13
tp2831
a(I10
I12
tp2832
a(I11
I5
tp2833
a(I15
I10
tp2834
a(I17
I14
tp2835
a(I18
I7
tp2836
a(I19
I12
tp2837
a(I20
I7
tp2838
atp2839
a(S'tumor by plus'
p2840
F2.8213459246927735
(lp2841
(I37
I7
tp2842
atp2843
a(S'tumor'
p2844
F2.8213459246927735
(lp2845
(I31
I12
tp2846
a(I37
I55
tp2847
atp2848
a(S'malignant tumor'
p2849
F2.8213459246927735
(lp2850
(I37
I12
tp2851
atp2852
a(S'p tumor'
p2853
F2.8213459246927735
(lp2854
(I37
I8
tp2855
atp2856
a(S'combination'
p2857
F2.8210993976238363
(lp2858
(I26
I6
tp2859
atp2860
a(S'leaf'
p2861
F2.821004371391646
(lp2862
(I3
I7
tp2863
a(I6
I12
tp2864
a(I7
I9
tp2865
a(I33
I25
tp2866
atp2867
a(S'xi'
p2868
F2.8164738056830076
(lp2869
(I8
I26
tp2870
a(I35
I15
tp2871
atp2872
a(S'learner'
p2873
F2.8121605614044136
(lp2874
(I31
I18
tp2875
a(I37
I5
tp2876
atp2877
a(S'perfect square'
p2878
F2.7978458473099757
(lp2879
(I13
I38
tp2880
atp2881
a(S'perfect square x'
p2882
F2.7978458473099757
(lp2883
(I13
I9
tp2884
atp2885
a(S'subsumption architecture'
p2886
F2.7919895105005113
(lp2887
(I1
I5
tp2888
atp2889
a(S'architecture'
p2890
F2.7919895105005113
(lp2891
(I1
I10
tp2892
a(I2
I5
tp2893
atp2894
a(S'backward'
p2895
F2.791628973141899
(lp2896
(I6
I7
tp2897
a(I16
I10
tp2898
a(I20
I7
tp2899
a(I23
I7
tp2900
a(I24
I15
tp2901
atp2902
a(S'queen'
p2903
F2.7848889813833675
(lp2904
(I2
I29
tp2905
a(I8
I31
tp2906
atp2907
a(S'substitution'
p2908
F2.776989511079379
(lp2909
(I13
I20
tp2910
a(I14
I10
tp2911
atp2912
a(S'maintenance'
p2913
F2.771425731828252
(lp2914
(I23
I37
tp2915
atp2916
a(S'hierarchical network'
p2917
F2.7714089003541678
(lp2918
(I17
I5
tp2919
atp2920
a(S'simple'
p2921
F2.767363625883079
(lp2922
(I1
I14
tp2923
atp2924
a(S'query'
p2925
F2.764562253652379
(lp2926
(I18
I10
tp2927
a(I28
I6
tp2928
a(I38
I8
tp2929
a(I39
I9
tp2930
atp2931
a(S'prime y'
p2932
F2.764232591780175
(lp2933
(I13
I13
tp2934
atp2935
a(S'prime p'
p2936
F2.764232591780175
(lp2937
(I13
I13
tp2938
atp2939
a(S'sen prime'
p2940
F2.764232591780175
(lp2941
(I13
I8
tp2942
atp2943
a(S'prime number'
p2944
F2.764232591780175
(lp2945
(I13
I10
tp2946
atp2947
a(S'prime'
p2948
F2.764232591780175
(lp2949
(I13
I68
tp2950
atp2951
a(S'arc consistency'
p2952
F2.760229380628664
(lp2953
(I9
I6
tp2954
atp2955
a(S'arc'
p2956
F2.760229380628664
(lp2957
(I9
I13
tp2958
a(I18
I5
tp2959
atp2960
a(S'organism'
p2961
F2.7541328285068465
(lp2962
(I24
I10
tp2963
a(I25
I10
tp2964
a(I26
I12
tp2965
atp2966
a(S'sequence'
p2967
F2.7294009742977288
(lp2968
(I1
I10
tp2969
a(I2
I16
tp2970
a(I20
I16
tp2971
a(I21
I5
tp2972
atp2973
a(S'relation'
p2974
F2.7279625504148317
(lp2975
(I30
I26
tp2976
atp2977
a(S'sort'
p2978
F2.7248119160898034
(lp2979
(I12
I5
tp2980
a(I15
I6
tp2981
a(I16
I7
tp2982
a(I24
I11
tp2983
a(I25
I10
tp2984
a(I29
I7
tp2985
a(I33
I6
tp2986
a(I38
I9
tp2987
a(I39
I7
tp2988
atp2989
a(S'user interface'
p2990
F2.716232207523609
(lp2991
(I24
I5
tp2992
atp2993
a(S'user'
p2994
F2.716232207523609
(lp2995
(I24
I14
tp2996
atp2997
a(S'drink'
p2998
F2.7126728782352436
(lp2999
(I12
I30
tp3000
atp3001
a(S'drink milk'
p3002
F2.7126728782352436
(lp3003
(I12
I15
tp3004
atp3005
a(S'square'
p3006
F2.7011027182739515
(lp3007
(I9
I6
tp3008
a(I13
I63
tp3009
a(I30
I11
tp3010
a(I35
I9
tp3011
a(I36
I6
tp3012
atp3013
a(S'square p'
p3014
F2.7011027182739515
(lp3015
(I13
I5
tp3016
atp3017
a(S'square x'
p3018
F2.7011027182739515
(lp3019
(I13
I9
tp3020
atp3021
a(S'square of p'
p3022
F2.7011027182739515
(lp3023
(I13
I7
tp3024
atp3025
a(S'question'
p3026
F2.6923424347717666
(lp3027
(I0
I8
tp3028
a(I1
I7
tp3029
a(I5
I12
tp3030
a(I7
I5
tp3031
a(I14
I7
tp3032
a(I18
I5
tp3033
a(I19
I8
tp3034
a(I38
I5
tp3035
a(I39
I5
tp3036
atp3037
a(S'structure'
p3038
F2.680627745958465
(lp3039
(I3
I6
tp3040
a(I17
I10
tp3041
a(I18
I5
tp3042
a(I22
I5
tp3043
a(I24
I8
tp3044
a(I35
I6
tp3045
a(I38
I8
tp3046
a(I39
I11
tp3047
atp3048
a(S'causality'
p3049
F2.6742960278122427
(lp3050
(I27
I5
tp3051
atp3052
a(S'ai by vj'
p3053
F2.658730948117082
(lp3054
(I37
I10
tp3055
atp3056
a(S'vj'
p3057
F2.658730948117082
(lp3058
(I33
I6
tp3059
a(I37
I26
tp3060
atp3061
a(S'p vj'
p3062
F2.658730948117082
(lp3063
(I37
I6
tp3064
atp3065
a(S'gradient'
p3066
F2.6584228043082816
(lp3067
(I35
I24
tp3068
atp3069
a(S'gradient descent'
p3070
F2.6584228043082816
(lp3071
(I35
I16
tp3072
a(I36
I15
tp3073
atp3074
a(S'pruning'
p3075
F2.6534656930925284
(lp3076
(I7
I31
tp3077
a(I34
I43
tp3078
atp3079
a(S'priori'
p3080
F2.6495651011841885
(lp3081
(I27
I23
tp3082
a(I28
I22
tp3083
atp3084
a(S'priori p'
p3085
F2.6495651011841885
(lp3086
(I27
I5
tp3087
atp3088
a(S'hill'
p3089
F2.638256849716395
(lp3090
(I5
I14
tp3091
atp3092
a(S'hill climbing'
p3093
F2.638256849716395
(lp3094
(I5
I12
tp3095
atp3096
a(S'causal'
p3097
F2.6263940114048885
(lp3098
(I21
I9
tp3099
a(I22
I29
tp3100
a(I28
I12
tp3101
atp3102
a(S'sprinkler'
p3103
F2.606344512334834
(lp3104
(I16
I11
tp3105
a(I26
I12
tp3106
atp3107
a(S'co agent'
p3108
F2.5891335407175338
(lp3109
(I39
I7
tp3110
atp3111
a(S'class room'
p3112
F2.5757914642070463
(lp3113
(I9
I6
tp3114
atp3115
a(S'hidden'
p3116
F2.572624255739381
(lp3117
(I36
I34
tp3118
atp3119
a(S'neuron'
p3120
F2.57211324494874
(lp3121
(I35
I5
tp3122
atp3123
a(S'decision surface'
p3124
F2.5524551715877957
(lp3125
(I36
I8
tp3126
atp3127
a(S'dog ate'
p3128
F2.5524544847933943
(lp3129
(I38
I5
tp3130
atp3131
a(S'money'
p3132
F2.544348730369363
(lp3133
(I38
I7
tp3134
a(I39
I12
tp3135
atp3136
a(S'city'
p3137
F2.5407606764881923
(lp3138
(I3
I12
tp3139
a(I16
I9
tp3140
atp3141
a(S'power'
p3142
F2.5309734863428384
(lp3143
(I3
I10
tp3144
a(I4
I14
tp3145
a(I6
I16
tp3146
a(I7
I13
tp3147
a(I12
I5
tp3148
a(I30
I13
tp3149
a(I36
I13
tp3150
atp3151
a(S'ex minus'
p3152
F2.5247993031266516
(lp3153
(I28
I16
tp3154
atp3155
a(S'ex plus'
p3156
F2.5247993031266516
(lp3157
(I28
I17
tp3158
atp3159
a(S'p ex'
p3160
F2.5247993031266516
(lp3161
(I28
I5
tp3162
atp3163
a(S'ex'
p3164
F2.5247993031266516
(lp3165
(I28
I33
tp3166
atp3167
a(S'cross'
p3168
F2.5234407756670403
(lp3169
(I2
I8
tp3170
atp3171
a(S'size'
p3172
F2.5203658422518678
(lp3173
(I3
I5
tp3174
a(I32
I5
tp3175
a(I34
I12
tp3176
atp3177
a(S'rain today'
p3178
F2.512932512249769
(lp3179
(I15
I7
tp3180
atp3181
a(S'descent'
p3182
F2.5094487590091163
(lp3183
(I35
I20
tp3184
a(I36
I15
tp3185
atp3186
a(S'backward chaining'
p3187
F2.49714549925221
(lp3188
(I16
I10
tp3189
atp3190
a(S'knowledge rich'
p3191
F2.4884617775879176
(lp3192
(I1
I5
tp3193
atp3194
a(S'first order'
p3195
F2.4852951233070772
(lp3196
(I20
I10
tp3197
atp3198
a(S'someone'
p3199
F2.4741370498993374
(lp3200
(I14
I24
tp3201
a(I25
I12
tp3202
atp3203
a(S'description'
p3204
F2.4738126963882783
(lp3205
(I2
I5
tp3206
a(I19
I9
tp3207
a(I20
I18
tp3208
a(I21
I8
tp3209
a(I31
I8
tp3210
a(I32
I5
tp3211
atp3212
a(S'recognize'
p3213
F2.4655172221402775
(lp3214
(I0
I10
tp3215
atp3216
a(S'table'
p3217
F2.464461671310192
(lp3218
(I1
I13
tp3219
a(I21
I20
tp3220
a(I22
I23
tp3221
a(I29
I6
tp3222
a(I30
I7
tp3223
atp3224
a(S'experience'
p3225
F2.43630760808895
(lp3226
(I31
I14
tp3227
atp3228
a(S'win'
p3229
F2.426718990537571
(lp3230
(I6
I11
tp3231
a(I7
I5
tp3232
atp3233
a(S'surface'
p3234
F2.4227185347687556
(lp3235
(I35
I10
tp3236
a(I36
I14
tp3237
atp3238
a(S'natural number'
p3239
F2.4224116341646638
(lp3240
(I12
I16
tp3241
atp3242
a(S'evaluation'
p3243
F2.399977461918348
(lp3244
(I6
I14
tp3245
a(I7
I12
tp3246
atp3247
a(S'static evaluation'
p3248
F2.399977461918348
(lp3249
(I6
I6
tp3250
a(I7
I6
tp3251
atp3252
a(S'present'
p3253
F2.3939181993231555
(lp3254
(I23
I34
tp3255
atp3256
a(S'parent'
p3257
F2.3912426768030732
(lp3258
(I3
I6
tp3259
a(I4
I5
tp3260
a(I17
I7
tp3261
a(I28
I8
tp3262
atp3263
a(S'satisfyability problem'
p3264
F2.3882739534973707
(lp3265
(I8
I5
tp3266
atp3267
a(S'wake up mohan'
p3268
F2.383673090646946
(lp3269
(I25
I10
tp3270
atp3271
a(S'wake'
p3272
F2.383673090646946
(lp3273
(I25
I18
tp3274
atp3275
a(S'target value'
p3276
F2.3786322438024308
(lp3277
(I36
I7
tp3278
atp3279
a(S'eeta'
p3280
F2.376408704113204
(lp3281
(I35
I16
tp3282
atp3283
a(S'syntax'
p3284
F2.3696898579582357
(lp3285
(I10
I12
tp3286
a(I38
I11
tp3287
atp3288
a(S'new instance'
p3289
F2.364924655027148
(lp3290
(I37
I5
tp3291
atp3292
a(S'baby'
p3293
F2.364302652452254
(lp3294
(I39
I14
tp3295
atp3296
a(S'check'
p3297
F2.3594985552201804
(lp3298
(I9
I21
tp3299
a(I16
I6
tp3300
atp3301
a(S'forward checking'
p3302
F2.3594985552201804
(lp3303
(I9
I17
tp3304
atp3305
a(S'school'
p3306
F2.35414269669192
(lp3307
(I38
I10
tp3308
atp3309
a(S'agenda'
p3310
F2.33984318828724
(lp3311
(I22
I20
tp3312
atp3313
a(S'global minimum'
p3314
F2.339351403098637
(lp3315
(I5
I5
tp3316
atp3317
a(S'color of skin'
p3318
F2.3376347939634723
(lp3319
(I19
I7
tp3320
atp3321
a(S'learn'
p3322
F2.3290783938665824
(lp3323
(I36
I10
tp3324
atp3325
a(S'pet bird'
p3326
F2.3215219024442026
(lp3327
(I18
I6
tp3328
atp3329
a(S'default'
p3330
F2.3165047087258834
(lp3331
(I18
I17
tp3332
a(I19
I8
tp3333
a(I27
I10
tp3334
atp3335
a(S'perform'
p3336
F2.3097816284585355
(lp3337
(I35
I7
tp3338
atp3339
a(S'del wi'
p3340
F2.3092035761747303
(lp3341
(I36
I12
tp3342
atp3343
a(S'noise'
p3344
F2.2946670068831283
(lp3345
(I34
I12
tp3346
a(I39
I6
tp3347
atp3348
a(S'time complexity'
p3349
F2.2938384246421633
(lp3350
(I5
I6
tp3351
atp3352
a(S'complexity'
p3353
F2.2938384246421633
(lp3354
(I3
I7
tp3355
a(I4
I8
tp3356
a(I5
I14
tp3357
atp3358
a(S'scenario'
p3359
F2.2937141273096677
(lp3360
(I15
I5
tp3361
a(I16
I7
tp3362
a(I25
I6
tp3363
a(I28
I9
tp3364
a(I39
I7
tp3365
atp3366
a(S'regress'
p3367
F2.2871160100282646
(lp3368
(I21
I5
tp3369
atp3370
a(S'regression'
p3371
F2.2871160100282646
(lp3372
(I21
I11
tp3373
atp3374
a(S'element'
p3375
F2.2849826970245704
(lp3376
(I12
I6
tp3377
a(I29
I14
tp3378
a(I30
I5
tp3379
atp3380
a(S'match'
p3381
F2.2820158370775454
(lp3382
(I15
I15
tp3383
a(I16
I8
tp3384
a(I24
I12
tp3385
atp3386
a(S'earthquake'
p3387
F2.279609251078862
(lp3388
(I28
I25
tp3389
atp3390
a(S'empty'
p3391
F2.2788205885630757
(lp3392
(I5
I16
tp3393
a(I21
I12
tp3394
a(I33
I5
tp3395
atp3396
a(S'b power'
p3397
F2.2752001356726312
(lp3398
(I3
I9
tp3399
a(I4
I12
tp3400
a(I6
I12
tp3401
a(I7
I13
tp3402
atp3403
a(S'power d'
p3404
F2.2752001356726312
(lp3405
(I3
I9
tp3406
a(I4
I13
tp3407
a(I6
I9
tp3408
a(I7
I12
tp3409
atp3410
a(S'minus o'
p3411
F2.27350705260893
(lp3412
(I35
I9
tp3413
atp3414
a(S'apple'
p3415
F2.2720460434989858
(lp3416
(I31
I18
tp3417
atp3418
a(S'vision'
p3419
F2.269966656633749
(lp3420
(I0
I7
tp3421
atp3422
a(S'conclusion'
p3423
F2.2530310321969567
(lp3424
(I14
I6
tp3425
a(I24
I6
tp3426
atp3427
a(S'default reasoning'
p3428
F2.2479543129237665
(lp3429
(I27
I5
tp3430
atp3431
a(S'impreciseness'
p3432
F2.2473725312428017
(lp3433
(I25
I5
tp3434
atp3435
a(S'tau'
p3436
F2.2438374069999463
(lp3437
(I36
I10
tp3438
atp3439
a(S'ball'
p3440
F2.242493692515435
(lp3441
(I5
I7
tp3442
a(I19
I8
tp3443
a(I27
I13
tp3444
a(I39
I7
tp3445
atp3446
a(S'hypothesis h'
p3447
F2.2293094788613566
(lp3448
(I25
I6
tp3449
atp3450
a(S'equal bc'
p3451
F2.228675141280309
(lp3452
(I11
I15
tp3453
a(I14
I14
tp3454
atp3455
a(S'animal'
p3456
F2.222133866672288
(lp3457
(I18
I12
tp3458
atp3459
a(S'garbage'
p3460
F2.216373624910542
(lp3461
(I23
I31
tp3462
atp3463
a(S'generate'
p3464
F2.2120367664314236
(lp3465
(I4
I18
tp3466
a(I6
I7
tp3467
atp3468
a(S'dog x'
p3469
F2.210465483479655
(lp3470
(I13
I11
tp3471
atp3472
a(S'x dog'
p3473
F2.210465483479655
(lp3474
(I13
I9
tp3475
atp3476
a(S'unsafe'
p3477
F2.207538926774185
(lp3478
(I22
I25
tp3479
atp3480
a(S'ringing'
p3481
F2.2044832151246436
(lp3482
(I28
I8
tp3483
atp3484
a(S'fever'
p3485
F2.203267758709802
(lp3486
(I27
I18
tp3487
a(I28
I17
tp3488
atp3489
a(S'conflict resolution'
p3490
F2.2012027164237447
(lp3491
(I15
I15
tp3492
a(I16
I9
tp3493
atp3494
a(S'conflict'
p3495
F2.2012027164237447
(lp3496
(I9
I7
tp3497
a(I15
I19
tp3498
a(I16
I14
tp3499
atp3500
a(S'hindi'
p3501
F2.2009333886678935
(lp3502
(I38
I13
tp3503
a(I39
I12
tp3504
atp3505
a(S'light bulb'
p3506
F2.1962995755479295
(lp3507
(I39
I19
tp3508
atp3509
a(S'puzzle problem'
p3510
F2.193870385077856
(lp3511
(I2
I5
tp3512
atp3513
a(S'puzzle'
p3514
F2.193870385077856
(lp3515
(I2
I14
tp3516
a(I4
I7
tp3517
a(I5
I10
tp3518
atp3519
a(S'person'
p3520
F2.1875557142864275
(lp3521
(I13
I7
tp3522
a(I17
I21
tp3523
a(I29
I8
tp3524
a(I38
I5
tp3525
atp3526
a(S'positive region'
p3527
F2.1864910010955834
(lp3528
(I36
I5
tp3529
atp3530
a(S'interface'
p3531
F2.181831402065981
(lp3532
(I24
I9
tp3533
atp3534
a(S'heuristic measure'
p3535
F2.180547488824324
(lp3536
(I16
I6
tp3537
atp3538
a(S'p ai'
p3539
F2.176274218049004
(lp3540
(I37
I14
tp3541
atp3542
a(S'compound'
p3543
F2.1697482899779867
(lp3544
(I10
I17
tp3545
atp3546
a(S'act'
p3547
F2.1642288293836427
(lp3548
(I0
I7
tp3549
a(I1
I9
tp3550
atp3551
a(S'grow'
p3552
F2.163955360666084
(lp3553
(I34
I17
tp3554
atp3555
a(S'maximum'
p3556
F2.1633636871931277
(lp3557
(I33
I5
tp3558
a(I37
I16
tp3559
atp3560
a(S'universal elimination'
p3561
F2.161060636426883
(lp3562
(I13
I5
tp3563
atp3564
a(S'universal'
p3565
F2.161060636426883
(lp3566
(I12
I8
tp3567
a(I13
I17
tp3568
a(I14
I7
tp3569
atp3570
a(S'control'
p3571
F2.160682800128483
(lp3572
(I30
I7
tp3573
atp3574
a(S'expertise'
p3575
F2.1426009540696285
(lp3576
(I16
I6
tp3577
a(I24
I8
tp3578
atp3579
a(S'vector'
p3580
F2.1424197595969368
(lp3581
(I35
I12
tp3582
a(I36
I6
tp3583
atp3584
a(S'minus sigma'
p3585
F2.1353591921949255
(lp3586
(I35
I5
tp3587
atp3588
a(S'sigma wixi'
p3589
F2.1353591921949255
(lp3590
(I35
I7
tp3591
atp3592
a(S'mew'
p3593
F2.1319701138600853
(lp3594
(I30
I10
tp3595
atp3596
a(S'angle'
p3597
F2.131483528134881
(lp3598
(I30
I13
tp3599
atp3600
a(S'spirit'
p3601
F2.1263775894582597
(lp3602
(I0
I7
tp3603
a(I2
I5
tp3604
atp3605
a(S'phase'
p3606
F2.124398814407851
(lp3607
(I15
I15
tp3608
a(I16
I9
tp3609
a(I23
I9
tp3610
a(I24
I8
tp3611
atp3612
a(S'measure of disbelief'
p3613
F2.1056880225303254
(lp3614
(I25
I9
tp3615
atp3616
a(S'disbelief'
p3617
F2.1056880225303254
(lp3618
(I25
I12
tp3619
atp3620
a(S'infer'
p3621
F2.104563062979386
(lp3622
(I26
I7
tp3623
atp3624
a(S'consistency'
p3625
F2.091016580989208
(lp3626
(I9
I11
tp3627
atp3628
a(S'second queen'
p3629
F2.0887030202415775
(lp3630
(I8
I6
tp3631
atp3632
a(S'third queen'
p3633
F2.0887030202415775
(lp3634
(I8
I6
tp3635
atp3636
a(S'first queen'
p3637
F2.0887030202415775
(lp3638
(I8
I9
tp3639
atp3640
a(S'interrogator'
p3641
F2.0866795566552887
(lp3642
(I0
I11
tp3643
atp3644
a(S'testing'
p3645
F2.0859178261457867
(lp3646
(I32
I11
tp3647
a(I34
I5
tp3648
atp3649
a(S'equality operator'
p3650
F2.073141757124019
(lp3651
(I13
I5
tp3652
atp3653
a(S'unification'
p3654
F2.072140540375416
(lp3655
(I14
I8
tp3656
atp3657
a(S'preference'
p3658
F2.0719193760661074
(lp3659
(I32
I8
tp3660
atp3661
a(S'uncertain'
p3662
F2.0705046870019954
(lp3663
(I25
I6
tp3664
a(I27
I7
tp3665
atp3666
a(S'control scheme'
p3667
F2.066244497745874
(lp3668
(I15
I5
tp3669
atp3670
a(S'patient'
p3671
F2.0640772360317863
(lp3672
(I31
I5
tp3673
a(I37
I15
tp3674
atp3675
a(S'height of john'
p3676
F2.06187302084937
(lp3677
(I18
I5
tp3678
atp3679
a(S'dinner'
p3680
F2.0586850598566033
(lp3681
(I23
I30
tp3682
atp3683
a(S'region'
p3684
F2.0571229984638535
(lp3685
(I3
I10
tp3686
a(I31
I10
tp3687
a(I36
I15
tp3688
atp3689
a(S'distance'
p3690
F2.0561387265988675
(lp3691
(I3
I8
tp3692
a(I4
I13
tp3693
a(I30
I9
tp3694
atp3695
a(S'board'
p3696
F2.0549610181284588
(lp3697
(I2
I12
tp3698
a(I5
I5
tp3699
a(I6
I8
tp3700
a(I32
I10
tp3701
atp3702
a(S'field'
p3703
F2.0523041856898923
(lp3704
(I0
I6
tp3705
atp3706
a(S'verb phrase'
p3707
F2.0494336697224314
(lp3708
(I38
I5
tp3709
atp3710
a(S'medium'
p3711
F2.046956952000811
(lp3712
(I29
I21
tp3713
a(I30
I20
tp3714
atp3715
a(S'target concept'
p3716
F2.0424536254117704
(lp3717
(I31
I7
tp3718
a(I32
I12
tp3719
atp3720
a(S'carry'
p3721
F2.0410648529193063
(lp3722
(I23
I26
tp3723
atp3724
a(S'pixel'
p3725
F2.0390804165846665
(lp3726
(I32
I5
tp3727
atp3728
a(S'time slot'
p3729
F2.0377189658749013
(lp3730
(I9
I7
tp3731
atp3732
a(S'equality'
p3733
F2.0320656139191833
(lp3734
(I13
I11
tp3735
atp3736
a(S'del od'
p3737
F2.027001828266442
(lp3738
(I36
I5
tp3739
atp3740
a(S'td minus od'
p3741
F2.027001828266442
(lp3742
(I35
I8
tp3743
a(I36
I10
tp3744
atp3745
a(S'minus od'
p3746
F2.027001828266442
(lp3747
(I35
I9
tp3748
a(I36
I14
tp3749
atp3750
a(S'od by del'
p3751
F2.027001828266442
(lp3752
(I36
I5
tp3753
atp3754
a(S'od'
p3755
F2.027001828266442
(lp3756
(I35
I12
tp3757
a(I36
I29
tp3758
atp3759
a(S'backtracking'
p3760
F2.0259491032392516
(lp3761
(I8
I9
tp3762
a(I9
I19
tp3763
a(I15
I6
tp3764
a(I16
I7
tp3765
atp3766
a(S'belonging'
p3767
F2.0244910885167227
(lp3768
(I29
I15
tp3769
atp3770
a(S'list'
p3771
F2.0162150725183876
(lp3772
(I3
I5
tp3773
a(I4
I8
tp3774
a(I6
I5
tp3775
a(I8
I5
tp3776
a(I18
I6
tp3777
a(I20
I21
tp3778
a(I22
I8
tp3779
a(I32
I8
tp3780
atp3781
a(S'delete list'
p3782
F2.0162150725183876
(lp3783
(I20
I7
tp3784
atp3785
a(S'add list'
p3786
F2.0162150725183876
(lp3787
(I20
I5
tp3788
atp3789
a(S'map'
p3790
F2.015792870509639
(lp3791
(I3
I18
tp3792
a(I8
I5
tp3793
atp3794
a(S'deal'
p3795
F2.0152930844132935
(lp3796
(I1
I5
tp3797
a(I25
I7
tp3798
atp3799
a(S'mortal x'
p3800
F2.0142131537791825
(lp3801
(I12
I5
tp3802
atp3803
a(S'paradigm'
p3804
F2.009398873075065
(lp3805
(I35
I8
tp3806
atp3807
a(S'opportunity'
p3808
F2.007654515455915
(lp3809
(I0
I6
tp3810
atp3811
a(S'ostrich'
p3812
F2.0068691165361163
(lp3813
(I17
I16
tp3814
a(I18
I21
tp3815
atp3816
a(S'raw'
p3817
F1.999117939032156
(lp3818
(I32
I12
tp3819
atp3820
a(S'true error'
p3821
F1.9974635242243273
(lp3822
(I33
I7
tp3823
atp3824
a(S'chronological backtracking'
p3825
F1.9911189156738769
(lp3826
(I9
I6
tp3827
atp3828
a(S'morgan'
p3829
F1.985949330082216
(lp3830
(I11
I8
tp3831
atp3832
a(S'de morgan'
p3833
F1.985949330082216
(lp3834
(I11
I8
tp3835
atp3836
a(S'execution'
p3837
F1.9832699588626914
(lp3838
(I15
I5
tp3839
atp3840
a(S'power minus'
p3841
F1.9824331963438127
(lp3842
(I36
I5
tp3843
atp3844
a(S'e power'
p3845
F1.9824331963438127
(lp3846
(I36
I6
tp3847
atp3848
a(S'f limit'
p3849
F1.9784386050828426
(lp3850
(I4
I7
tp3851
a(I5
I9
tp3852
atp3853
a(S'limit'
p3854
F1.9784386050828426
(lp3855
(I3
I16
tp3856
a(I5
I18
tp3857
atp3858
a(S'progression'
p3859
F1.9763742153377
(lp3860
(I21
I11
tp3861
atp3862
a(S'elimination'
p3863
F1.9696453541350163
(lp3864
(I13
I13
tp3865
atp3866
a(S'ap and ac'
p3867
F1.9636456385849388
(lp3868
(I22
I5
tp3869
atp3870
a(S'q for ac'
p3871
F1.9636456385849388
(lp3872
(I22
I5
tp3873
atp3874
a(S'ac'
p3875
F1.9636456385849388
(lp3876
(I9
I13
tp3877
a(I11
I13
tp3878
a(I21
I13
tp3879
a(I22
I25
tp3880
atp3881
a(S'anil'
p3882
F1.9608408941075601
(lp3883
(I10
I40
tp3884
atp3885
a(S'convert'
p3886
F1.958723913220489
(lp3887
(I11
I13
tp3888
a(I13
I5
tp3889
atp3890
a(S'wet road today'
p3891
F1.9542483816828424
(lp3892
(I15
I11
tp3893
atp3894
a(S'road today'
p3895
F1.9542483816828424
(lp3896
(I15
I11
tp3897
atp3898
a(S'wet road'
p3899
F1.9542483816828424
(lp3900
(I15
I11
tp3901
atp3902
a(S'road'
p3903
F1.9542483816828424
(lp3904
(I10
I6
tp3905
a(I15
I14
tp3906
atp3907
a(S'slope'
p3908
F1.9533003643804951
(lp3909
(I35
I9
tp3910
a(I36
I10
tp3911
atp3912
a(S'neighbor'
p3913
F1.9475537562075829
(lp3914
(I5
I8
tp3915
a(I9
I7
tp3916
atp3917
a(S'modus'
p3918
F1.945123090668221
(lp3919
(I11
I13
tp3920
a(I12
I12
tp3921
atp3922
a(S'milk'
p3923
F1.932799621929853
(lp3924
(I12
I40
tp3925
a(I19
I10
tp3926
atp3927
a(S'rover'
p3928
F1.9283263123798204
(lp3929
(I0
I5
tp3930
a(I2
I7
tp3931
atp3932
a(S'choice'
p3933
F1.9268910258551224
(lp3934
(I6
I5
tp3935
a(I8
I6
tp3936
a(I9
I10
tp3937
atp3938
a(S'small shift'
p3939
F1.9182673058683188
(lp3940
(I30
I6
tp3941
atp3942
a(S'shift'
p3943
F1.9182673058683188
(lp3944
(I30
I7
tp3945
atp3946
a(S'branch'
p3947
F1.91795776138445
(lp3948
(I33
I13
tp3949
atp3950
a(S'owner'
p3951
F1.9135496423327996
(lp3952
(I19
I15
tp3953
atp3954
a(S'angry today'
p3955
F1.9079846093200472
(lp3956
(I39
I5
tp3957
atp3958
a(S'shell'
p3959
F1.90703958355643
(lp3960
(I24
I10
tp3961
atp3962
a(S'analysis'
p3963
F1.9066924467987998
(lp3964
(I38
I8
tp3965
atp3966
a(S'abc'
p3967
F1.8942014431117462
(lp3968
(I11
I28
tp3969
a(I14
I21
tp3970
a(I15
I7
tp3971
atp3972
a(S'equilateral abc'
p3973
F1.8942014431117462
(lp3974
(I11
I10
tp3975
a(I14
I9
tp3976
atp3977
a(S'last night'
p3978
F1.892614372997346
(lp3979
(I26
I7
tp3980
atp3981
a(S'positive medium'
p3982
F1.8916504783750994
(lp3983
(I30
I12
tp3984
atp3985
a(S'root'
p3986
F1.8894129620708564
(lp3987
(I4
I6
tp3988
a(I6
I11
tp3989
a(I7
I10
tp3990
a(I33
I11
tp3991
atp3992
a(S'thresholding'
p3993
F1.885529192906441
(lp3994
(I35
I11
tp3995
atp3996
a(S'threshold'
p3997
F1.885529192906441
(lp3998
(I35
I15
tp3999
a(I36
I8
tp4000
atp4001
a(S'interpreter'
p4002
F1.8820049249463855
(lp4003
(I15
I11
tp4004
atp4005
a(S'horn'
p4006
F1.8819916596960087
(lp4007
(I13
I19
tp4008
a(I15
I11
tp4009
atp4010
a(S'estimate'
p4011
F1.8778580930747935
(lp4012
(I4
I8
tp4013
a(I6
I10
tp4014
atp4015
a(S'hand'
p4016
F1.8771927470045164
(lp4017
(I15
I6
tp4018
a(I19
I7
tp4019
a(I20
I8
tp4020
a(I21
I10
tp4021
a(I31
I6
tp4022
atp4023
a(S'cj'
p4024
F1.873574125716586
(lp4025
(I37
I32
tp4026
atp4027
a(S'p cj'
p4028
F1.873574125716586
(lp4029
(I37
I12
tp4030
atp4031
a(S'room'
p4032
F1.8732600533986412
(lp4033
(I0
I10
tp4034
a(I9
I7
tp4035
a(I14
I20
tp4036
atp4037
a(S'formalism'
p4038
F1.8610529403833915
(lp4039
(I20
I9
tp4040
atp4041
a(S'parsing'
p4042
F1.8607058666712897
(lp4043
(I38
I11
tp4044
atp4045
a(S'parse'
p4046
F1.8607058666712897
(lp4047
(I38
I8
tp4048
atp4049
a(S'model'
p4050
F1.8606477035177749
(lp4051
(I2
I9
tp4052
a(I31
I5
tp4053
a(I35
I5
tp4054
atp4055
a(S'gui'
p4056
F1.8599979092747088
(lp4057
(I24
I6
tp4058
atp4059
a(S'ticket'
p4060
F1.8594173341307725
(lp4061
(I39
I10
tp4062
atp4063
a(S'sum'
p4064
F1.8589677393775297
(lp4065
(I6
I8
tp4066
a(I35
I10
tp4067
a(I37
I5
tp4068
atp4069
a(S'mu'
p4070
F1.8541545203678482
(lp4071
(I29
I9
tp4072
atp4073
a(S'quiet'
p4074
F1.8541522309077352
(lp4075
(I23
I38
tp4076
atp4077
a(S'horn clause'
p4078
F1.844776010411306
(lp4079
(I15
I8
tp4080
atp4081
a(S'tiger'
p4082
F1.8355275259161075
(lp4083
(I17
I7
tp4084
a(I31
I11
tp4085
atp4086
a(S'aadd'
p4087
F1.8349947233131312
(lp4088
(I22
I19
tp4089
atp4090
a(S'consistent'
p4091
F1.83382029971981
(lp4092
(I21
I6
tp4093
a(I31
I11
tp4094
a(I32
I15
tp4095
atp4096
a(S'design'
p4097
F1.8259031836088666
(lp4098
(I1
I7
tp4099
atp4100
a(S'mammal'
p4101
F1.8228310749259635
(lp4102
(I17
I14
tp4103
atp4104
a(S'satisfy'
p4105
F1.822497227154798
(lp4106
(I21
I5
tp4107
atp4108
a(S'round'
p4109
F1.8051179691999968
(lp4110
(I27
I10
tp4111
a(I31
I10
tp4112
atp4113
a(S'express'
p4114
F1.8045431504894385
(lp4115
(I12
I5
tp4116
a(I13
I9
tp4117
atp4118
a(S'situation calculus'
p4119
F1.8041726804674605
(lp4120
(I20
I5
tp4121
atp4122
a(S'sen'
p4123
F1.8006464066167873
(lp4124
(I13
I28
tp4125
atp4126
a(S'care'
p4127
F1.7972029772618634
(lp4128
(I34
I5
tp4129
atp4130
a(S'phrase'
p4131
F1.7956076041930409
(lp4132
(I38
I20
tp4133
atp4134
a(S'malnutrition'
p4135
F1.7925118023298916
(lp4136
(I28
I9
tp4137
atp4138
a(S'gallon'
p4139
F1.7895407634574005
(lp4140
(I5
I18
tp4141
atp4142
a(S'gallon jug'
p4143
F1.7895407634574005
(lp4144
(I3
I5
tp4145
a(I5
I9
tp4146
atp4147
a(S'opponent'
p4148
F1.7775301744373788
(lp4149
(I6
I14
tp4150
atp4151
a(S'fuzzification'
p4152
F1.776267600661594
(lp4153
(I30
I10
tp4154
atp4155
a(S'cycle'
p4156
F1.771683073565649
(lp4157
(I15
I7
tp4158
a(I24
I7
tp4159
atp4160
a(S'match phase'
p4161
F1.7708132552346085
(lp4162
(I15
I8
tp4163
a(I16
I5
tp4164
atp4165
a(S'priority queue'
p4166
F1.7646911287113562
(lp4167
(I4
I8
tp4168
atp4169
a(S'priority'
p4170
F1.7646911287113562
(lp4171
(I4
I13
tp4172
atp4173
a(S'ostrich can'
p4174
F1.762498963084668
(lp4175
(I17
I6
tp4176
atp4177
a(S'symbol'
p4178
F1.7584738109155835
(lp4179
(I38
I6
tp4180
atp4181
a(S'simpler'
p4182
F1.7550108808899751
(lp4183
(I32
I9
tp4184
atp4185
a(S'target'
p4186
F1.7493958987897882
(lp4187
(I33
I12
tp4188
a(I35
I10
tp4189
atp4190
a(S'taste'
p4191
F1.7447130857304116
(lp4192
(I33
I13
tp4193
atp4194
a(S'order b'
p4195
F1.7417901649600211
(lp4196
(I7
I9
tp4197
atp4198
a(S'block'
p4199
F1.7416521009600272
(lp4200
(I20
I5
tp4201
atp4202
a(S'birthday'
p4203
F1.7369360303982702
(lp4204
(I13
I11
tp4205
atp4206
a(S'disjunction'
p4207
F1.7350807906087247
(lp4208
(I11
I8
tp4209
atp4210
a(S'head'
p4211
F1.7290476825589778
(lp4212
(I17
I6
tp4213
a(I18
I11
tp4214
atp4215
a(S'branching factor'
p4216
F1.7256210701028243
(lp4217
(I3
I5
tp4218
a(I6
I7
tp4219
a(I7
I5
tp4220
a(I21
I5
tp4221
a(I23
I6
tp4222
atp4223
a(S'posteriori'
p4224
F1.723295203870304
(lp4225
(I28
I6
tp4226
atp4227
a(S'blood'
p4228
F1.7221548730396403
(lp4229
(I27
I5
tp4230
atp4231
a(S'retrieval'
p4232
F1.719120068193055
(lp4233
(I38
I10
tp4234
atp4235
a(S'content'
p4236
F1.719032857438644
(lp4237
(I33
I15
tp4238
atp4239
a(S'gas in tank'
p4240
F1.7164621698200784
(lp4241
(I24
I5
tp4242
atp4243
a(S'gas in carburetor'
p4244
F1.7164621698200784
(lp4245
(I24
I5
tp4246
atp4247
a(S'gas'
p4248
F1.7164621698200784
(lp4249
(I24
I20
tp4250
atp4251
a(S'work'
p4252
F1.7128908587594078
(lp4253
(I35
I5
tp4254
atp4255
a(S'heater'
p4256
F1.7124411690640367
(lp4257
(I15
I9
tp4258
atp4259
a(S'operation'
p4260
F1.7114899973040152
(lp4261
(I11
I5
tp4262
atp4263
a(S'complex'
p4264
F1.7041739834913625
(lp4265
(I1
I6
tp4266
atp4267
a(S'starter'
p4268
F1.6923207391680948
(lp4269
(I24
I6
tp4270
atp4271
a(S'deductive reasoning'
p4272
F1.6916101483744699
(lp4273
(I25
I6
tp4274
atp4275
a(S'naive'
p4276
F1.6871436344816155
(lp4277
(I37
I9
tp4278
atp4279
a(S'tail'
p4280
F1.6868243133086342
(lp4281
(I18
I11
tp4282
a(I19
I10
tp4283
atp4284
a(S'xj'
p4285
F1.6854736078063288
(lp4286
(I8
I12
tp4287
atp4288
a(S'understand'
p4289
F1.6834891121858422
(lp4290
(I31
I6
tp4291
atp4292
a(S'ap'
p4293
F1.6701960170459134
(lp4294
(I21
I12
tp4295
a(I22
I24
tp4296
atp4297
a(S'battery'
p4298
F1.6635905794882717
(lp4299
(I24
I5
tp4300
atp4301
a(S'explanation'
p4302
F1.6552570710763077
(lp4303
(I24
I9
tp4304
atp4305
a(S'broke'
p4306
F1.6549782128199353
(lp4307
(I39
I13
tp4308
atp4309
a(S'equal ab ac'
p4310
F1.6539136653340516
(lp4311
(I11
I8
tp4312
a(I14
I14
tp4313
atp4314
a(S'parenthesis'
p4315
F1.650819697162095
(lp4316
(I10
I7
tp4317
a(I13
I5
tp4318
atp4319
a(S'stone'
p4320
F1.643303430582952
(lp4321
(I6
I6
tp4322
atp4323
a(S'queue'
p4324
F1.6402389631947316
(lp4325
(I3
I6
tp4326
a(I4
I11
tp4327
a(I9
I8
tp4328
atp4329
a(S'marcus'
p4330
F1.640113944890814
(lp4331
(I17
I18
tp4332
a(I18
I10
tp4333
atp4334
a(S'expression'
p4335
F1.6352525981160393
(lp4336
(I37
I8
tp4337
atp4338
a(S'last class'
p4339
F1.6247376464606949
(lp4340
(I3
I5
tp4341
atp4342
a(S'help'
p4343
F1.6237054469263423
(lp4344
(I10
I7
tp4345
atp4346
a(S'move c'
p4347
F1.6214535531738057
(lp4348
(I21
I9
tp4349
a(I22
I5
tp4350
atp4351
a(S'correct'
p4352
F1.6141963463127533
(lp4353
(I13
I5
tp4354
a(I31
I5
tp4355
atp4356
a(S'till'
p4357
F1.61388317695463
(lp4358
(I16
I5
tp4359
atp4360
a(S'reach'
p4361
F1.6116603769606805
(lp4362
(I2
I11
tp4363
atp4364
a(S'water'
p4365
F1.610150813167016
(lp4366
(I2
I6
tp4367
a(I5
I5
tp4368
atp4369
a(S'feel'
p4370
F1.5999299944008816
(lp4371
(I39
I6
tp4372
atp4373
a(S'subset'
p4374
F1.59610485174868
(lp4375
(I23
I8
tp4376
a(I33
I7
tp4377
atp4378
a(S'jug'
p4379
F1.5947817205800732
(lp4380
(I5
I15
tp4381
atp4382
a(S'validation'
p4383
F1.5938669881179512
(lp4384
(I32
I11
tp4385
a(I34
I16
tp4386
atp4387
a(S'module'
p4388
F1.5904540832891154
(lp4389
(I2
I7
tp4390
atp4391
a(S'malaria'
p4392
F1.5875160223159734
(lp4393
(I27
I21
tp4394
atp4395
a(S'fitting'
p4396
F1.585136020830448
(lp4397
(I34
I21
tp4398
a(I36
I5
tp4399
atp4400
a(S'book'
p4401
F1.5850552686976145
(lp4402
(I17
I20
tp4403
a(I38
I5
tp4404
atp4405
a(S'scope'
p4406
F1.5850536695192021
(lp4407
(I14
I10
tp4408
atp4409
a(S'straight line'
p4410
F1.5847878768375443
(lp4411
(I35
I5
tp4412
atp4413
a(S'line'
p4414
F1.5847878768375443
(lp4415
(I30
I7
tp4416
a(I35
I8
tp4417
atp4418
a(S'achieve'
p4419
F1.5815208956099487
(lp4420
(I20
I10
tp4421
atp4422
a(S'ft'
p4423
F1.5809335127461188
(lp4424
(I29
I26
tp4425
a(I31
I5
tp4426
atp4427
a(S'access'
p4428
F1.5758937442708056
(lp4429
(I1
I5
tp4430
atp4431
a(S'zero sum'
p4432
F1.5718275279193121
(lp4433
(I6
I7
tp4434
atp4435
a(S'rita'
p4436
F1.5672877293919023
(lp4437
(I18
I8
tp4438
atp4439
a(S'grammar'
p4440
F1.5656420997074294
(lp4441
(I38
I5
tp4442
a(I39
I6
tp4443
atp4444
a(S'choice point'
p4445
F1.5611853465925019
(lp4446
(I9
I8
tp4447
atp4448
a(S'pi'
p4449
F1.5470617757363478
(lp4450
(I23
I17
tp4451
a(I33
I6
tp4452
atp4453
a(S'sample space'
p4454
F1.5464665841836074
(lp4455
(I27
I6
tp4456
atp4457
a(S'calculus'
p4458
F1.5460209425577967
(lp4459
(I20
I9
tp4460
atp4461
a(S'car'
p4462
F1.539935936166398
(lp4463
(I24
I7
tp4464
a(I26
I6
tp4465
atp4466
a(S'majority'
p4467
F1.536445742099097
(lp4468
(I33
I8
tp4469
atp4470
a(S'deliberation'
p4471
F1.5350956637724376
(lp4472
(I1
I5
tp4473
atp4474
a(S'probabilistic learning'
p4475
F1.5328569337248168
(lp4476
(I37
I5
tp4477
atp4478
a(S'na ve'
p4479
F1.5267275779620606
(lp4480
(I37
I8
tp4481
atp4482
a(S'edge'
p4483
F1.5233687351295262
(lp4484
(I6
I5
tp4485
atp4486
a(S'td minus'
p4487
F1.5190002429345721
(lp4488
(I35
I11
tp4489
a(I36
I10
tp4490
atp4491
a(S'wrap'
p4492
F1.512111821961828
(lp4493
(I23
I24
tp4494
atp4495
a(S'phenomenon'
p4496
F1.511662220502286
(lp4497
(I34
I5
tp4498
atp4499
a(S'path length'
p4500
F1.5073723280612872
(lp4501
(I18
I5
tp4502
atp4503
a(S'teacher'
p4504
F1.5052425112773182
(lp4505
(I9
I6
tp4506
a(I19
I5
tp4507
atp4508
a(S'intersection'
p4509
F1.500670690039252
(lp4510
(I30
I9
tp4511
atp4512
a(S'location'
p4513
F1.4958211135422546
(lp4514
(I2
I5
tp4515
atp4516
a(S'tomorrow'
p4517
F1.4944037754920818
(lp4518
(I25
I8
tp4519
atp4520
a(S'executing'
p4521
F1.47569684121293
(lp4522
(I20
I7
tp4523
atp4524
a(S'execute'
p4525
F1.47569684121293
(lp4526
(I20
I10
tp4527
atp4528
a(S'result of executing'
p4529
F1.47569684121293
(lp4530
(I20
I5
tp4531
atp4532
a(S'wet'
p4533
F1.4734498582233306
(lp4534
(I26
I11
tp4535
atp4536
a(S'bulb'
p4537
F1.4728504631904844
(lp4538
(I39
I20
tp4539
atp4540
a(S'package'
p4541
F1.468851019824811
(lp4542
(I14
I13
tp4543
atp4544
a(S'package b'
p4545
F1.468851019824811
(lp4546
(I14
I5
tp4547
atp4548
a(S'md'
p4549
F1.4629935859436025
(lp4550
(I25
I12
tp4551
a(I26
I5
tp4552
atp4553
a(S'md h'
p4554
F1.4629935859436025
(lp4555
(I25
I8
tp4556
atp4557
a(S'score'
p4558
F1.4602924404882298
(lp4559
(I7
I8
tp4560
a(I17
I7
tp4561
a(I33
I5
tp4562
atp4563
a(S'derive'
p4564
F1.458306754364708
(lp4565
(I31
I5
tp4566
atp4567
a(S'inconsistent'
p4568
F1.4524553757086625
(lp4569
(I23
I10
tp4570
atp4571
a(S'td'
p4572
F1.4505465991858828
(lp4573
(I36
I12
tp4574
atp4575
a(S'pink'
p4576
F1.449806979206437
(lp4577
(I36
I6
tp4578
atp4579
a(S'del netd'
p4580
F1.4483966593394664
(lp4581
(I36
I5
tp4582
atp4583
a(S'walk'
p4584
F1.4427521669390142
(lp4585
(I18
I5
tp4586
atp4587
a(S'travel'
p4588
F1.4370061333393052
(lp4589
(I15
I5
tp4590
atp4591
a(S'hi'
p4592
F1.4338937913214536
(lp4593
(I28
I9
tp4594
a(I33
I6
tp4595
a(I37
I7
tp4596
atp4597
a(S'grass'
p4598
F1.4338824855349612
(lp4599
(I26
I12
tp4600
atp4601
a(S'recommendation'
p4602
F1.4269877843148886
(lp4603
(I24
I5
tp4604
atp4605
a(S'somebody'
p4606
F1.42006691985687
(lp4607
(I28
I7
tp4608
a(I29
I5
tp4609
atp4610
a(S'gita'
p4611
F1.4186140031605818
(lp4612
(I10
I11
tp4613
atp4614
a(S'software'
p4615
F1.416886836988791
(lp4616
(I1
I7
tp4617
atp4618
a(S'decision machine'
p4619
F1.414333410567913
(lp4620
(I11
I5
tp4621
atp4622
a(S'job'
p4623
F1.41153954748362
(lp4624
(I8
I5
tp4625
atp4626
a(S'pick up b'
p4627
F1.4103917312497058
(lp4628
(I20
I7
tp4629
atp4630
a(S'scooter'
p4631
F1.4073198939542966
(lp4632
(I19
I8
tp4633
atp4634
a(S'blank'
p4635
F1.405807043920539
(lp4636
(I2
I12
tp4637
atp4638
a(S'telescope'
p4639
F1.4033482456323556
(lp4640
(I0
I7
tp4641
a(I38
I13
tp4642
atp4643
a(S'hubble telescope'
p4644
F1.4033482456323556
(lp4645
(I0
I5
tp4646
atp4647
a(S'improvement'
p4648
F1.4025028053753985
(lp4649
(I34
I8
tp4650
atp4651
a(S'reinforcement'
p4652
F1.4024052853270899
(lp4653
(I31
I6
tp4654
atp4655
a(S'fold cross'
p4656
F1.3970458120303064
(lp4657
(I32
I7
tp4658
atp4659
a(S'fold cross validation'
p4660
F1.3970458120303064
(lp4661
(I32
I7
tp4662
atp4663
a(S'cross validation'
p4664
F1.3970458120303064
(lp4665
(I32
I11
tp4666
atp4667
a(S'season'
p4668
F1.39570657696036
(lp4669
(I15
I8
tp4670
a(I33
I7
tp4671
atp4672
a(S'salesperson'
p4673
F1.3954088603820374
(lp4674
(I3
I7
tp4675
atp4676
a(S'traveling salesperson'
p4677
F1.3954088603820374
(lp4678
(I3
I6
tp4679
atp4680
a(S'momentum term'
p4681
F1.3933569188344412
(lp4682
(I36
I5
tp4683
atp4684
a(S'momentum'
p4685
F1.3933569188344412
(lp4686
(I36
I7
tp4687
atp4688
a(S'database'
p4689
F1.3932907732157447
(lp4690
(I16
I5
tp4691
a(I31
I5
tp4692
atp4693
a(S'diagram'
p4694
F1.3926216986182722
(lp4695
(I7
I5
tp4696
atp4697
a(S'ludo'
p4698
F1.3873591858715266
(lp4699
(I32
I5
tp4700
atp4701
a(S'make'
p4702
F1.3856452900911909
(lp4703
(I11
I18
tp4704
a(I39
I13
tp4705
atp4706
a(S'construct'
p4707
F1.3800043870080945
(lp4708
(I33
I10
tp4709
atp4710
a(S'return'
p4711
F1.3676807567796132
(lp4712
(I2
I6
tp4713
a(I12
I5
tp4714
a(I22
I10
tp4715
a(I33
I5
tp4716
atp4717
a(S'replace'
p4718
F1.3673295178681024
(lp4719
(I13
I5
tp4720
atp4721
a(S'conjunction'
p4722
F1.366750675585764
(lp4723
(I13
I5
tp4724
a(I14
I5
tp4725
a(I20
I8
tp4726
a(I21
I7
tp4727
atp4728
a(S'th'
p4729
F1.3643884354711062
(lp4730
(I8
I5
tp4731
atp4732
a(S'iodine'
p4733
F1.3634691106682366
(lp4734
(I28
I9
tp4735
atp4736
a(S'lack of iodine'
p4737
F1.3634691106682366
(lp4738
(I28
I9
tp4739
atp4740
a(S'frontier'
p4741
F1.362253725342943
(lp4742
(I4
I7
tp4743
atp4744
a(S'vk'
p4745
F1.3610544027468547
(lp4746
(I9
I11
tp4747
atp4748
a(S'dead end'
p4749
F1.3602116467797556
(lp4750
(I16
I6
tp4751
atp4752
a(S'planet'
p4753
F1.3596388750091846
(lp4754
(I12
I10
tp4755
atp4756
a(S'madonna'
p4757
F1.3585038045306583
(lp4758
(I17
I14
tp4759
atp4760
a(S'rodney'
p4761
F1.3554565371139025
(lp4762
(I1
I6
tp4763
atp4764
a(S'africa'
p4765
F1.3533857753852536
(lp4766
(I18
I9
tp4767
atp4768
a(S'technique'
p4769
F1.3512906555169026
(lp4770
(I11
I5
tp4771
atp4772
a(S'backrest'
p4773
F1.3470001919765533
(lp4774
(I33
I8
tp4775
atp4776
a(S'describe'
p4777
F1.3457737584151506
(lp4778
(I2
I5
tp4779
atp4780
a(S'refutation'
p4781
F1.3422441916199452
(lp4782
(I14
I6
tp4783
atp4784
a(S'extraction'
p4785
F1.3412557285636408
(lp4786
(I23
I10
tp4787
atp4788
a(S'goiter'
p4789
F1.340777740310433
(lp4790
(I28
I9
tp4791
atp4792
a(S'summation'
p4793
F1.338158508078498
(lp4794
(I35
I8
tp4795
a(I36
I7
tp4796
atp4797
a(S'subject'
p4798
F1.3351056369074823
(lp4799
(I38
I5
tp4800
a(I39
I6
tp4801
atp4802
a(S'smoky'
p4803
F1.3340810189287065
(lp4804
(I15
I10
tp4805
atp4806
a(S'expansion'
p4807
F1.3337592931931086
(lp4808
(I4
I10
tp4809
a(I5
I5
tp4810
a(I23
I7
tp4811
atp4812
a(S'speak'
p4813
F1.332878636479374
(lp4814
(I38
I5
tp4815
atp4816
a(S'loan'
p4817
F1.3294425402753123
(lp4818
(I33
I7
tp4819
atp4820
a(S'facility'
p4821
F1.3294063927363453
(lp4822
(I24
I5
tp4823
atp4824
a(S'sinf'
p4825
F1.3253145300714664
(lp4826
(I22
I11
tp4827
atp4828
a(S'function f'
p4829
F1.3244208057864264
(lp4830
(I31
I7
tp4831
atp4832
a(S'si'
p4833
F1.3235672431143914
(lp4834
(I22
I8
tp4835
atp4836
a(S'lab test'
p4837
F1.3204058952696887
(lp4838
(I37
I13
tp4839
atp4840
a(S'lab'
p4841
F1.3204058952696887
(lp4842
(I37
I14
tp4843
atp4844
a(S'right sock'
p4845
F1.31920677584091
(lp4846
(I21
I5
tp4847
a(I22
I8
tp4848
atp4849
a(S'sock'
p4850
F1.31920677584091
(lp4851
(I21
I9
tp4852
a(I22
I16
tp4853
atp4854
a(S'distribution'
p4855
F1.3084587208853211
(lp4856
(I33
I5
tp4857
atp4858
a(S'document'
p4859
F1.3083350654445431
(lp4860
(I37
I5
tp4861
atp4862
a(S'date'
p4863
F1.3079839376838738
(lp4864
(I13
I6
tp4865
atp4866
a(S'track'
p4867
F1.3077862572346493
(lp4868
(I3
I8
tp4869
a(I5
I6
tp4870
atp4871
a(S'umbrella'
p4872
F1.3054203565467972
(lp4873
(I11
I11
tp4874
atp4875
a(S'worse'
p4876
F1.3052865505368696
(lp4877
(I5
I7
tp4878
atp4879
a(S'abductive reasoning'
p4880
F1.3050013741275133
(lp4881
(I25
I5
tp4882
atp4883
a(S'norwich'
p4884
F1.3017505922470063
(lp4885
(I17
I12
tp4886
atp4887
a(S'switch'
p4888
F1.3017306472583319
(lp4889
(I16
I5
tp4890
atp4891
a(S'upper bound'
p4892
F1.300854111202471
(lp4893
(I7
I5
tp4894
atp4895
a(S'bound'
p4896
F1.300854111202471
(lp4897
(I7
I11
tp4898
atp4899
a(S'utmost'
p4900
F1.3006720146468198
(lp4901
(I5
I5
tp4902
atp4903
a(S'multilayer'
p4904
F1.2987371785596578
(lp4905
(I35
I5
tp4906
a(I36
I5
tp4907
atp4908
a(S'mother'
p4909
F1.297866705982782
(lp4910
(I13
I5
tp4911
atp4912
a(S'donald'
p4913
F1.297067019564142
(lp4914
(I39
I7
tp4915
atp4916
a(S'pick up x'
p4917
F1.2957882052664864
(lp4918
(I21
I6
tp4919
atp4920
a(S'pick'
p4921
F1.2957882052664864
(lp4922
(I21
I10
tp4923
atp4924
a(S'kind man'
p4925
F1.2877772930723594
(lp4926
(I39
I6
tp4927
atp4928
a(S'super ordinate'
p4929
F1.2849366366887858
(lp4930
(I17
I6
tp4931
atp4932
a(S'ancestor'
p4933
F1.280486461942643
(lp4934
(I7
I13
tp4935
atp4936
a(S'prior knowledge'
p4937
F1.2767341494904207
(lp4938
(I37
I5
tp4939
atp4940
a(S'efer slide'
p4941
F1.2762573030130095
(lp4942
(I8
I5
tp4943
atp4944
a(S'gain'
p4945
F1.272371733526919
(lp4946
(I6
I5
tp4947
a(I33
I15
tp4948
atp4949
a(S'hair color'
p4950
F1.2690613424583344
(lp4951
(I18
I8
tp4952
atp4953
a(S'sigmoid'
p4954
F1.2660463638269137
(lp4955
(I35
I18
tp4956
a(I36
I20
tp4957
atp4958
a(S'income'
p4959
F1.2648869618445144
(lp4960
(I33
I8
tp4961
atp4962
a(S'portion'
p4963
F1.2517769247047865
(lp4964
(I34
I5
tp4965
atp4966
a(S'split'
p4967
F1.2488700837234226
(lp4968
(I33
I8
tp4969
atp4970
a(S'clean'
p4971
F1.248103177680067
(lp4972
(I23
I20
tp4973
atp4974
a(S'hand empty'
p4975
F1.246500368929405
(lp4976
(I21
I7
tp4977
atp4978
a(S'hmap'
p4979
F1.244950126922408
(lp4980
(I37
I8
tp4981
atp4982
a(S'ke'
p4983
F1.2376309167453838
(lp4984
(I9
I10
tp4985
atp4986
a(S'barometer'
p4987
F1.2337979913431139
(lp4988
(I33
I7
tp4989
atp4990
a(S'tn'
p4991
F1.2321567159802842
(lp4992
(I9
I13
tp4993
atp4994
a(S'ap and tn'
p4995
F1.2321567159802842
(lp4996
(I9
I5
tp4997
atp4998
a(S'meter'
p4999
F1.229419375830624
(lp5000
(I29
I6
tp5001
atp5002
a(S'streptococcus'
p5003
F1.2282806634983774
(lp5004
(I26
I8
tp5005
atp5006
a(S'reasoning'
p5007
F1.227103862812855
(lp5008
(I0
I13
tp5009
a(I12
I5
tp5010
a(I13
I7
tp5011
a(I16
I7
tp5012
a(I18
I13
tp5013
a(I25
I25
tp5014
a(I27
I36
tp5015
a(I28
I6
tp5016
atp5017
a(S'cook'
p5018
F1.2248530412118992
(lp5019
(I23
I19
tp5020
atp5021
a(S'impurity'
p5022
F1.2209483483162535
(lp5023
(I33
I6
tp5024
atp5025
a(S'sj'
p5026
F1.2187159720211604
(lp5027
(I22
I8
tp5028
atp5029
a(S'uniform'
p5030
F1.2050045985565103
(lp5031
(I4
I8
tp5032
a(I6
I7
tp5033
atp5034
a(S'subtree'
p5035
F1.20373454020838
(lp5036
(I33
I6
tp5037
atp5038
a(S'horizon'
p5039
F1.202994703849078
(lp5040
(I7
I5
tp5041
atp5042
a(S'weaker'
p5043
F1.1975730524024675
(lp5044
(I25
I5
tp5045
atp5046
a(S'mh'
p5047
F1.194437264637398
(lp5048
(I9
I7
tp5049
atp5050
a(S'tendulkar'
p5051
F1.1940315068392224
(lp5052
(I38
I5
tp5053
atp5054
a(S'direction'
p5055
F1.1925850258892634
(lp5056
(I4
I8
tp5057
a(I6
I5
tp5058
a(I35
I6
tp5059
atp5060
a(S'material'
p5061
F1.1922608871797409
(lp5062
(I33
I7
tp5063
atp5064
a(S'kn'
p5065
F1.1920507282860302
(lp5066
(I9
I11
tp5067
atp5068
a(S'backgammon'
p5069
F1.1913709042877119
(lp5070
(I6
I6
tp5071
atp5072
a(S'bus'
p5073
F1.1909873727283848
(lp5074
(I16
I6
tp5075
atp5076
a(S'contrary'
p5077
F1.1897585219828186
(lp5078
(I18
I7
tp5079
atp5080
a(S'loop'
p5081
F1.1847049586219818
(lp5082
(I5
I5
tp5083
atp5084
a(S'theory'
p5085
F1.1839867163251272
(lp5086
(I27
I6
tp5087
a(I29
I7
tp5088
atp5089
a(S'overfit'
p5090
F1.1820435535157654
(lp5091
(I34
I5
tp5092
atp5093
a(S'short circuit'
p5094
F1.1816997376911877
(lp5095
(I25
I6
tp5096
atp5097
a(S'triangle'
p5098
F1.1806097070137378
(lp5099
(I11
I8
tp5100
a(I14
I6
tp5101
atp5102
a(S'wixi'
p5103
F1.1804642898581017
(lp5104
(I35
I8
tp5105
atp5106
a(S'disjunct'
p5107
F1.180270084829362
(lp5108
(I14
I7
tp5109
atp5110
a(S'super'
p5111
F1.180175150133437
(lp5112
(I17
I10
tp5113
atp5114
a(S'sharp teeth'
p5115
F1.1791751485800992
(lp5116
(I26
I8
tp5117
atp5118
a(S'entertainment'
p5119
F1.1775746959178086
(lp5120
(I37
I6
tp5121
atp5122
a(S'diameter'
p5123
F1.1757309177761108
(lp5124
(I31
I10
tp5125
atp5126
a(S'food'
p5127
F1.1719207487290473
(lp5128
(I33
I10
tp5129
atp5130
a(S'history'
p5131
F1.164646635695028
(lp5132
(I0
I5
tp5133
a(I1
I5
tp5134
atp5135
a(S'notice'
p5136
F1.1636598504284419
(lp5137
(I3
I6
tp5138
atp5139
a(S'k fold'
p5140
F1.1620416488414311
(lp5141
(I32
I6
tp5142
atp5143
a(S'tic tac toe'
p5144
F1.1608726297299756
(lp5145
(I6
I8
tp5146
atp5147
a(S'di'
p5148
F1.1602892579989201
(lp5149
(I8
I7
tp5150
atp5151
a(S'spaghetti'
p5152
F1.1551081891378958
(lp5153
(I39
I12
tp5154
atp5155
a(S'ate spaghetti'
p5156
F1.1551081891378958
(lp5157
(I39
I8
tp5158
atp5159
a(S'axis'
p5160
F1.153965187109589
(lp5161
(I29
I6
tp5162
atp5163
a(S'sufficient condition'
p5164
F1.145486416694193
(lp5165
(I11
I5
tp5166
atp5167
a(S'sunset'
p5168
F1.1454754127245963
(lp5169
(I38
I5
tp5170
atp5171
a(S'teeth'
p5172
F1.1440034366258902
(lp5173
(I19
I8
tp5174
atp5175
a(S'nim'
p5176
F1.1330407798802817
(lp5177
(I7
I6
tp5178
atp5179
a(S'age'
p5180
F1.132555968462042
(lp5181
(I29
I5
tp5182
atp5183
a(S'skin'
p5184
F1.1307168965085173
(lp5185
(I17
I5
tp5186
a(I19
I8
tp5187
atp5188
a(S'maximin'
p5189
F1.1267833140822192
(lp5190
(I7
I6
tp5191
atp5192
a(S'parallel corpora'
p5193
F1.1250116436398625
(lp5194
(I39
I5
tp5195
atp5196
a(S'ab and ac'
p5197
F1.123594607425236
(lp5198
(I11
I5
tp5199
atp5200
a(S'predecessor'
p5201
F1.1129387459114035
(lp5202
(I13
I11
tp5203
atp5204
a(S'children'
p5205
F1.1110678104202703
(lp5206
(I28
I6
tp5207
atp5208
a(S'cdi'
p5209
F1.1063346089838637
(lp5210
(I8
I5
tp5211
atp5212
a(S'cake'
p5213
F1.1014087707262825
(lp5214
(I21
I5
tp5215
atp5216
a(S'chair'
p5217
F1.0987266640012425
(lp5218
(I17
I6
tp5219
a(I33
I5
tp5220
atp5221
a(S'cf'
p5222
F1.0885188901259881
(lp5223
(I26
I6
tp5224
atp5225
a(S'beggar'
p5226
F1.083169053737982
(lp5227
(I39
I7
tp5228
atp5229
a(S've'
p5230
F1.0811184221972394
(lp5231
(I37
I8
tp5232
atp5233
a(S'ram'
p5234
F1.0810957004711692
(lp5235
(I10
I10
tp5236
atp5237
a(S'park'
p5238
F1.0791612202462275
(lp5239
(I38
I7
tp5240
atp5241
a(S'sun'
p5242
F1.0737510792900244
(lp5243
(I33
I12
tp5244
atp5245
a(S'left sock'
p5246
F1.0736820937833205
(lp5247
(I22
I8
tp5248
atp5249
a(S'hold'
p5250
F1.0676845568037876
(lp5251
(I23
I12
tp5252
atp5253
a(S'vi'
p5254
F1.0628620345968343
(lp5255
(I9
I5
tp5256
atp5257
a(S'violation'
p5258
F1.0603983147329428
(lp5259
(I9
I5
tp5260
atp5261
a(S'life'
p5262
F1.0591521378237312
(lp5263
(I12
I9
tp5264
atp5265
a(S'pressure'
p5266
F1.0587181209470682
(lp5267
(I29
I5
tp5268
atp5269
a(S'jyoti sudhir'
p5270
F1.049070194557685
(lp5271
(I10
I6
tp5272
atp5273
a(S'sumit'
p5274
F1.0487272761640614
(lp5275
(I10
I5
tp5276
atp5277
a(S'bread'
p5278
F1.045136803973738
(lp5279
(I39
I5
tp5280
atp5281
a(S'sample'
p5282
F1.0436195672861244
(lp5283
(I33
I6
tp5284
atp5285
a(S'topology'
p5286
F1.0409465829493274
(lp5287
(I36
I5
tp5288
atp5289
a(S'sparrow'
p5290
F1.0402794195509397
(lp5291
(I18
I9
tp5292
atp5293
a(S'whole square'
p5294
F1.0402255414543276
(lp5295
(I35
I9
tp5296
atp5297
a(S'cg'
p5298
F1.0393182096793545
(lp5299
(I21
I5
tp5300
atp5301
a(S'pair'
p5302
F1.0391243178555098
(lp5303
(I5
I7
tp5304
atp5305
a(S'jill'
p5306
F1.038483470292389
(lp5307
(I12
I6
tp5308
atp5309
a(S'morphology'
p5310
F1.0383483528785584
(lp5311
(I26
I5
tp5312
atp5313
a(S'shoe'
p5314
F1.0372316015704013
(lp5315
(I21
I12
tp5316
a(I22
I16
tp5317
atp5318
a(S'right shoe'
p5319
F1.0372316015704013
(lp5320
(I21
I6
tp5321
a(I22
I8
tp5322
atp5323
a(S'left shoe'
p5324
F1.0372316015704013
(lp5325
(I21
I6
tp5326
a(I22
I8
tp5327
atp5328
a(S'perfect'
p5329
F1.0264867514464895
(lp5330
(I1
I6
tp5331
atp5332
a(S'post'
p5333
F1.0194022771906721
(lp5334
(I34
I6
tp5335
atp5336
a(S'restaurant'
p5337
F1.0188762445272599
(lp5338
(I39
I6
tp5339
atp5340
a(S'stem'
p5341
F1.01729990191412
(lp5342
(I31
I7
tp5343
atp5344
a(S'correct location'
p5345
F1.0168413920629207
(lp5346
(I4
I12
tp5347
atp5348
a(S'correct position'
p5349
F1.0168413920629207
(lp5350
(I4
I6
tp5351
atp5352
a(S'remainder'
p5353
F1.0158136474505624
(lp5354
(I33
I6
tp5355
atp5356
a(S'length'
p5357
F1.01436333235285
(lp5358
(I18
I5
tp5359
atp5360
a(S'formulae'
p5361
F1.0140782338124148
(lp5362
(I10
I6
tp5363
atp5364
a(S'relevant'
p5365
F1.0108944563859765
(lp5366
(I1
I5
tp5367
atp5368
a(S'left bank'
p5369
F1.0098212887121114
(lp5370
(I3
I9
tp5371
atp5372
a(S'right bank'
p5373
F1.0098212887121114
(lp5374
(I3
I5
tp5375
atp5376
a(S'union'
p5377
F1.0081767375167754
(lp5378
(I30
I5
tp5379
atp5380
a(S'locomotion'
p5381
F0.9979510585827178
(lp5382
(I18
I6
tp5383
atp5384
a(S'snow'
p5385
F0.9968856077286767
(lp5386
(I33
I6
tp5387
atp5388
a(S'woman'
p5389
F0.9951230729838468
(lp5390
(I17
I7
tp5391
atp5392
a(S'aside'
p5393
F0.993033924610521
(lp5394
(I32
I6
tp5395
atp5396
a(S'diligent'
p5397
F0.9869126188669411
(lp5398
(I10
I5
tp5399
atp5400
a(S'hot'
p5401
F0.9855445440208415
(lp5402
(I33
I13
tp5403
a(I39
I5
tp5404
atp5405
a(S'convex'
p5406
F0.985296255764721
(lp5407
(I36
I6
tp5408
atp5409
a(S'spaniard'
p5410
F0.9782239059464503
(lp5411
(I19
I6
tp5412
atp5413
a(S'dirty look'
p5414
F0.9779149452747629
(lp5415
(I39
I5
tp5416
atp5417
a(S'guarantee'
p5418
F0.9778597785304517
(lp5419
(I7
I6
tp5420
atp5421
a(S'wij'
p5422
F0.9778502257815929
(lp5423
(I36
I6
tp5424
atp5425
a(S'duality'
p5426
F0.9705506216682407
(lp5427
(I12
I5
tp5428
atp5429
a(S'circuit'
p5430
F0.9673860051289863
(lp5431
(I25
I6
tp5432
atp5433
a(S'mapping'
p5434
F0.9649145092255063
(lp5435
(I1
I12
tp5436
atp5437
a(S'ak'
p5438
F0.9635159341728797
(lp5439
(I33
I6
tp5440
atp5441
a(S'sunil'
p5442
F0.9631182956206167
(lp5443
(I10
I5
tp5444
atp5445
a(S'response'
p5446
F0.9590049613132459
(lp5447
(I1
I5
tp5448
atp5449
a(S'everyone'
p5450
F0.9571100244747431
(lp5451
(I13
I5
tp5452
atp5453
a(S'occurring'
p5454
F0.9542232687990856
(lp5455
(I27
I10
tp5456
atp5457
a(S'politician'
p5458
F0.9516493312661128
(lp5459
(I19
I5
tp5460
atp5461
a(S'inch'
p5462
F0.9473482561364547
(lp5463
(I31
I8
tp5464
atp5465
a(S'vm'
p5466
F0.94480180127359
(lp5467
(I9
I6
tp5468
atp5469
a(S'homework'
p5470
F0.9433952415539103
(lp5471
(I38
I6
tp5472
atp5473
a(S'explicit'
p5474
F0.9321704103485794
(lp5475
(I3
I5
tp5476
atp5477
a(S'pet'
p5478
F0.9296241737605367
(lp5479
(I18
I7
tp5480
atp5481
a(S'likelihood'
p5482
F0.9281957632459296
(lp5483
(I37
I7
tp5484
atp5485
a(S'coccus'
p5486
F0.9188777319067304
(lp5487
(I26
I5
tp5488
atp5489
a(S'complement'
p5490
F0.9186792075317556
(lp5491
(I30
I5
tp5492
atp5493
a(S'ate'
p5494
F0.9122744272052138
(lp5495
(I38
I7
tp5496
atp5497
a(S'shape'
p5498
F0.9059879164785402
(lp5499
(I31
I5
tp5500
atp5501
a(S'del'
p5502
F0.8979157875350021
(lp5503
(I35
I12
tp5504
atp5505
a(S'del e'
p5506
F0.8979157875350021
(lp5507
(I35
I6
tp5508
atp5509
a(S'holiday'
p5510
F0.8952231838422183
(lp5511
(I12
I6
tp5512
atp5513
a(S'pg'
p5514
F0.8913131222539663
(lp5515
(I23
I5
tp5516
atp5517
a(S'planner'
p5518
F0.8879684712601996
(lp5519
(I21
I5
tp5520
atp5521
a(S'label'
p5522
F0.885304734441206
(lp5523
(I34
I5
tp5524
atp5525
a(S'loser'
p5526
F0.8843685774243075
(lp5527
(I17
I8
tp5528
atp5529
a(S'chopstick'
p5530
F0.8754357427317371
(lp5531
(I39
I6
tp5532
atp5533
a(S'mixture'
p5534
F0.8671948596928469
(lp5535
(I33
I5
tp5536
atp5537
a(S'interference'
p5538
F0.8636684071662292
(lp5539
(I23
I5
tp5540
atp5541
a(S'finding'
p5542
F0.8615698359419559
(lp5543
(I21
I5
tp5544
atp5545
a(S'proportion'
p5546
F0.8571072185886922
(lp5547
(I33
I6
tp5548
atp5549
a(S'rain'
p5550
F0.8477234407422283
(lp5551
(I33
I7
tp5552
atp5553
a(S'gram'
p5554
F0.8429955134177785
(lp5555
(I26
I6
tp5556
atp5557
a(S'beginning'
p5558
F0.8427304070811498
(lp5559
(I3
I5
tp5560
atp5561
a(S'compliment'
p5562
F0.8373756577231409
(lp5563
(I30
I5
tp5564
atp5565
a(S'morning'
p5566
F0.8358365428114856
(lp5567
(I26
I5
tp5568
atp5569
a(S'semi'
p5570
F0.8329663933785532
(lp5571
(I33
I6
tp5572
atp5573
a(S'wind'
p5574
F0.8183584668507925
(lp5575
(I25
I5
tp5576
atp5577
a(S'circle'
p5578
F0.8051353601763248
(lp5579
(I31
I6
tp5580
atp5581
a(S'month'
p5582
F0.8016854377611753
(lp5583
(I11
I5
tp5584
atp5585
a(S'winner'
p5586
F0.7996163526294828
(lp5587
(I17
I10
tp5588
atp5589
a(S'ink'
p5590
F0.7970139147611641
(lp5591
(I19
I5
tp5592
atp5593
a(S'cmap'
p5594
F0.7730473594358173
(lp5595
(I37
I5
tp5596
atp5597
a(S'stack'
p5598
F0.7696042792802782
(lp5599
(I23
I5
tp5600
atp5601
a(S'arrangement'
p5602
F0.7646865177365632
(lp5603
(I2
I5
tp5604
atp5605
a(S'carburetor'
p5606
F0.7517475000869872
(lp5607
(I24
I5
tp5608
atp5609
a(S'plane'
p5610
F0.7326280634036487
(lp5611
(I20
I6
tp5612
atp5613
a(S'credit score'
p5614
F0.7241929426569861
(lp5615
(I33
I5
tp5616
atp5617
a(S'xn'
p5618
F0.7032345284952048
(lp5619
(I3
I5
tp5620
atp5621
a(S'knot'
p5622
F0.7024065695559389
(lp5623
(I2
I5
tp5624
atp5625
a(S'tall x'
p5626
F0.6940279525222576
(lp5627
(I13
I9
tp5628
atp5629
a(S'chaining'
p5630
F0.6885385804841467
(lp5631
(I25
I5
tp5632
atp5633
a(S'op'
p5634
F0.6825547638773567
(lp5635
(I23
I5
tp5636
atp5637
a(S'nursery'
p5638
F0.663801881996809
(lp5639
(I10
I5
tp5640
atp5641
a(S'health'
p5642
F0.5939628997756662
(lp5643
(I37
I5
tp5644
atp5645
a(S'turing test'
p5646
F0.571729003545548
(lp5647
(I0
I7
tp5648
atp5649
a(S'holdout'
p5650
I0
(lp5651
(I34
I10
tp5652
atp5653
a(S'ply'
p5654
I0
(lp5655
(I6
I7
tp5656
atp5657
a(S'p concat'
p5658
I0
(lp5659
(I4
I5
tp5660
atp5661
a(S'prior'
p5662
I0
(lp5663
(I37
I31
tp5664
atp5665
a(S'b c'
p5666
I0
(lp5667
(I3
I5
tp5668
a(I16
I7
tp5669
a(I21
I7
tp5670
a(I22
I8
tp5671
a(I27
I5
tp5672
atp5673
a(S'mohan'
p5674
I0
(lp5675
(I25
I26
tp5676
a(I27
I8
tp5677
atp5678
a(S'p and b'
p5679
I0
(lp5680
(I16
I7
tp5681
atp5682
a(S'beta cutoff'
p5683
I0
(lp5684
(I7
I6
tp5685
atp5686
a(S'b and c'
p5687
I0
(lp5688
(I3
I5
tp5689
a(I14
I5
tp5690
a(I16
I8
tp5691
atp5692
a(S'went'
p5693
I0
(lp5694
(I38
I12
tp5695
a(I39
I13
tp5696
atp5697
a(S'kharagpur'
p5698
I0
(lp5699
(I21
I10
tp5700
atp5701
a(S'smiling x'
p5702
I0
(lp5703
(I14
I11
tp5704
atp5705
a(S'concat e'
p5706
I0
(lp5707
(I4
I5
tp5708
atp5709
a(S'die'
p5710
I0
(lp5711
(I32
I6
tp5712
atp5713
a(S'smiling w'
p5714
I0
(lp5715
(I14
I8
tp5716
atp5717
a(S'turing'
p5718
I0
(lp5719
(I0
I12
tp5720
atp5721
a(S'cut'
p5722
I0
(lp5723
(I34
I8
tp5724
atp5725
a(S'white'
p5726
I0
(lp5727
(I32
I6
tp5728
atp5729
a(S'headache'
p5730
I0
(lp5731
(I16
I5
tp5732
atp5733
a(S'b'
p5734
I0
(lp5735
(I2
I14
tp5736
a(I3
I59
tp5737
a(I4
I24
tp5738
a(I5
I17
tp5739
a(I6
I48
tp5740
a(I7
I19
tp5741
a(I11
I17
tp5742
a(I15
I7
tp5743
a(I16
I47
tp5744
a(I20
I28
tp5745
a(I21
I74
tp5746
a(I22
I58
tp5747
a(I23
I12
tp5748
a(I24
I13
tp5749
a(I25
I15
tp5750
a(I26
I15
tp5751
a(I27
I67
tp5752
a(I28
I25
tp5753
a(I29
I6
tp5754
a(I30
I38
tp5755
a(I33
I11
tp5756
a(I34
I6
tp5757
a(I35
I20
tp5758
a(I37
I20
tp5759
atp5760
a(S'tommy'
p5761
I0
(lp5762
(I12
I17
tp5763
atp5764
a(S'backjumping'
p5765
I0
(lp5766
(I9
I11
tp5767
atp5768
a(S'sure'
p5769
I0
(lp5770
(I25
I13
tp5771
atp5772
a(S'branching'
p5773
I0
(lp5774
(I21
I6
tp5775
a(I23
I7
tp5776
atp5777
a(S'p b'
p5778
I0
(lp5779
(I27
I17
tp5780
a(I37
I11
tp5781
atp5782
a(S'de'
p5783
I0
(lp5784
(I11
I8
tp5785
atp5786
a(S'remove'
p5787
I0
(lp5788
(I8
I6
tp5789
atp5790
a(S'aneed'
p5791
I0
(lp5792
(I22
I15
tp5793
atp5794
a(S'inferencing'
p5795
I0
(lp5796
(I13
I7
tp5797
a(I14
I6
tp5798
a(I19
I7
tp5799
atp5800
a(S'graduating x'
p5801
I0
(lp5802
(I14
I13
tp5803
atp5804
a(S'tour'
p5805
I0
(lp5806
(I3
I6
tp5807
atp5808
a(S'boat'
p5809
I0
(lp5810
(I3
I16
tp5811
atp5812
a(S'thought'
p5813
I0
(lp5814
(I0
I7
tp5815
atp5816
a(S'clear b'
p5817
I0
(lp5818
(I21
I10
tp5819
a(I22
I17
tp5820
atp5821
a(S'gave'
p5822
I0
(lp5823
(I17
I16
tp5824
atp5825
a(S'hair'
p5826
I0
(lp5827
(I17
I6
tp5828
a(I26
I11
tp5829
atp5830
a(S'cutoff'
p5831
I0
(lp5832
(I7
I21
tp5833
atp5834
a(S'jimmy'
p5835
I0
(lp5836
(I19
I8
tp5837
atp5838
a(S'forward'
p5839
I0
(lp5840
(I8
I8
tp5841
a(I16
I12
tp5842
a(I21
I23
tp5843
a(I24
I13
tp5844
a(I26
I9
tp5845
atp5846
a(S'string'
p5847
I0
(lp5848
(I19
I8
tp5849
atp5850
a(S'us'
p5851
I0
(lp5852
(I0
I12
tp5853
atp5854
a.