((lp0
(lp1
c__builtin__
set
p2
((lp3
tp4
Rp5
ag2
((lp6
S'machine'
p7
aS'intelligence'
p8
aS'intelligent'
p9
aS'strong ai'
p10
aS'artificial intelligence'
p11
atp12
Rp13
aa(lp14
g2
((lp15
tp16
Rp17
ag2
((lp18
S'rational agent'
p19
aS'autonomous agent'
p20
aS'agent'
p21
aS'environment'
p22
aS'agent program'
p23
aS'intelligent agent'
p24
atp25
Rp26
aa(lp27
g2
((lp28
S'agent'
p29
aS'rational agent'
p30
atp31
Rp32
ag2
((lp33
S'state space'
p34
aS'goal state'
p35
aS'initial state'
p36
aS'agent refer'
p37
aS'current state'
p38
aS'state'
p39
aS'implicit state'
p40
atp41
Rp42
aa(lp43
g2
((lp44
S'state space'
p45
aS'goal state'
p46
aS'state'
p47
aS'initial state'
p48
atp49
Rp50
ag2
((lp51
S'search'
p52
aS'breadth first search'
p53
aS'search tree'
p54
aS'first node'
p55
aS'search strategy'
p56
aS'search space'
p57
aS'iterative deepening search'
p58
aS'search problem'
p59
aS'search algorithm'
p60
atp61
Rp62
aa(lp63
g2
((lp64
S'search'
p65
aS'search algorithm'
p66
aS'breadth first search'
p67
aS'search space'
p68
aS'search tree'
p69
atp70
Rp71
ag2
((lp72
S'node'
p73
aS'greedy search'
p74
aS'forward search'
p75
aS'first search'
p76
aS'node n'
p77
aS'cost search'
p78
aS'goal node'
p79
aS'bidirectional search'
p80
atp81
Rp82
aa(lp83
g2
((lp84
S'node'
p85
aS'search space'
p86
aS'breadth first search'
p87
aS'search tree'
p88
aS'first search'
p89
aS'search'
p90
aS'iterative deepening search'
p91
aS'goal node'
p92
aS'bidirectional search'
p93
atp94
Rp95
ag2
((lp96
S'start node'
p97
aS'local search'
p98
aS'depth first search'
p99
atp100
Rp101
aa(lp102
g2
((lp103
S'node'
p104
aS'search'
p105
aS'search tree'
p106
aS'node n'
p107
aS'cost search'
p108
aS'bidirectional search'
p109
atp110
Rp111
ag2
((lp112
S'agent search'
p113
atp114
Rp115
aa(lp116
g2
((lp117
S'node'
p118
atp119
Rp120
ag2
((lp121
S'min node'
p122
aS'node ordering'
p123
aS'max node'
p124
atp125
Rp126
aa(lp127
g2
((lp128
tp129
Rp130
ag2
((lp131
S'constraint satisfaction'
p132
aS'constraint propagation'
p133
aS'constraint'
p134
atp135
Rp136
aa(lp137
g2
((lp138
tp139
Rp140
ag2
((lp141
tp142
Rp143
aa(lp144
g2
((lp145
tp146
Rp147
ag2
((lp148
S'proposition'
p149
aS'knowledge'
p150
aS'valid proposition'
p151
aS'compound proposition'
p152
aS'propositional logic'
p153
aS'knowledge representation'
p154
aS'proposition p'
p155
atp156
Rp157
aa(lp158
g2
((lp159
tp160
Rp161
ag2
((lp162
tp163
Rp164
aa(lp165
g2
((lp166
tp167
Rp168
ag2
((lp169
tp170
Rp171
aa(lp172
g2
((lp173
tp174
Rp175
ag2
((lp176
S'horn sentence'
p177
atp178
Rp179
aa(lp180
g2
((lp181
tp182
Rp183
ag2
((lp184
tp185
Rp186
aa(lp187
g2
((lp188
tp189
Rp190
ag2
((lp191
S'rule base'
p192
aS'third rule'
p193
aS'rule'
p194
atp195
Rp196
aa(lp197
g2
((lp198
S'rule base'
p199
aS'rule'
p200
atp201
Rp202
ag2
((lp203
tp204
Rp205
aa(lp206
g2
((lp207
tp208
Rp209
ag2
((lp210
tp211
Rp212
aa(lp213
g2
((lp214
tp215
Rp216
ag2
((lp217
tp218
Rp219
aa(lp220
g2
((lp221
tp222
Rp223
ag2
((lp224
tp225
Rp226
aa(lp227
g2
((lp228
S'state space'
p229
aS'goal state'
p230
aS'state'
p231
aS'initial state'
p232
atp233
Rp234
ag2
((lp235
S'action'
p236
aS'action go'
p237
aS'action pick'
p238
aS'successor state'
p239
atp240
Rp241
aa(lp242
g2
((lp243
S'state space'
p244
aS'goal state'
p245
aS'initial state'
p246
aS'current state'
p247
aS'state'
p248
aS'action'
p249
atp250
Rp251
ag2
((lp252
S'sub goal'
p253
aS'current goal'
p254
aS'goal'
p255
atp256
Rp257
aa(lp258
g2
((lp259
tp260
Rp261
ag2
((lp262
tp263
Rp264
aa(lp265
g2
((lp266
S'action'
p267
atp268
Rp269
ag2
((lp270
S'maintenance action'
p271
aS'action level'
p272
aS'graph'
p273
aS'graph expansion'
p274
aS'planning graph'
p275
aS'graph plan'
p276
atp277
Rp278
aa(lp279
g2
((lp280
S'rule'
p281
atp282
Rp283
ag2
((lp284
S'system'
p285
aS'expert'
p286
aS'expert system'
p287
aS'human expert'
p288
atp289
Rp290
aa(lp291
g2
((lp292
tp293
Rp294
ag2
((lp295
tp296
Rp297
aa(lp298
g2
((lp299
S'rule'
p300
atp301
Rp302
ag2
((lp303
S'certainty'
p304
aS'certainty factor'
p305
atp306
Rp307
aa(lp308
g2
((lp309
tp310
Rp311
ag2
((lp312
S'joint probability'
p313
aS'probability theory'
p314
atp315
Rp316
aa(lp317
g2
((lp318
tp319
Rp320
ag2
((lp321
S'probability of alarm'
p322
aS'probability of john'
p323
aS'probability'
p324
aS'priori probability'
p325
aS'probability of b'
p326
aS'conditional probability'
p327
atp328
Rp329
aa(lp330
g2
((lp331
tp332
Rp333
ag2
((lp334
S'set theory'
p335
aS'set'
p336
aS'crisp set'
p337
aS'set tall'
p338
aS'set medium'
p339
atp340
Rp341
aa(lp342
g2
((lp343
S'set'
p344
aS'crisp set'
p345
aS'set tall'
p346
atp347
Rp348
ag2
((lp349
S'fuzzy'
p350
aS'fuzzy set'
p351
aS'fuzzy logic'
p352
aS'fuzzy set tall'
p353
atp354
Rp355
aa(lp356
g2
((lp357
tp358
Rp359
ag2
((lp360
tp361
Rp362
aa(lp363
g2
((lp364
tp365
Rp366
ag2
((lp367
S'hypothesis space'
p368
aS'good hypothesis'
p369
aS'possible hypothesis'
p370
aS'hypothesis'
p371
aS'set of hypothesis'
p372
atp373
Rp374
aa(lp375
g2
((lp376
tp377
Rp378
ag2
((lp379
S'decision attribute'
p380
aS'attribute'
p381
aS'decision'
p382
aS'target attribute'
p383
atp384
Rp385
aa(lp386
g2
((lp387
S'set'
p388
atp389
Rp390
ag2
((lp391
S'training set'
p392
aS'test set'
p393
aS'rule set'
p394
aS'decision tree'
p395
aS'validation set'
p396
aS'tree'
p397
aS'data set'
p398
atp399
Rp400
aa(lp401
g2
((lp402
tp403
Rp404
ag2
((lp405
S'xor function'
p406
atp407
Rp408
aa(lp409
g2
((lp410
tp411
Rp412
ag2
((lp413
S'function'
p414
aS'network'
p415
aS'error function'
p416
aS'sigmoidal function'
p417
aS'sigmoid function'
p418
aS'neural network'
p419
atp420
Rp421
aa(lp422
g2
((lp423
S'hypothesis space'
p424
aS'possible hypothesis'
p425
aS'hypothesis'
p426
aS'probability'
p427
atp428
Rp429
ag2
((lp430
S'prior probability'
p431
aS'different hypothesis'
p432
aS'map hypothesis'
p433
aS'posterior probability'
p434
atp435
Rp436
aa(lp437
g2
((lp438
tp439
Rp440
ag2
((lp441
S'natural language processing'
p442
aS'language processing'
p443
aS'language'
p444
aS'natural language'
p445
atp446
Rp447
aa(lp448
g2
((lp449
tp450
Rp451
ag2
((lp452
S'sentence'
p453
atp454
Rp455
aa(lp456
(dp457
a(dp458
a(dp459
g30
(F10.277346536194475
I5
tp460
sg29
(F10.277346536194475
I99
tp461
sa(dp462
g46
(F10.035481360151094
I12
tp463
sg48
(F10.035481360151094
I16
tp464
sg45
(F10.035481360151094
I34
tp465
sg47
(F10.035481360151094
I108
tp466
sa(dp467
g65
(F11.321696228181226
I145
tp468
sg67
(F11.321696228181226
I11
tp469
sg69
(F11.321696228181226
I11
tp470
sg68
(F11.321696228181226
I5
tp471
sg66
(F11.321696228181226
I11
tp472
sa(dp473
g85
(F8.152855626366444
I50
tp474
sg90
(F8.440276995702652
I91
tp475
sg87
(F8.440276995702652
I6
tp476
sg88
(F8.440276995702652
I6
tp477
sg89
(F8.440276995702652
I25
tp478
sg86
(F8.440276995702652
I7
tp479
sg91
(F8.440276995702652
I7
tp480
sg92
(F8.152855626366444
I6
tp481
sg93
(F8.440276995702652
I6
tp482
sa(dp483
g104
(F8.246547115472735
I66
tp484
sg105
(F8.048324937716659
I80
tp485
sg106
(F8.048324937716659
I18
tp486
sg107
(F8.246547115472735
I6
tp487
sg108
(F8.048324937716659
I5
tp488
sg109
(F8.048324937716659
I5
tp489
sa(dp490
g118
(F10.459684948210867
I144
tp491
sa(dp492
a(dp493
a(dp494
a(dp495
a(dp496
a(dp497
a(dp498
a(dp499
a(dp500
g199
(F15.393470702284223
I7
tp501
sg200
(F15.393470702284223
I98
tp502
sa(dp503
a(dp504
a(dp505
a(dp506
g229
(F9.37128773679261
I14
tp507
sg230
(F9.37128773679261
I8
tp508
sg232
(F9.37128773679261
I21
tp509
sg231
(F9.37128773679261
I120
tp510
sa(dp511
g244
(F9.036861992500372
I8
tp512
sg245
(F9.036861992500372
I24
tp513
sg246
(F9.036861992500372
I31
tp514
sg247
(F9.036861992500372
I12
tp515
sg248
(F9.036861992500372
I134
tp516
sg249
(F10.489319275437618
I83
tp517
sa(dp518
a(dp519
g267
(F9.447415048637474
I101
tp520
sa(dp521
g281
(F13.927153591356422
I60
tp522
sa(dp523
a(dp524
g300
(F8.033513012486642
I58
tp525
sa(dp526
a(dp527
a(dp528
a(dp529
g344
(F8.69372628641921
I111
tp530
sg346
(F8.69372628641921
I9
tp531
sg345
(F8.69372628641921
I15
tp532
sa(dp533
a(dp534
a(dp535
a(dp536
g388
(F8.526814878223226
I92
tp537
sa(dp538
a(dp539
a(dp540
g427
(F9.197698217177761
I57
tp541
sg424
(F8.40131824273541
I13
tp542
sg426
(F8.40131824273541
I115
tp543
sg425
(F8.40131824273541
I5
tp544
sa(dp545
a(dp546
a(lp547
(lp548
F0.0
aF0.0
aF0.0
aF0.0
aF0.0
aF0.0
aF0.0
aF0.0
aF0.0
aF0.0
aF0.0
aF0.0
aF0.0
aF0.0
aF0.0
aF0.0
aF0.0
aF0.0
aF0.0
aF0.0
aF0.0
aF0.0
aF0.0
aF0.0
aF0.0
aF0.0
aF0.0
aF0.0
aF0.0
aF0.0
aF0.0
aF0.0
aF0.0
aF0.0
aF0.0
aF0.0
aF0.0
aF0.0
aF0.0
aF0.0
aa(lp549
F0.0
aF0.0
aF0.0
aF0.0
aF0.0
aF0.0
aF0.0
aF0.0
aF0.0
aF0.0
aF0.0
aF0.0
aF0.0
aF0.0
aF0.0
aF0.0
aF0.0
aF0.0
aF0.0
aF0.0
aF0.0
aF0.0
aF0.0
aF0.0
aF0.0
aF0.0
aF0.0
aF0.0
aF0.0
aF0.0
aF0.0
aF0.0
aF0.0
aF0.0
aF0.0
aF0.0
aF0.0
aF0.0
aF0.0
aF0.0
aa(lp550
F0.0
aF10.277346536194475
aF0.0
aF0.0
aF0.0
aF0.0
aF0.0
aF0.0
aF0.0
aF0.0
aF0.0
aF0.0
aF0.0
aF0.0
aF0.0
aF0.0
aF0.0
aF0.0
aF0.0
aF0.0
aF0.0
aF0.0
aF0.0
aF0.0
aF0.0
aF0.0
aF0.0
aF0.0
aF0.0
aF0.0
aF0.0
aF0.0
aF0.0
aF0.0
aF0.0
aF0.0
aF0.0
aF0.0
aF0.0
aF0.0
aa(lp551
F0.0
aF0.0
aF10.035481360151094
aF0.0
aF0.0
aF0.0
aF0.0
aF0.0
aF0.0
aF0.0
aF0.0
aF0.0
aF0.0
aF0.0
aF0.0
aF0.0
aF0.0
aF0.0
aF0.0
aF0.0
aF0.0
aF0.0
aF0.0
aF0.0
aF0.0
aF0.0
aF0.0
aF0.0
aF0.0
aF0.0
aF0.0
aF0.0
aF0.0
aF0.0
aF0.0
aF0.0
aF0.0
aF0.0
aF0.0
aF0.0
aa(lp552
F0.0
aF0.0
aF0.0
aF11.321696228181224
aF0.0
aF0.0
aF0.0
aF0.0
aF0.0
aF0.0
aF0.0
aF0.0
aF0.0
aF0.0
aF0.0
aF0.0
aF0.0
aF0.0
aF0.0
aF0.0
aF0.0
aF0.0
aF0.0
aF0.0
aF0.0
aF0.0
aF0.0
aF0.0
aF0.0
aF0.0
aF0.0
aF0.0
aF0.0
aF0.0
aF0.0
aF0.0
aF0.0
aF0.0
aF0.0
aF0.0
aa(lp553
F0.0
aF0.0
aF0.0
aF2.6893039447091787
aF1.5647244051052354
aF0.0
aF0.0
aF0.0
aF0.0
aF0.0
aF0.0
aF0.0
aF0.0
aF0.0
aF0.0
aF0.0
aF0.0
aF0.0
aF0.0
aF0.0
aF0.0
aF0.0
aF0.0
aF0.0
aF0.0
aF0.0
aF0.0
aF0.0
aF0.0
aF0.0
aF0.0
aF0.0
aF0.0
aF0.0
aF0.0
aF0.0
aF0.0
aF0.0
aF0.0
aF0.0
aa(lp554
F0.0
aF0.0
aF0.0
aF1.4606219331411714
aF2.4971653395970494
aF0.0
aF0.0
aF0.0
aF0.0
aF0.0
aF0.0
aF0.0
aF0.0
aF0.0
aF0.0
aF0.0
aF0.0
aF0.0
aF0.0
aF0.0
aF0.0
aF0.0
aF0.0
aF0.0
aF0.0
aF0.0
aF0.0
aF0.0
aF0.0
aF0.0
aF0.0
aF0.0
aF0.0
aF0.0
aF0.0
aF0.0
aF0.0
aF0.0
aF0.0
aF0.0
aa(lp555
F0.0
aF0.0
aF0.0
aF0.0
aF10.459684948210867
aF0.0
aF0.0
aF0.0
aF0.0
aF0.0
aF0.0
aF0.0
aF0.0
aF0.0
aF0.0
aF0.0
aF0.0
aF0.0
aF0.0
aF0.0
aF0.0
aF0.0
aF0.0
aF0.0
aF0.0
aF0.0
aF0.0
aF0.0
aF0.0
aF0.0
aF0.0
aF0.0
aF0.0
aF0.0
aF0.0
aF0.0
aF0.0
aF0.0
aF0.0
aF0.0
aa(lp556
F0.0
aF0.0
aF0.0
aF0.0
aF0.0
aF0.0
aF0.0
aF0.0
aF0.0
aF0.0
aF0.0
aF0.0
aF0.0
aF0.0
aF0.0
aF0.0
aF0.0
aF0.0
aF0.0
aF0.0
aF0.0
aF0.0
aF0.0
aF0.0
aF0.0
aF0.0
aF0.0
aF0.0
aF0.0
aF0.0
aF0.0
aF0.0
aF0.0
aF0.0
aF0.0
aF0.0
aF0.0
aF0.0
aF0.0
aF0.0
aa(lp557
F0.0
aF0.0
aF0.0
aF0.0
aF0.0
aF0.0
aF0.0
aF0.0
aF0.0
aF0.0
aF0.0
aF0.0
aF0.0
aF0.0
aF0.0
aF0.0
aF0.0
aF0.0
aF0.0
aF0.0
aF0.0
aF0.0
aF0.0
aF0.0
aF0.0
aF0.0
aF0.0
aF0.0
aF0.0
aF0.0
aF0.0
aF0.0
aF0.0
aF0.0
aF0.0
aF0.0
aF0.0
aF0.0
aF0.0
aF0.0
aa(lp558
F0.0
aF0.0
aF0.0
aF0.0
aF0.0
aF0.0
aF0.0
aF0.0
aF0.0
aF0.0
aF0.0
aF0.0
aF0.0
aF0.0
aF0.0
aF0.0
aF0.0
aF0.0
aF0.0
aF0.0
aF0.0
aF0.0
aF0.0
aF0.0
aF0.0
aF0.0
aF0.0
aF0.0
aF0.0
aF0.0
aF0.0
aF0.0
aF0.0
aF0.0
aF0.0
aF0.0
aF0.0
aF0.0
aF0.0
aF0.0
aa(lp559
F0.0
aF0.0
aF0.0
aF0.0
aF0.0
aF0.0
aF0.0
aF0.0
aF0.0
aF0.0
aF0.0
aF0.0
aF0.0
aF0.0
aF0.0
aF0.0
aF0.0
aF0.0
aF0.0
aF0.0
aF0.0
aF0.0
aF0.0
aF0.0
aF0.0
aF0.0
aF0.0
aF0.0
aF0.0
aF0.0
aF0.0
aF0.0
aF0.0
aF0.0
aF0.0
aF0.0
aF0.0
aF0.0
aF0.0
aF0.0
aa(lp560
F0.0
aF0.0
aF0.0
aF0.0
aF0.0
aF0.0
aF0.0
aF0.0
aF0.0
aF0.0
aF0.0
aF0.0
aF0.0
aF0.0
aF0.0
aF0.0
aF0.0
aF0.0
aF0.0
aF0.0
aF0.0
aF0.0
aF0.0
aF0.0
aF0.0
aF0.0
aF0.0
aF0.0
aF0.0
aF0.0
aF0.0
aF0.0
aF0.0
aF0.0
aF0.0
aF0.0
aF0.0
aF0.0
aF0.0
aF0.0
aa(lp561
F0.0
aF0.0
aF0.0
aF0.0
aF0.0
aF0.0
aF0.0
aF0.0
aF0.0
aF0.0
aF0.0
aF0.0
aF0.0
aF0.0
aF0.0
aF0.0
aF0.0
aF0.0
aF0.0
aF0.0
aF0.0
aF0.0
aF0.0
aF0.0
aF0.0
aF0.0
aF0.0
aF0.0
aF0.0
aF0.0
aF0.0
aF0.0
aF0.0
aF0.0
aF0.0
aF0.0
aF0.0
aF0.0
aF0.0
aF0.0
aa(lp562
F0.0
aF0.0
aF0.0
aF0.0
aF0.0
aF0.0
aF0.0
aF0.0
aF0.0
aF0.0
aF0.0
aF0.0
aF0.0
aF0.0
aF0.0
aF0.0
aF0.0
aF0.0
aF0.0
aF0.0
aF0.0
aF0.0
aF0.0
aF0.0
aF0.0
aF0.0
aF0.0
aF0.0
aF0.0
aF0.0
aF0.0
aF0.0
aF0.0
aF0.0
aF0.0
aF0.0
aF0.0
aF0.0
aF0.0
aF0.0
aa(lp563
F0.0
aF0.0
aF0.0
aF0.0
aF0.0
aF0.0
aF0.0
aF0.0
aF0.0
aF0.0
aF0.0
aF0.0
aF0.0
aF0.0
aF0.0
aF0.0
aF0.0
aF0.0
aF0.0
aF0.0
aF0.0
aF0.0
aF0.0
aF0.0
aF0.0
aF0.0
aF0.0
aF0.0
aF0.0
aF0.0
aF0.0
aF0.0
aF0.0
aF0.0
aF0.0
aF0.0
aF0.0
aF0.0
aF0.0
aF0.0
aa(lp564
F0.0
aF0.0
aF0.0
aF0.0
aF0.0
aF0.0
aF0.0
aF0.0
aF0.0
aF0.0
aF0.0
aF0.0
aF0.0
aF0.0
aF0.0
aF15.393470702284223
aF0.0
aF0.0
aF0.0
aF0.0
aF0.0
aF0.0
aF0.0
aF0.0
aF0.0
aF0.0
aF0.0
aF0.0
aF0.0
aF0.0
aF0.0
aF0.0
aF0.0
aF0.0
aF0.0
aF0.0
aF0.0
aF0.0
aF0.0
aF0.0
aa(lp565
F0.0
aF0.0
aF0.0
aF0.0
aF0.0
aF0.0
aF0.0
aF0.0
aF0.0
aF0.0
aF0.0
aF0.0
aF0.0
aF0.0
aF0.0
aF0.0
aF0.0
aF0.0
aF0.0
aF0.0
aF0.0
aF0.0
aF0.0
aF0.0
aF0.0
aF0.0
aF0.0
aF0.0
aF0.0
aF0.0
aF0.0
aF0.0
aF0.0
aF0.0
aF0.0
aF0.0
aF0.0
aF0.0
aF0.0
aF0.0
aa(lp566
F0.0
aF0.0
aF0.0
aF0.0
aF0.0
aF0.0
aF0.0
aF0.0
aF0.0
aF0.0
aF0.0
aF0.0
aF0.0
aF0.0
aF0.0
aF0.0
aF0.0
aF0.0
aF0.0
aF0.0
aF0.0
aF0.0
aF0.0
aF0.0
aF0.0
aF0.0
aF0.0
aF0.0
aF0.0
aF0.0
aF0.0
aF0.0
aF0.0
aF0.0
aF0.0
aF0.0
aF0.0
aF0.0
aF0.0
aF0.0
aa(lp567
F0.0
aF0.0
aF0.0
aF0.0
aF0.0
aF0.0
aF0.0
aF0.0
aF0.0
aF0.0
aF0.0
aF0.0
aF0.0
aF0.0
aF0.0
aF0.0
aF0.0
aF0.0
aF0.0
aF0.0
aF0.0
aF0.0
aF0.0
aF0.0
aF0.0
aF0.0
aF0.0
aF0.0
aF0.0
aF0.0
aF0.0
aF0.0
aF0.0
aF0.0
aF0.0
aF0.0
aF0.0
aF0.0
aF0.0
aF0.0
aa(lp568
F0.0
aF0.0
aF9.37128773679261
aF0.0
aF0.0
aF0.0
aF0.0
aF0.0
aF0.0
aF0.0
aF0.0
aF0.0
aF0.0
aF0.0
aF0.0
aF0.0
aF0.0
aF0.0
aF0.0
aF0.0
aF0.0
aF0.0
aF0.0
aF0.0
aF0.0
aF0.0
aF0.0
aF0.0
aF0.0
aF0.0
aF0.0
aF0.0
aF0.0
aF0.0
aF0.0
aF0.0
aF0.0
aF0.0
aF0.0
aF0.0
aa(lp569
F0.0
aF0.0
aF5.3901374327413745
aF0.0
aF0.0
aF0.0
aF0.0
aF0.0
aF0.0
aF0.0
aF0.0
aF0.0
aF0.0
aF0.0
aF0.0
aF0.0
aF0.0
aF0.0
aF0.0
aF0.0
aF0.4969255136194761
aF0.0
aF0.0
aF0.0
aF0.0
aF0.0
aF0.0
aF0.0
aF0.0
aF0.0
aF0.0
aF0.0
aF0.0
aF0.0
aF0.0
aF0.0
aF0.0
aF0.0
aF0.0
aF0.0
aa(lp570
F0.0
aF0.0
aF0.0
aF0.0
aF0.0
aF0.0
aF0.0
aF0.0
aF0.0
aF0.0
aF0.0
aF0.0
aF0.0
aF0.0
aF0.0
aF0.0
aF0.0
aF0.0
aF0.0
aF0.0
aF0.0
aF0.0
aF0.0
aF0.0
aF0.0
aF0.0
aF0.0
aF0.0
aF0.0
aF0.0
aF0.0
aF0.0
aF0.0
aF0.0
aF0.0
aF0.0
aF0.0
aF0.0
aF0.0
aF0.0
aa(lp571
F0.0
aF0.0
aF0.0
aF0.0
aF0.0
aF0.0
aF0.0
aF0.0
aF0.0
aF0.0
aF0.0
aF0.0
aF0.0
aF0.0
aF0.0
aF0.0
aF0.0
aF0.0
aF0.0
aF0.0
aF9.447415048637474
aF0.0
aF0.0
aF0.0
aF0.0
aF0.0
aF0.0
aF0.0
aF0.0
aF0.0
aF0.0
aF0.0
aF0.0
aF0.0
aF0.0
aF0.0
aF0.0
aF0.0
aF0.0
aF0.0
aa(lp572
F0.0
aF0.0
aF0.0
aF0.0
aF0.0
aF0.0
aF0.0
aF0.0
aF0.0
aF0.0
aF0.0
aF0.0
aF0.0
aF0.0
aF0.0
aF13.927153591356422
aF0.0
aF0.0
aF0.0
aF0.0
aF0.0
aF0.0
aF0.0
aF0.0
aF0.0
aF0.0
aF0.0
aF0.0
aF0.0
aF0.0
aF0.0
aF0.0
aF0.0
aF0.0
aF0.0
aF0.0
aF0.0
aF0.0
aF0.0
aF0.0
aa(lp573
F0.0
aF0.0
aF0.0
aF0.0
aF0.0
aF0.0
aF0.0
aF0.0
aF0.0
aF0.0
aF0.0
aF0.0
aF0.0
aF0.0
aF0.0
aF0.0
aF0.0
aF0.0
aF0.0
aF0.0
aF0.0
aF0.0
aF0.0
aF0.0
aF0.0
aF0.0
aF0.0
aF0.0
aF0.0
aF0.0
aF0.0
aF0.0
aF0.0
aF0.0
aF0.0
aF0.0
aF0.0
aF0.0
aF0.0
aF0.0
aa(lp574
F0.0
aF0.0
aF0.0
aF0.0
aF0.0
aF0.0
aF0.0
aF0.0
aF0.0
aF0.0
aF0.0
aF0.0
aF0.0
aF0.0
aF0.0
aF8.033513012486642
aF0.0
aF0.0
aF0.0
aF0.0
aF0.0
aF0.0
aF0.0
aF0.0
aF0.0
aF0.0
aF0.0
aF0.0
aF0.0
aF0.0
aF0.0
aF0.0
aF0.0
aF0.0
aF0.0
aF0.0
aF0.0
aF0.0
aF0.0
aF0.0
aa(lp575
F0.0
aF0.0
aF0.0
aF0.0
aF0.0
aF0.0
aF0.0
aF0.0
aF0.0
aF0.0
aF0.0
aF0.0
aF0.0
aF0.0
aF0.0
aF0.0
aF0.0
aF0.0
aF0.0
aF0.0
aF0.0
aF0.0
aF0.0
aF0.0
aF0.0
aF0.0
aF0.0
aF0.0
aF0.0
aF0.0
aF0.0
aF0.0
aF0.0
aF0.0
aF0.0
aF0.0
aF0.0
aF0.0
aF0.0
aF0.0
aa(lp576
F0.0
aF0.0
aF0.0
aF0.0
aF0.0
aF0.0
aF0.0
aF0.0
aF0.0
aF0.0
aF0.0
aF0.0
aF0.0
aF0.0
aF0.0
aF0.0
aF0.0
aF0.0
aF0.0
aF0.0
aF0.0
aF0.0
aF0.0
aF0.0
aF0.0
aF0.0
aF0.0
aF0.0
aF0.0
aF0.0
aF0.0
aF0.0
aF0.0
aF0.0
aF0.0
aF0.0
aF0.0
aF0.0
aF0.0
aF0.0
aa(lp577
F0.0
aF0.0
aF0.0
aF0.0
aF0.0
aF0.0
aF0.0
aF0.0
aF0.0
aF0.0
aF0.0
aF0.0
aF0.0
aF0.0
aF0.0
aF0.0
aF0.0
aF0.0
aF0.0
aF0.0
aF0.0
aF0.0
aF0.0
aF0.0
aF0.0
aF0.0
aF0.0
aF0.0
aF0.0
aF0.0
aF0.0
aF0.0
aF0.0
aF0.0
aF0.0
aF0.0
aF0.0
aF0.0
aF0.0
aF0.0
aa(lp578
F0.0
aF0.0
aF0.0
aF0.0
aF0.0
aF0.0
aF0.0
aF0.0
aF0.0
aF0.0
aF0.0
aF0.0
aF0.0
aF0.0
aF0.0
aF0.0
aF0.0
aF0.0
aF0.0
aF0.0
aF0.0
aF0.0
aF0.0
aF0.0
aF0.0
aF0.0
aF0.0
aF0.0
aF0.0
aF8.69372628641921
aF0.0
aF0.0
aF0.0
aF0.0
aF0.0
aF0.0
aF0.0
aF0.0
aF0.0
aF0.0
aa(lp579
F0.0
aF0.0
aF0.0
aF0.0
aF0.0
aF0.0
aF0.0
aF0.0
aF0.0
aF0.0
aF0.0
aF0.0
aF0.0
aF0.0
aF0.0
aF0.0
aF0.0
aF0.0
aF0.0
aF0.0
aF0.0
aF0.0
aF0.0
aF0.0
aF0.0
aF0.0
aF0.0
aF0.0
aF0.0
aF0.0
aF0.0
aF0.0
aF0.0
aF0.0
aF0.0
aF0.0
aF0.0
aF0.0
aF0.0
aF0.0
aa(lp580
F0.0
aF0.0
aF0.0
aF0.0
aF0.0
aF0.0
aF0.0
aF0.0
aF0.0
aF0.0
aF0.0
aF0.0
aF0.0
aF0.0
aF0.0
aF0.0
aF0.0
aF0.0
aF0.0
aF0.0
aF0.0
aF0.0
aF0.0
aF0.0
aF0.0
aF0.0
aF0.0
aF0.0
aF0.0
aF0.0
aF0.0
aF0.0
aF0.0
aF0.0
aF0.0
aF0.0
aF0.0
aF0.0
aF0.0
aF0.0
aa(lp581
F0.0
aF0.0
aF0.0
aF0.0
aF0.0
aF0.0
aF0.0
aF0.0
aF0.0
aF0.0
aF0.0
aF0.0
aF0.0
aF0.0
aF0.0
aF0.0
aF0.0
aF0.0
aF0.0
aF0.0
aF0.0
aF0.0
aF0.0
aF0.0
aF0.0
aF0.0
aF0.0
aF0.0
aF0.0
aF0.0
aF0.0
aF0.0
aF0.0
aF0.0
aF0.0
aF0.0
aF0.0
aF0.0
aF0.0
aF0.0
aa(lp582
F0.0
aF0.0
aF0.0
aF0.0
aF0.0
aF0.0
aF0.0
aF0.0
aF0.0
aF0.0
aF0.0
aF0.0
aF0.0
aF0.0
aF0.0
aF0.0
aF0.0
aF0.0
aF0.0
aF0.0
aF0.0
aF0.0
aF0.0
aF0.0
aF0.0
aF0.0
aF0.0
aF0.0
aF0.0
aF8.526814878223226
aF0.0
aF0.0
aF0.0
aF0.0
aF0.0
aF0.0
aF0.0
aF0.0
aF0.0
aF0.0
aa(lp583
F0.0
aF0.0
aF0.0
aF0.0
aF0.0
aF0.0
aF0.0
aF0.0
aF0.0
aF0.0
aF0.0
aF0.0
aF0.0
aF0.0
aF0.0
aF0.0
aF0.0
aF0.0
aF0.0
aF0.0
aF0.0
aF0.0
aF0.0
aF0.0
aF0.0
aF0.0
aF0.0
aF0.0
aF0.0
aF0.0
aF0.0
aF0.0
aF0.0
aF0.0
aF0.0
aF0.0
aF0.0
aF0.0
aF0.0
aF0.0
aa(lp584
F0.0
aF0.0
aF0.0
aF0.0
aF0.0
aF0.0
aF0.0
aF0.0
aF0.0
aF0.0
aF0.0
aF0.0
aF0.0
aF0.0
aF0.0
aF0.0
aF0.0
aF0.0
aF0.0
aF0.0
aF0.0
aF0.0
aF0.0
aF0.0
aF0.0
aF0.0
aF0.0
aF0.0
aF0.0
aF0.0
aF0.0
aF0.0
aF0.0
aF0.0
aF0.0
aF0.0
aF0.0
aF0.0
aF0.0
aF0.0
aa(lp585
F0.0
aF0.0
aF0.0
aF0.0
aF0.0
aF0.0
aF0.0
aF0.0
aF0.0
aF0.0
aF0.0
aF0.0
aF0.0
aF0.0
aF0.0
aF0.0
aF0.0
aF0.0
aF0.0
aF0.0
aF0.0
aF0.0
aF0.0
aF0.0
aF0.0
aF0.0
aF0.0
aF0.0
aF0.6898273662883321
aF0.0
aF0.0
aF0.0
aF4.4106920774360905
aF0.0
aF0.0
aF0.0
aF0.0
aF0.0
aF0.0
aF0.0
aa(lp586
F0.0
aF0.0
aF0.0
aF0.0
aF0.0
aF0.0
aF0.0
aF0.0
aF0.0
aF0.0
aF0.0
aF0.0
aF0.0
aF0.0
aF0.0
aF0.0
aF0.0
aF0.0
aF0.0
aF0.0
aF0.0
aF0.0
aF0.0
aF0.0
aF0.0
aF0.0
aF0.0
aF0.0
aF0.0
aF0.0
aF0.0
aF0.0
aF0.0
aF0.0
aF0.0
aF0.0
aF0.0
aF0.0
aF0.0
aF0.0
aa(lp587
F0.0
aF0.0
aF0.0
aF0.0
aF0.0
aF0.0
aF0.0
aF0.0
aF0.0
aF0.0
aF0.0
aF0.0
aF0.0
aF0.0
aF0.0
aF0.0
aF0.0
aF0.0
aF0.0
aF0.0
aF0.0
aF0.0
aF0.0
aF0.0
aF0.0
aF0.0
aF0.0
aF0.0
aF0.0
aF0.0
aF0.0
aF0.0
aF0.0
aF0.0
aF0.0
aF0.0
aF0.0
aF0.0
aF0.0
aF0.0
aatp588
.