(dp0
Vwhose
p1
(dp2
Vnode
p3
(lp4
I1
aI13
aI18
aI7
aI11
assVlist
p5
(dp6
Vaction
p7
(lp8
I26
aI10
asVproposit
p9
(lp10
I18
aI1
asVdelet
p11
(lp12
I17
aI4
assVmissionari
p13
(dp14
Vcannib
p15
(lp16
I6
aI24
assVhorn
p17
(dp18
Vclaus
p19
(lp20
I20
aI6
aI25
assVconsequ
p21
(dp22
Vrule
p23
(lp24
I2
aI20
aI10
aI2
aI5
aI4
assVblue
p25
(dp26
Vdomain
p27
(lp28
I6
aI16
asVred
p29
(lp30
I3
aI25
aI18
aI1
aI1
asVgreen
p31
(lp32
I3
aI4
aI1
aI21
aI17
aI1
aI1
aI1
aI4
assVnet
p33
(dp34
Vsemant
p35
(lp36
I32
aI65
aI18
aI1
aI5
aI6
asVrelationship
p37
(lp38
I1
aI16
assVelimin
p39
(dp40
Vexistenti
p41
(lp42
I23
aI4
asVquantifi
p43
(lp44
I18
aI9
asVunivers
p45
(lp46
I17
aI2
assVmet
p47
(dp48
Vgoal
p49
(lp50
I17
aI2
aI1
assVpath
p51
(dp52
Vcost
p53
(lp54
I7
aI13
aI42
aI11
aI8
aI1
aI6
aI3
asVcurrent
p55
(lp56
I18
aI14
aI2
aI8
asVsearch
p57
(lp58
I4
aI11
aI20
aI8
aI10
aI11
aI4
aI2
aI2
aI1
aI2
aI2
aI4
asVgoal
p59
(lp60
I8
aI17
aI34
aI8
aI10
aI10
aI6
aI9
asVoptimum
p61
(lp62
I16
aI5
aI1
aI3
asVstate
p63
(lp64
I9
aI39
aI20
aI12
aI7
aI2
aI3
aI15
aI8
asVnode
p65
(lp66
I9
aI11
aI64
aI29
aI12
aI41
aI1
aI2
aI3
aI1
aI47
aI3
assVinterpret
p67
(dp68
Vsentenc
p69
(lp70
I17
aI46
aI2
aI3
aI2
asVworld
p71
(lp72
I59
aI4
asVmean
p73
(lp74
I16
aI14
aI1
aI3
asVset
p75
(lp76
I17
aI1
aI1
asVproposit
p77
(lp78
I32
aI9
aI1
asVevalu
p79
(lp80
I20
aI8
aI2
asVmake
p81
(lp82
I1
aI17
aI1
aI1
assVpropag
p83
(dp84
Vconstraint
p85
(lp86
I19
aI33
assVunit
p87
(dp88
Vsigmoid
p89
(lp90
I14
aI23
asVthreshold
p91
(lp92
I50
aI12
asVinput
p93
(lp94
I20
aI3
asVhidden
p95
(lp96
I1
aI4
aI34
asVnetwork
p97
(lp98
I1
aI20
aI32
asVlinear
p99
(lp100
I57
aI37
asVfunction
p101
(lp102
I24
aI22
asVweight
p103
(lp104
I12
aI19
asVerror
p105
(lp106
I2
aI33
asVlayer
p107
(lp108
I14
aI22
asVcomput
p109
(lp110
I1
aI13
aI24
asVneural
p111
(lp112
I1
aI12
aI19
assVdescrib
p113
(dp114
Vaction
p115
(lp116
I1
aI16
aI1
aI1
assVcall
p117
(dp118
Vprobabl
p119
(lp120
I1
aI41
assVgreedi
p121
(dp122
Vsearch
p123
(lp124
I16
aI3
aI11
aI2
assVtype
p125
(dp126
Vbird
p127
(lp128
I2
aI16
aI6
asVslot
p129
(lp130
I2
aI24
asVvalu
p131
(lp132
I1
aI1
aI2
aI2
aI1
aI18
asVlearn
p133
(lp134
I1
aI4
aI1
aI20
aI2
aI5
aI4
aI1
asVobject
p135
(lp136
I1
aI1
aI21
aI1
asVconstraint
p137
(lp138
I19
aI9
aI6
aI1
asVfunction
p139
(lp140
I1
aI2
aI19
aI10
aI1
aI2
aI1
aI7
aI3
asVprobabl
p141
(lp142
I17
aI1
assVrelat
p143
(dp144
Vaction
p145
(lp146
I1
aI1
aI19
asVtom
p147
(lp148
I1
aI21
asVjohn
p149
(lp150
I18
aI2
assVhold
p151
(dp152
Vstate
p153
(lp154
I14
aI7
aI1
aI20
asVaction
p155
(lp156
I23
aI9
aI1
aI16
asVproposit
p157
(lp158
I1
aI10
aI3
aI16
assVword
p159
(dp160
Vmean
p161
(lp162
I1
aI4
aI3
aI1
aI19
assVroom
p163
(dp164
Vslot
p165
(lp166
I6
aI17
asVclass
p167
(lp168
I7
aI20
aI1
assVwork
p169
(dp170
Vmemori
p171
(lp172
I35
aI21
assVliter
p173
(dp174
Vstate
p175
(lp176
I1
aI21
aI16
asVnegat
p177
(lp178
I7
aI1
aI7
aI20
aI7
aI2
aI2
asVaction
p179
(lp180
I7
aI1
aI2
aI19
assVmohan
p181
(dp182
Vdoorbel
p183
(lp184
I39
aI14
aI2
asVwake
p185
(lp186
I46
aI9
aI3
assVclassifi
p187
(dp188
Vdecis
p189
(lp190
I24
aI5
asVset
p191
(lp192
I1
aI26
aI2
aI21
aI2
asVtrain
p193
(lp194
I2
aI20
aI10
aI20
aI1
aI1
asVtree
p195
(lp196
I25
aI7
asVaccuraci
p197
(lp198
I19
aI5
aI6
aI1
assVfals
p199
(dp200
Vworld
p201
(lp202
I20
aI2
asVnegat
p203
(lp204
I5
aI8
aI21
aI1
aI3
asVtruth
p205
(lp206
I2
aI44
aI3
asVinterpret
p207
(lp208
I16
aI6
asVlogic
p209
(lp210
I24
aI4
aI4
aI1
aI2
asVproposit
p211
(lp212
I2
aI28
aI15
aI1
aI1
aI6
aI1
asVposit
p213
(lp214
I6
aI19
aI1
aI5
asg81
(lp215
I1
aI43
aI1
aI3
asVclass
p216
(lp217
I5
aI1
aI22
assVancestor
p218
(dp219
Vnode
p220
(lp221
I2
aI1
aI30
aI2
assVfever
p222
(dp223
Vmalaria
p224
(lp225
I1
aI43
aI1
asVstrong
p226
(lp227
I46
aI2
asVprobabl
p228
(lp229
I34
aI8
assVrecogn
p230
(dp231
Vface
p232
(lp233
I17
aI4
assVthird
p234
(dp235
Vqueen
p236
(lp237
I6
aI29
assVgreen
p238
(dp239
Vblue
p240
(lp241
I3
aI3
aI1
aI26
aI14
aI1
aI1
aI1
aI4
asg29
(lp242
I3
aI3
aI24
aI12
aI1
aI1
aI8
assVorder
p243
(dp244
Vpartial
p245
(lp246
I1
aI26
aI34
aI6
aI1
asVsearch
p247
(lp248
I27
aI15
aI8
aI4
aI7
aI5
aI5
aI2
aI4
aI4
aI1
aI2
aI2
asVaction
p249
(lp250
I3
aI1
aI1
aI1
aI3
aI9
aI23
aI3
asVagent
p251
(lp252
I18
aI2
aI1
aI2
aI2
asVsentenc
p253
(lp254
I6
aI30
aI4
aI1
aI3
asVpredic
p255
(lp256
I8
aI18
aI11
aI1
aI5
asVplan
p257
(lp258
I1
aI1
aI1
aI34
aI46
aI14
aI2
asVset
p259
(lp260
I1
aI1
aI1
aI1
aI2
aI16
aI1
aI3
aI3
aI5
aI5
aI1
aI6
asVattribut
p261
(lp262
I1
aI5
aI20
aI1
aI1
aI2
asVlogic
p263
(lp264
I1
aI27
aI45
aI8
aI2
aI4
aI3
aI3
asVpower
p265
(lp266
I10
aI7
aI7
aI16
aI1
aI1
aI1
aI1
aI1
aI1
aI1
aI1
asVstep
p267
(lp268
I1
aI1
aI1
aI1
aI2
aI4
aI1
aI23
aI1
asVnode
p269
(lp270
I25
aI21
aI6
aI5
aI22
aI1
aI2
aI1
aI1
aI5
aI2
asVrule
p271
(lp272
I2
aI21
aI4
aI4
aI3
aI2
aI3
aI2
asVdepth
p273
(lp274
I16
aI3
aI4
aI1
aI2
aI1
aI2
assVoper
p275
(dp276
Vagent
p277
(lp278
I26
aI17
aI1
aI8
asVenviron
p279
(lp280
I16
aI2
aI2
asVstate
p281
(lp282
I61
aI25
aI1
aI3
aI2
aI7
aI3
asVlogic
p283
(lp284
I24
aI2
aI8
aI5
assVfit
p285
(dp286
Vhypothesi
p287
(lp288
I6
aI17
aI1
aI3
asVset
p289
(lp290
I1
aI3
aI16
asVtrain
p291
(lp292
I27
aI2
aI8
aI2
aI2
asVtree
p293
(lp294
I7
aI16
asVdata
p295
(lp296
I2
aI23
aI1
aI10
aI2
aI6
assVcarri
p297
(dp298
Vaction
p299
(lp300
I2
aI5
aI4
aI28
asVumbrella
p301
(lp302
I2
aI24
assg95
(dp303
g97
(lp304
I1
aI3
aI20
asVunit
p305
(lp306
I1
aI3
aI37
asVlayer
p307
(lp308
I6
aI46
assVinduct
p309
(dp310
Vinfer
p311
(lp312
I2
aI25
aI6
assVanim
p313
(dp314
Vlevel
p315
(lp316
I23
aI1
aI1
asVmammal
p317
(lp318
I3
aI1
aI13
aI18
aI5
asVbird
p319
(lp320
I46
aI2
asVtiger
p321
(lp322
I6
aI17
assVconflict
p323
(dp324
Vresolut
p325
(lp326
I27
aI14
aI4
aI1
aI1
asVphase
p327
(lp328
I16
aI3
aI4
asVrule
p329
(lp330
I21
aI21
aI2
aI2
assVmean
p331
(dp332
Vword
p333
(lp334
I1
aI5
aI2
aI1
aI1
aI20
asVsentenc
p335
(lp336
I12
aI13
aI18
aI1
aI4
aI6
aI21
aI6
asg77
(lp337
I39
aI5
aI1
aI2
aI1
aI3
aI1
aI2
aI1
asVunderstand
p338
(lp339
I16
aI1
aI2
aI1
aI20
aI1
assVextract
p340
(dp341
Vsolut
p342
(lp343
I1
aI26
assVnetwork
p344
(dp345
Vconcept
p346
(lp347
I18
aI1
asVtrain
p348
(lp349
I1
aI6
aI39
aI3
asVlearn
p350
(lp351
I1
aI1
aI8
aI16
aI6
aI1
asg95
(lp352
I1
aI2
aI21
asVbelief
p353
(lp354
I1
aI42
aI3
asVlayer
p355
(lp356
I1
aI21
aI41
asg305
(lp357
I1
aI19
aI36
asVneural
p358
(lp359
I7
aI2
aI3
aI1
aI41
aI105
aI9
aI1
asVfunction
p360
(lp361
I28
aI22
asVnode
p362
(lp363
I5
aI1
aI16
assVgradient
p364
(dp365
Vdescent
p366
(lp367
I2
aI30
aI16
assVcontent
p368
(dp369
Vinform
p370
(lp371
I24
aI1
assVquantifi
p372
(dp373
Vsentenc
p374
(lp375
I4
aI46
aI1
asVexistenti
p376
(lp377
I16
aI54
aI20
aI2
asVelimin
p378
(lp379
I19
aI9
asVunivers
p380
(lp381
I21
aI24
aI15
assVlinear
p382
(dp383
g91
(lp384
I18
aI10
asVsepar
p385
(lp386
I17
aI5
asVunit
p387
(lp388
I57
aI38
asVfunction
p389
(lp390
I1
aI28
aI10
assVfring
p391
(dp392
Vsuccessor
p393
(lp394
I9
aI53
aI5
aI4
asVcost
p395
(lp396
I1
aI2
aI38
asVsearch
p397
(lp398
I12
aI18
aI12
aI3
aI5
asVexpand
p399
(lp400
I2
aI13
aI22
aI9
aI15
asVremov
p401
(lp402
I46
aI3
aI12
aI15
asVgenerat
p403
(lp404
I3
aI36
aI2
asVnode
p405
(lp406
I26
aI64
aI29
aI6
aI17
asValgorithm
p407
(lp408
I3
aI20
aI7
aI2
aI1
assVperform
p409
(dp410
Vagent
p411
(lp412
I38
aI14
aI2
aI5
asVlearn
p413
(lp414
I3
aI16
aI4
aI1
aI2
asVimprov
p415
(lp416
I2
aI18
assVpuzzl
p417
(dp418
Vstate
p419
(lp420
I19
aI4
aI2
aI1
assVangl
p421
(dp422
Vprove
p423
(lp424
I18
aI4
assVatt
p425
(dp426
Vattribut
p427
(lp428
I19
aI4
assVregress
p429
(dp430
Vstate
p431
(lp432
I1
aI24
assVindepend
p433
(dp434
Vprobabl
p435
(lp436
I19
aI32
assVtop
p437
(dp438
Vstate
p439
(lp440
I1
aI7
aI3
aI27
aI3
aI3
assVtom
p441
(dp442
Vmilk
p443
(lp444
I3
aI65
aI9
asVmammal
p445
(lp446
I2
aI100
aI12
aI1
asVrelat
p447
(lp448
I1
aI19
asVmortal
p449
(lp450
I2
aI18
asVjohn
p451
(lp452
I8
aI5
aI18
asVdrink
p453
(lp454
I2
aI69
aI10
asVman
p455
(lp456
I4
aI97
aI12
aI1
asVperson
p457
(lp458
I4
aI25
assg451
(dp459
Vrelat
p460
(lp461
I21
aI3
asVprobabl
p462
(lp463
I44
aI1
aI3
assVtarget
p464
(dp465
Vhypothesi
p466
(lp467
I7
aI23
aI1
asVattribut
p468
(lp469
I2
aI17
aI1
asVlearn
p470
(lp471
I17
aI12
aI1
aI1
aI1
assVtree
p472
(dp473
Vdecis
p474
(lp475
I3
aI1
aI191
aI100
aI17
aI3
aI6
aI1
asVsearch
p476
(lp477
I9
aI89
aI45
aI21
aI40
aI37
aI13
aI10
aI1
aI3
aI3
aI1
aI2
asVtrain
p478
(lp479
I31
aI18
aI2
aI2
aI3
asVlearn
p480
(lp481
I1
aI16
aI6
aI4
aI2
aI2
aI1
asVclassifi
p482
(lp483
I25
aI8
asVdata
p484
(lp485
I1
aI17
aI23
aI1
aI3
aI1
asVgrow
p486
(lp487
I4
aI6
aI62
aI1
asVsize
p488
(lp489
I4
aI3
aI2
aI3
aI19
asVconstruct
p490
(lp491
I4
aI2
aI23
aI6
asVprune
p492
(lp493
I29
aI3
aI4
aI97
asVaccuraci
p494
(lp495
I15
aI32
asVclass
p496
(lp497
I2
aI1
aI14
aI23
aI1
asVstop
p498
(lp499
I2
aI3
aI1
aI1
aI37
aI1
asVset
p500
(lp501
I1
aI3
aI1
aI1
aI20
aI41
aI1
asVattribut
p502
(lp503
I40
aI24
aI1
asVfit
p504
(lp505
I8
aI16
asVerror
p506
(lp507
I1
aI16
aI2
asVexampl
p508
(lp509
I1
aI20
aI4
aI1
aI1
asVgame
p510
(lp511
I37
aI34
asVnode
p512
(lp513
I3
aI35
aI22
aI6
aI32
aI25
aI5
aI2
aI1
aI10
aI19
aI52
aI1
asVminimax
p514
(lp515
I17
aI14
asVdepth
p516
(lp517
I29
aI1
aI8
aI10
aI6
aI1
aI1
aI1
aI1
asValgorithm
p518
(lp519
I3
aI1
aI1
aI1
aI19
aI18
aI3
aI3
aI1
asVrule
p520
(lp521
I1
aI1
aI1
aI24
assVobject
p522
(dp523
Vtype
p524
(lp525
I1
aI1
aI20
aI1
asVlearn
p526
(lp527
I1
aI1
aI1
aI1
aI1
aI3
aI18
aI5
aI1
aI2
aI1
aI1
asVorient
p528
(lp529
I6
aI2
aI17
asVsystem
p530
(lp531
I1
aI1
aI1
aI8
aI2
aI19
aI3
asVset
p532
(lp533
I1
aI1
aI1
aI1
aI18
aI1
aI1
aI6
asVframe
p534
(lp535
I3
aI18
asVstate
p536
(lp537
I1
aI19
aI1
aI1
aI3
aI2
aI1
aI1
aI5
aI2
asVball
p538
(lp539
I16
aI3
asVhypothesi
p540
(lp541
I4
aI16
assVphase
p542
(dp543
Vmatch
p544
(lp545
I20
aI11
aI7
asVconflict
p546
(lp547
I17
aI4
aI4
assVdog
p548
(dp549
Vtail
p550
(lp551
I11
aI19
asVbark
p552
(lp553
I7
aI20
asVleg
p554
(lp555
I4
aI20
aI29
aI5
aI7
asVinstanc
p556
(lp557
I5
aI21
asVjimmi
p558
(lp559
I2
aI17
asVproposit
p560
(lp561
I16
aI3
aI1
asVfido
p562
(lp563
I50
aI43
aI11
asVinherit
p564
(lp565
I20
aI1
assVnotion
p566
(dp567
g75
(lp568
I2
aI19
aI1
assVinvolv
p569
(dp570
Vconstraint
p571
(lp572
I1
aI24
aI4
assVconfigur
p573
(dp574
Vstate
p575
(lp576
I23
aI4
assVpredecessor
p577
(dp578
Vsuccessor
p579
(lp580
I1
aI21
assVstop
p581
(dp582
Vgrow
p583
(lp584
I1
aI31
aI1
asVtree
p585
(lp586
I2
aI3
aI1
aI2
aI33
aI1
assg15
(dp587
g13
(lp588
I6
aI23
assVoptimum
p589
(dp590
Vsolut
p591
(lp592
I1
aI8
aI12
aI18
aI8
asVpath
p593
(lp594
I16
aI6
aI2
aI3
asVgoal
p595
(lp596
I2
aI16
aI8
assVbest
p597
(dp598
Vsearch
p599
(lp600
I2
aI10
aI12
aI18
aI1
aI1
aI3
aI4
asVmove
p601
(lp602
I6
aI12
aI16
asVattribut
p603
(lp604
I29
aI2
asVhypothesi
p605
(lp606
I31
aI18
aI1
assVattribut
p607
(dp608
Vdecis
p609
(lp610
I1
aI50
aI15
aI1
asg315
(lp611
I20
aI1
aI2
asVselect
p612
(lp613
I22
aI10
asVtrain
p614
(lp615
I5
aI34
aI10
aI10
asg425
(lp616
I19
aI4
asVinform
p617
(lp618
I1
aI21
aI2
asVorder
p619
(lp620
I4
aI17
aI1
aI1
aI1
asVnumber
p621
(lp622
I4
aI17
aI2
aI3
aI6
aI1
aI10
asVtarget
p623
(lp624
I2
aI16
aI1
asVtree
p625
(lp626
I34
aI22
aI1
asVclass
p627
(lp628
I1
aI1
aI8
aI1
aI15
aI8
aI20
asVset
p629
(lp630
I1
aI2
aI8
aI22
aI10
aI5
asVbest
p631
(lp632
I29
aI3
asVvalu
p633
(lp634
I4
aI8
aI3
aI4
aI26
aI37
aI5
asVexampl
p635
(lp636
I1
aI3
aI6
aI47
aI13
aI7
asVbranch
p637
(lp638
I16
aI6
asVnode
p639
(lp640
I6
aI1
aI39
aI22
assVlogic
p641
(dp642
Vfals
p643
(lp644
I22
aI3
aI1
aI3
aI1
aI2
asVorder
p645
(lp646
I2
aI30
aI45
aI8
aI2
aI4
aI2
aI3
asg335
(lp647
I5
aI25
aI10
aI46
aI7
asVoper
p648
(lp649
I24
aI2
aI8
aI5
asVproposit
p650
(lp651
I57
aI20
aI63
aI8
aI26
aI5
aI5
aI2
aI1
aI2
asVfuzzi
p652
(lp653
I8
aI18
asg255
(lp654
I53
aI33
aI30
aI4
aI2
aI6
asVset
p655
(lp656
I8
aI12
aI5
aI1
aI1
aI17
aI9
asVresolut
p657
(lp658
I1
aI20
asVlanguag
p659
(lp660
I21
aI4
aI1
aI1
aI3
asVform
p661
(lp662
I7
aI3
aI18
aI5
aI2
aI5
aI2
aI1
aI1
aI1
asg271
(lp663
I3
aI18
aI1
aI1
aI2
aI5
assVstrong
p664
(dp665
Vfever
p666
(lp667
I46
aI2
assVtrigger
p668
(dp669
Vrule
p670
(lp671
I50
aI23
assVlife
p672
(dp673
Vnelli
p674
(lp675
I16
aI1
assVchild
p676
(dp677
Vevalu
p678
(lp679
I1
aI37
aI5
asVnode
p680
(lp681
I13
aI4
aI13
aI62
aI1
aI1
aI9
aI5
aI2
asVmax
p682
(lp683
I2
aI26
assVdeepen
p684
(dp685
Vsearch
p686
(lp687
I8
aI16
aI12
aI16
aI2
aI3
asViter
p688
(lp689
I3
aI11
aI5
aI30
aI5
aI1
assVproperti
p690
(dp691
Vmammal
p692
(lp693
I5
aI16
aI2
asVgeneric
p694
(lp695
I20
aI4
asVclass
p696
(lp697
I1
aI18
aI4
asVinherit
p698
(lp699
I15
aI47
aI2
assVtabl
p700
(dp701
Vmove
p702
(lp703
I2
aI2
aI3
aI29
aI32
asViniti
p704
(lp705
I2
aI1
aI1
aI17
aI11
asVachiev
p706
(lp707
I1
aI6
aI19
aI1
asVtruth
p708
(lp709
I18
aI4
aI1
asVstate
p710
(lp711
I1
aI2
aI3
aI4
aI25
aI14
asVaction
p712
(lp713
I10
aI3
aI16
aI11
aI1
asVagent
p714
(lp715
I21
aI4
assVdisprov
p716
(dp717
Vprove
p718
(lp719
I9
aI4
aI19
assVplayer
p720
(dp721
Vmove
p722
(lp723
I31
aI8
asVgame
p724
(lp725
I2
aI37
aI11
asVmax
p726
(lp727
I24
aI7
assVmadonna
p728
(dp729
Vmarcus
p730
(lp731
I27
aI4
assg366
(dp732
g364
(lp733
I2
aI31
aI15
assVmake
p734
(dp735
Vfals
p736
(lp737
I1
aI47
aI2
aI3
asg207
(lp738
I2
aI16
aI1
asVmove
p739
(lp740
I2
aI35
aI2
aI2
aI1
aI2
asVsentenc
p741
(lp742
I5
aI31
aI4
aI1
aI7
assVevid
p743
(dp744
Vfactor
p745
(lp746
I2
aI19
aI4
aI1
asVhypothesi
p747
(lp748
I26
aI6
aI19
aI15
asVcertainti
p749
(lp750
I1
aI2
aI25
aI4
asVsupport
p751
(lp752
I16
aI9
aI3
asVprobabl
p753
(lp754
I5
aI27
aI14
assVrain
p755
(dp756
Vwet
p757
(lp758
I17
aI13
aI10
asVjuli
p759
(lp760
I2
aI16
aI1
aI6
asVroad
p761
(lp762
I20
aI18
assVhand
p763
(dp764
Vempti
p765
(lp766
I7
aI16
assVsmoki
p767
(dp768
Vhot
p769
(lp770
I8
aI16
asVfire
p771
(lp772
I8
aI16
assVsquar
p773
(dp774
Vperfect
p775
(lp776
I81
aI8
asVprime
p777
(lp778
I86
aI9
asVnumber
p779
(lp780
I1
aI5
aI2
aI1
aI20
aI1
asVdivid
p781
(lp782
I68
aI2
asVdivis
p783
(lp784
I36
aI9
assVinherit
p785
(dp786
Vproperti
p787
(lp788
I14
aI43
aI2
asVclass
p789
(lp790
I16
aI6
asVdog
p791
(lp792
I22
aI1
assVhuman
p793
(dp794
Vboy
p795
(lp796
I27
aI2
asVlearn
p797
(lp798
I16
aI1
aI1
asVintellig
p799
(lp800
I33
aI1
aI6
aI1
aI3
aI1
aI1
aI1
asVsystem
p801
(lp802
I23
aI1
aI4
aI9
aI1
asVcomput
p803
(lp804
I17
aI1
aI4
aI1
aI4
aI2
aI1
asVexpert
p805
(lp806
I2
aI6
aI16
aI1
aI1
aI1
asVbe
p807
(lp808
I3
aI1
aI1
aI1
aI5
aI4
aI34
aI1
aI1
aI1
assVlanguag
p809
(dp810
Vnatur
p811
(lp812
I24
aI1
aI1
aI2
aI53
aI29
asVprocess
p813
(lp814
I6
aI1
aI1
aI31
aI7
asVproposit
p815
(lp816
I17
aI1
asVexpress
p817
(lp818
I16
aI1
aI1
aI1
aI4
aI2
aI1
asVknowledg
p819
(lp820
I39
aI9
aI4
asg263
(lp821
I19
aI3
aI1
aI1
aI3
asVunderstand
p822
(lp823
I26
aI1
aI11
aI2
aI1
aI18
aI15
assVprevious
p824
(dp825
Vaction
p826
(lp827
I2
aI5
aI3
aI17
assVboard
p828
(dp829
Vqueen
p830
(lp831
I29
aI2
aI14
aI7
assVapplic
p832
(dp833
Vrule
p834
(lp835
I2
aI24
aI2
aI2
aI5
aI2
aI2
aI2
aI3
aI1
aI1
aI1
assVreinforc
p836
(dp837
Vlearn
p838
(lp839
I16
aI5
assVnegat
p840
(dp841
Vliter
p842
(lp843
I7
aI1
aI6
aI19
aI8
aI2
aI2
asVfals
p844
(lp845
I6
aI9
aI22
aI1
aI3
asVconvert
p846
(lp847
I4
aI16
asVscope
p848
(lp849
I2
aI17
asVgoal
p850
(lp851
I4
aI3
aI23
asVsentenc
p852
(lp853
I3
aI24
aI8
asVposit
p854
(lp855
I3
aI3
aI1
aI1
aI10
aI15
aI20
aI31
aI11
aI15
aI6
aI4
asVclass
p856
(lp857
I3
aI13
aI19
aI9
aI1
aI2
asVexampl
p858
(lp859
I8
aI4
aI29
aI12
aI3
aI2
asVhypothesi
p860
(lp861
I2
aI17
aI8
aI2
asVclaus
p862
(lp863
I13
aI3
aI19
aI8
assVmaxim
p864
(dp865
Vagent
p866
(lp867
I18
aI4
assVintern
p868
(dp869
Vnode
p870
(lp871
I16
aI19
assVperceptron
p872
(dp873
g360
(lp874
I21
aI2
assVsubclass
p875
(dp876
g789
(lp877
I19
aI12
assg376
(dp878
g374
(lp879
I1
aI29
asVquantifi
p880
(lp881
I16
aI51
aI22
aI2
asVelimin
p882
(lp883
I24
aI5
assVeleph
p884
(dp885
Vnelli
p886
(lp887
I38
aI6
asg556
(lp888
I18
aI3
assVcondit
p889
(dp890
Vaction
p891
(lp892
I1
aI6
aI9
aI6
aI13
aI26
aI2
asVgoal
p893
(lp894
I4
aI1
aI4
aI16
aI11
aI1
asVprecondit
p895
(lp896
I3
aI2
aI22
aI3
asVachiev
p897
(lp898
I1
aI7
aI19
aI2
aI1
asVplan
p899
(lp900
I6
aI1
aI28
aI16
aI1
asVlink
p901
(lp902
I2
aI23
asVprobabl
p903
(lp904
I5
aI35
aI32
aI3
asVnode
p905
(lp906
I5
aI16
asVrule
p907
(lp908
I18
aI10
aI2
aI5
aI4
aI20
aI1
assVsuper
p909
(dp910
Vclass
p911
(lp912
I5
aI8
aI18
assVpli
p913
(dp914
Vsearch
p915
(lp916
I6
aI62
assVdinner
p917
(dp918
Vaction
p919
(lp920
I1
aI17
assVbound
p921
(dp922
Vration
p923
(lp924
I1
aI18
aI6
asVnode
p925
(lp926
I2
aI19
assVsupport
p927
(dp928
Vhypothesi
p929
(lp930
I16
aI1
aI1
asVevid
p931
(lp932
I17
aI8
aI3
assVclass
p933
(dp934
g189
(lp935
I15
aI19
aI1
aI1
asVfals
p936
(lp937
I6
aI23
asVmammal
p938
(lp939
I1
aI1
aI9
aI21
asVroom
p940
(lp941
I7
aI18
aI1
asVlearn
p942
(lp943
I10
aI20
aI7
aI2
aI2
aI2
asVtree
p944
(lp945
I3
aI1
aI13
aI23
aI1
asVposit
p946
(lp947
I1
aI3
aI14
aI21
aI18
aI1
aI3
asg165
(lp948
I11
aI22
aI4
asVframe
p949
(lp950
I16
aI2
asVattribut
p951
(lp952
I1
aI1
aI8
aI1
aI13
aI9
aI19
asVinstanc
p953
(lp954
I3
aI10
aI25
aI9
aI12
aI2
aI9
asVproperti
p955
(lp956
I1
aI16
aI5
asVinherit
p957
(lp958
I18
aI4
asg635
(lp959
I1
aI1
aI2
aI7
aI19
aI18
aI1
aI8
asVnegat
p960
(lp961
I2
aI13
aI19
aI8
aI1
aI2
asVsubclass
p962
(lp963
I20
aI12
asVprobabl
p964
(lp965
I3
aI18
asVnode
p966
(lp967
I1
aI5
aI17
aI14
assVmedium
p968
(dp969
Vset
p970
(lp971
I24
aI4
asVheight
p972
(lp973
I27
aI1
asVinch
p974
(lp975
I23
aI1
assVform
p976
(dp977
Vclaus
p978
(lp979
I24
aI10
aI14
asVclausal
p980
(lp981
I46
aI9
aI43
aI23
asVconjunct
p982
(lp983
I17
aI18
aI1
asVtom
p984
(lp985
I17
aI2
asVproposit
p986
(lp987
I11
aI24
aI10
aI2
aI8
aI3
aI1
aI1
aI1
asVnormal
p988
(lp989
I17
aI6
aI3
asVdisjunct
p990
(lp991
I13
aI2
aI24
aI3
aI1
asVlogic
p992
(lp993
I9
aI3
aI18
aI5
aI3
aI4
aI2
aI1
aI1
asVconvert
p994
(lp995
I27
aI5
aI4
aI31
aI10
asVrule
p996
(lp997
I2
aI3
aI20
aI4
aI3
aI8
aI3
aI2
aI2
aI1
aI2
assVexist
p998
(dp999
Vprime
p1000
(lp1001
I22
aI2
asVsentenc
p1002
(lp1003
I8
aI24
asVplan
p1004
(lp1005
I2
aI2
aI18
assVcheck
p1006
(dp1007
Vdomain
p1008
(lp1009
I2
aI36
asVarc
p1010
(lp1011
I3
aI16
asVvariabl
p1012
(lp1013
I5
aI18
asVconstraint
p1014
(lp1015
I6
aI22
aI6
asVassign
p1016
(lp1017
I5
aI16
asVforward
p1018
(lp1019
I4
aI2
aI13
aI28
asVconsist
p1020
(lp1021
I8
aI16
aI2
asVnode
p1022
(lp1023
I1
aI2
aI24
aI2
aI3
aI1
aI2
aI8
assVtest
p1024
(dp1025
Vset
p1026
(lp1027
I1
aI9
aI18
aI3
assVnode
p1028
(dp1029
Vbreadth
p1030
(lp1031
I33
aI2
aI1
asVconcept
p1032
(lp1033
I16
aI3
asVwhose
p1034
(lp1035
I1
aI15
aI18
aI7
aI11
asVgraph
p1036
(lp1037
I4
aI6
aI17
aI4
aI1
aI9
aI3
aI12
aI5
aI1
asVdecis
p1038
(lp1039
I36
aI17
asVutil
p1040
(lp1041
I46
aI2
asVlevel
p1042
(lp1043
I34
aI10
aI3
aI1
aI2
aI1
aI8
asViter
p1044
(lp1045
I3
aI5
aI47
aI2
aI4
aI1
asVcost
p1046
(lp1047
I4
aI9
aI55
aI5
aI27
aI1
asVpath
p1048
(lp1049
I7
aI9
aI64
aI29
aI13
aI40
aI1
aI1
aI2
aI1
aI46
aI2
asVvalu
p1050
(lp1051
I9
aI5
aI1
aI32
aI3
aI1
aI5
aI6
aI4
aI1
asVsearch
p1052
(lp1053
I15
aI75
aI81
aI35
aI18
aI35
aI13
aI4
aI3
aI2
aI2
aI1
aI2
asVaction
p1054
(lp1055
I1
aI1
aI18
asVheurist
p1056
(lp1057
I1
aI30
aI7
aI2
aI1
aI1
asVselect
p1058
(lp1059
I19
aI2
aI11
aI2
aI1
aI4
aI2
asVexplor
p1060
(lp1061
I3
aI21
aI1
aI2
aI3
asVgoal
p1062
(lp1063
I9
aI50
aI80
aI10
aI10
aI3
aI7
aI10
aI2
asg218
(lp1064
I2
aI1
aI32
aI2
asVmax
p1065
(lp1066
I36
aI152
asVorder
p1067
(lp1068
I25
aI22
aI6
aI5
aI24
aI1
aI3
aI1
aI1
aI5
aI2
asVmove
p1069
(lp1070
I10
aI11
aI17
asVle
p1071
(lp1072
I2
aI24
aI2
aI52
aI2
aI1
asVreturn
p1073
(lp1074
I16
aI4
aI8
aI4
aI6
aI8
aI5
aI1
asViniti
p1075
(lp1076
I6
aI20
aI9
aI8
aI10
aI10
aI3
aI1
aI1
aI1
aI4
asVbound
p1077
(lp1078
I2
aI17
asVsuccessor
p1079
(lp1080
I18
aI21
aI23
aI4
aI12
aI8
aI3
asVevent
p1081
(lp1082
I1
aI17
asVfring
p1083
(lp1084
I30
aI59
aI27
aI6
aI17
asVnumber
p1085
(lp1086
I13
aI13
aI35
aI13
aI16
aI5
aI2
aI2
aI4
aI3
asVprune
p1087
(lp1088
I6
aI6
aI37
aI4
aI44
asg401
(lp1089
I17
aI6
aI7
aI20
aI4
aI9
asVtree
p1090
(lp1091
I3
aI33
aI21
aI7
aI33
aI31
aI5
aI2
aI1
aI10
aI19
aI57
asVcomput
p1092
(lp1093
I2
aI2
aI4
aI16
aI10
aI10
asVmin
p1094
(lp1095
I20
aI148
asVclass
p1096
(lp1097
I1
aI5
aI18
aI13
asVsolut
p1098
(lp1099
I3
aI21
aI4
aI3
aI1
aI2
asVset
p1100
(lp1101
I1
aI4
aI13
aI1
aI4
aI11
aI1
aI8
aI2
aI33
aI4
aI9
asVclose
p1102
(lp1103
I21
aI11
aI1
aI1
asVstate
p1104
(lp1105
I24
aI22
aI31
aI8
aI13
aI5
aI7
aI8
aI5
aI1
aI1
aI3
asVattribut
p1106
(lp1107
I4
aI41
aI21
asVimprov
p1108
(lp1109
I7
aI17
asVcolor
p1110
(lp1111
I1
aI32
aI8
aI1
asg676
(lp1112
I12
aI4
aI10
aI66
aI1
aI1
aI8
aI6
aI2
asVexpand
p1113
(lp1114
I11
aI73
aI118
aI88
aI33
aI26
aI1
aI1
aI2
asVnetwork
p1115
(lp1116
I6
aI1
aI17
asVback
p1117
(lp1118
I11
aI13
aI19
asVintern
p1119
(lp1120
I15
aI20
asVleaf
p1121
(lp1122
I2
aI24
aI12
aI10
aI2
aI24
aI3
asVcondit
p1123
(lp1124
I4
aI1
aI17
asVida
p1125
(lp1126
I4
aI26
aI3
asVcutoff
p1127
(lp1128
I3
aI2
aI23
asVfunction
p1129
(lp1130
I5
aI27
aI6
aI9
aI6
asVlimit
p1131
(lp1132
I15
aI18
aI18
aI1
aI1
aI1
asVevalu
p1133
(lp1134
I3
aI4
aI79
aI1
asVgenerat
p1135
(lp1136
I9
aI38
aI33
aI14
aI7
aI1
aI1
asVcheck
p1137
(lp1138
I2
aI23
aI3
aI4
aI1
aI2
aI9
asVprobabl
p1139
(lp1140
I27
aI3
asg273
(lp1141
I60
aI9
aI14
aI4
aI6
aI2
aI1
aI1
aI1
asValgorithm
p1142
(lp1143
I1
aI28
aI12
aI22
aI1
aI5
aI3
aI2
aI3
aI10
aI3
aI1
asVminimax
p1144
(lp1145
I29
aI71
assVsigma
p1146
(dp1147
Vdel
p1148
(lp1149
I2
aI23
assVbackward
p1150
(dp1151
Vchain
p1152
(lp1153
I13
aI1
aI24
asVsearch
p1154
(lp1155
I25
aI6
aI7
aI15
aI35
aI10
aI2
assVbreadth
p1156
(dp1157
Vsearch
p1158
(lp1159
I8
aI71
aI23
aI12
aI5
aI3
aI8
aI2
asg269
(lp1160
I32
aI3
aI1
asVexpand
p1161
(lp1162
I17
aI2
aI1
asVdepth
p1163
(lp1164
I2
aI23
aI2
aI2
aI1
aI1
aI3
assVconcept
p1165
(dp1166
Vknowledg
p1167
(lp1168
I17
aI1
aI1
aI2
asVnetwork
p1169
(lp1170
I17
aI1
assVchain
p1171
(dp1172
Vforward
p1173
(lp1174
I11
aI18
asVrule
p1175
(lp1176
I7
aI5
aI3
aI17
aI9
aI13
aI3
aI1
asVbackward
p1177
(lp1178
I13
aI1
aI23
assVmilk
p1179
(dp1180
Vmammal
p1181
(lp1182
I3
aI42
aI1
aI2
aI3
asVtom
p1183
(lp1184
I2
aI63
aI8
asg455
(lp1185
I3
aI16
asVdrink
p1186
(lp1187
I3
aI54
aI1
aI1
aI15
assVsubstitut
p1188
(dp1189
Vunifi
p1190
(lp1191
I17
aI4
assVdecis
p1192
(dp1193
Vlinear
p1194
(lp1195
I5
aI16
asVtrain
p1196
(lp1197
I1
aI32
aI5
aI2
aI3
asVlearn
p1198
(lp1199
I19
aI5
aI4
aI2
aI2
aI1
asVsurfac
p1200
(lp1201
I11
aI26
asg482
(lp1202
I24
aI4
asVconstruct
p1203
(lp1204
I21
aI4
asVtree
p1205
(lp1206
I3
aI1
aI192
aI98
aI19
aI3
aI6
aI1
asVclass
p1207
(lp1208
I17
aI17
aI2
aI1
asVprune
p1209
(lp1210
I3
aI21
asVset
p1211
(lp1212
I4
aI3
aI1
aI19
aI10
asVattribut
p1213
(lp1214
I1
aI45
aI14
aI1
asVleaf
p1215
(lp1216
I18
aI1
aI4
asVnode
p1217
(lp1218
I34
aI17
asValgorithm
p1219
(lp1220
I2
aI22
aI17
aI3
aI3
aI1
asVrule
p1221
(lp1222
I3
aI2
aI3
aI2
aI2
aI1
aI22
assVhardwork
p1223
(dp1224
Vintellig
p1225
(lp1226
I14
aI18
assVcook
p1227
(dp1228
g919
(lp1229
I1
aI16
assVlevel
p1230
(dp1231
Vbird
p1232
(lp1233
I19
aI1
asVgoal
p1234
(lp1235
I1
aI4
aI1
aI22
aI1
asVanim
p1236
(lp1237
I23
aI1
asVproposit
p1238
(lp1239
I3
aI1
aI60
asVplan
p1240
(lp1241
I54
aI2
asVstate
p1242
(lp1243
I1
aI1
aI38
aI5
asVattribut
p1244
(lp1245
I18
aI1
aI2
asVexpand
p1246
(lp1247
I16
aI6
aI1
aI7
asVnode
p1248
(lp1249
I35
aI10
aI3
aI1
aI1
aI1
aI9
assg688
(dp1250
Vnumber
p1251
(lp1252
I1
aI2
aI18
aI1
asVlimit
p1253
(lp1254
I2
aI1
aI21
aI1
asg686
(lp1255
I10
aI18
aI11
aI25
aI4
aI4
asg684
(lp1256
I3
aI11
aI5
aI28
aI6
aI1
asVnode
p1257
(lp1258
I3
aI5
aI44
aI3
aI4
aI1
asVexpand
p1259
(lp1260
I3
aI4
aI29
aI2
asVdepth
p1261
(lp1262
I1
aI13
aI5
aI17
aI1
assVround
p1263
(dp1264
Vball
p1265
(lp1266
I4
aI22
assVheight
p1267
(dp1268
Vset
p1269
(lp1270
I37
aI12
aI1
asVmembership
p1271
(lp1272
I17
aI9
asVjohn
p1273
(lp1274
I18
aI1
asVinch
p1275
(lp1276
I28
aI3
assg886
(dp1277
Veleph
p1278
(lp1279
I37
aI6
asVlife
p1280
(lp1281
I19
aI1
asg556
(lp1282
I21
aI4
assVthreshold
p1283
(dp1284
g99
(lp1285
I21
aI10
asg387
(lp1286
I46
aI12
assVcost
p1287
(dp1288
Vstate
p1289
(lp1290
I7
aI5
aI8
aI17
aI12
asVpath
p1291
(lp1292
I7
aI12
aI36
aI10
aI7
aI1
aI6
aI3
asVfring
p1293
(lp1294
I1
aI3
aI38
asVsearch
p1295
(lp1296
I8
aI16
aI22
aI5
aI19
aI1
asVgoal
p1297
(lp1298
I5
aI6
aI34
aI5
aI4
asVnode
p1299
(lp1300
I4
aI7
aI55
aI7
aI23
aI1
asVexpand
p1301
(lp1302
I1
aI8
aI1
aI19
assVcurrent
p1303
(dp1304
Vpath
p1305
(lp1306
I18
aI14
aI2
aI7
asVaction
p1307
(lp1308
I15
aI4
aI10
aI43
aI3
aI4
asVagent
p1309
(lp1310
I23
aI10
aI3
aI3
asVgoal
p1311
(lp1312
I5
aI4
aI1
aI1
aI47
aI1
aI5
asVdomain
p1313
(lp1314
I19
aI4
asVassign
p1315
(lp1316
I22
aI2
aI3
asVstate
p1317
(lp1318
I6
aI26
aI6
aI10
aI47
aI3
aI1
asVhypothesi
p1319
(lp1320
I19
aI1
asVnode
p1321
(lp1322
I5
aI4
aI9
aI16
aI8
aI4
aI2
aI14
aI4
assVlearn
p1323
(dp1324
Vdecis
p1325
(lp1326
I1
aI18
aI4
aI4
aI2
aI2
aI1
asVinduct
p1327
(lp1328
I1
aI16
aI11
aI1
aI2
asg125
(lp1329
I1
aI4
aI1
aI19
aI2
aI1
aI4
aI3
aI1
asVtrain
p1330
(lp1331
I22
aI23
aI6
aI6
aI7
aI4
aI4
aI4
asVagent
p1332
(lp1333
I1
aI28
aI1
aI2
aI1
asg836
(lp1334
I16
aI6
asVnetwork
p1335
(lp1336
I1
aI1
aI7
aI17
aI6
aI2
asVsystem
p1337
(lp1338
I4
aI1
aI39
aI4
aI1
aI1
asVtree
p1339
(lp1340
I1
aI17
aI7
aI4
aI3
aI1
aI1
asVobject
p1341
(lp1342
I1
aI1
aI1
aI1
aI1
aI4
aI17
aI5
aI1
aI3
aI1
aI1
asg496
(lp1343
I1
aI9
aI19
aI6
aI2
aI3
aI2
asVset
p1344
(lp1345
I32
aI36
aI3
aI4
aI2
asVlabel
p1346
(lp1347
I16
aI1
asVbayesian
p1348
(lp1349
I1
aI30
asVperform
p1350
(lp1351
I3
aI16
aI4
aI1
aI2
asVtask
p1352
(lp1353
I2
aI28
aI1
aI4
aI8
aI4
asVexampl
p1354
(lp1355
I38
aI17
aI2
aI1
aI4
aI1
asVhypothesi
p1356
(lp1357
I26
aI38
aI1
aI23
asVmachin
p1358
(lp1359
I4
aI4
aI1
aI1
aI34
aI6
aI2
aI1
aI3
aI2
aI10
asValgorithm
p1360
(lp1361
I1
aI3
aI3
aI6
aI19
aI10
aI9
aI9
aI25
aI14
assVboy
p1362
(dp1363
Vhuman
p1364
(lp1365
I23
aI2
assVsemant
p1366
(dp1367
Vnet
p1368
(lp1369
I30
aI65
aI19
aI1
aI6
aI7
asg37
(lp1370
I1
aI19
aI1
assVdiscus
p1371
(dp1372
Vlearn
p1373
(lp1374
I1
aI17
assVprove
p1375
(dp1376
Vangl
p1377
(lp1378
I18
aI6
asg716
(lp1379
I10
aI4
aI17
asg850
(lp1380
I7
aI1
aI16
aI57
aI8
asVrule
p1381
(lp1382
I3
aI32
aI16
assVunivers
p1383
(dp1384
g880
(lp1385
I18
aI27
aI13
asVelimin
p1386
(lp1387
I17
aI2
assVpercept
p1388
(dp1389
Vaction
p1390
(lp1391
I28
aI2
aI1
asg411
(lp1392
I48
aI13
aI1
aI1
assVscope
p1393
(dp1394
Vnegat
p1395
(lp1396
I1
aI17
assVclaus
p1397
(dp1398
Vnegat
p1399
(lp1400
I12
aI3
aI18
aI7
asVresolv
p1401
(lp1402
I44
aI3
aI50
asVset
p1403
(lp1404
I1
aI16
aI1
aI10
asVdisjunct
p1405
(lp1406
I20
aI13
aI1
asVabc
p1407
(lp1408
I16
aI9
asVselect
p1409
(lp1410
I18
aI2
aI16
asVform
p1411
(lp1412
I23
aI11
aI14
asVresolut
p1413
(lp1414
I15
aI1
aI16
asg17
(lp1415
I22
aI5
aI25
asVnull
p1416
(lp1417
I18
aI2
aI18
assVcat
p1418
(dp1419
Vmammal
p1420
(lp1421
I27
aI10
assVfli
p1422
(dp1423
Vbird
p1424
(lp1425
I76
aI27
aI16
aI8
asVostrich
p1426
(lp1427
I2
aI23
aI19
aI4
assVunassign
p1428
(dp1429
Vvariabl
p1430
(lp1431
I17
aI3
assVagent
p1432
(dp1433
Vutil
p1434
(lp1435
I32
aI6
asVdesign
p1436
(lp1437
I21
aI2
aI1
asVcurrent
p1438
(lp1439
I23
aI11
aI3
aI4
asg1390
(lp1440
I105
aI58
aI4
aI2
aI58
aI35
aI2
aI1
aI8
aI2
asVpercept
p1441
(lp1442
I48
aI12
aI2
aI1
asVlearn
p1443
(lp1444
I1
aI27
aI1
aI1
asVgoal
p1445
(lp1446
I60
aI34
aI4
aI22
aI20
asVperform
p1447
(lp1448
I36
aI14
aI2
aI5
asVorder
p1449
(lp1450
I18
aI2
aI1
aI1
aI1
asVoper
p1451
(lp1452
I23
aI17
aI2
aI6
asVachiev
p1453
(lp1454
I17
aI3
aI15
aI8
asVintellig
p1455
(lp1456
I9
aI45
aI5
aI7
aI3
asVsensor
p1457
(lp1458
I19
aI6
aI1
asg700
(lp1459
I21
aI5
asg279
(lp1460
I163
aI32
aI18
aI5
aI11
asVreach
p1461
(lp1462
I16
aI1
aI2
aI3
asVplan
p1463
(lp1464
I1
aI5
aI4
aI1
aI21
aI5
aI1
asVknowledg
p1465
(lp1466
I21
aI1
aI2
asVstate
p1467
(lp1468
I25
aI92
aI10
aI3
aI19
aI40
aI1
asVunderstand
p1469
(lp1470
I18
aI2
asVcharacter
p1471
(lp1472
I16
aI2
asVtake
p1473
(lp1474
I5
aI16
aI1
aI13
aI3
asVworld
p1475
(lp1476
I13
aI21
aI3
asg864
(lp1477
I22
aI4
asVration
p1478
(lp1479
I4
aI60
aI11
asVact
p1480
(lp1481
I2
aI29
aI2
asVquestion
p1482
(lp1483
I1
aI22
aI26
aI1
aI2
asVarchitectur
p1484
(lp1485
I28
aI6
assVphrase
p1486
(dp1487
Vverb
p1488
(lp1489
I19
aI3
asVnoun
p1490
(lp1491
I37
aI3
assVoccur
p1492
(dp1493
Vevent
p1494
(lp1495
I16
aI2
asVprobabl
p1496
(lp1497
I66
aI21
aI2
assVdifferenti
p1498
(dp1499
Vfunction
p1500
(lp1501
I16
aI24
assVmap
p1502
(dp1503
Vregion
p1504
(lp1505
I2
aI23
aI4
aI1
asVcolor
p1506
(lp1507
I4
aI35
aI16
assVmax
p1508
(dp1509
Vvalu
p1510
(lp1511
I1
aI16
aI2
aI3
asVchild
p1512
(lp1513
I1
aI22
asVplayer
p1514
(lp1515
I26
aI7
asVnode
p1516
(lp1517
I33
aI157
asVmin
p1518
(lp1519
I22
aI54
aI16
asg1144
(lp1520
I16
aI23
assVdata
p1521
(dp1522
Vdecis
p1523
(lp1524
I1
aI2
aI1
aI17
aI6
aI1
aI3
aI1
asVtrain
p1525
(lp1526
I4
aI54
aI14
aI25
aI10
aI6
aI15
aI5
asg285
(lp1527
I2
aI27
aI1
aI11
aI2
aI8
asVprune
p1528
(lp1529
I1
aI16
asg1205
(lp1530
I1
aI16
aI26
aI1
aI3
aI1
asVset
p1531
(lp1532
I2
aI1
aI3
aI15
aI5
aI39
aI5
aI2
asVerror
p1533
(lp1534
I9
aI3
aI20
asVhypothesi
p1535
(lp1536
I11
aI9
aI1
aI10
aI22
asVprobabl
p1537
(lp1538
I1
aI19
aI1
assVgrow
p1539
(dp1540
Vstop
p1541
(lp1542
I1
aI28
aI1
asVtree
p1543
(lp1544
I4
aI5
aI60
aI1
assVman
p1545
(dp1546
Vmarcus
p1547
(lp1548
I17
aI5
asVmammal
p1549
(lp1550
I5
aI50
aI19
asVtom
p1551
(lp1552
I4
aI100
aI10
aI1
asVdrink
p1553
(lp1554
I3
aI17
asg449
(lp1555
I3
aI35
aI2
aI4
assVnoun
p1556
(dp1557
Vverb
p1558
(lp1559
I2
aI20
asVphrase
p1560
(lp1561
I34
aI3
assg781
(dp1562
Vperfect
p1563
(lp1564
I33
aI1
asVprime
p1565
(lp1566
I62
aI1
asVexist
p1567
(lp1568
I16
aI1
asVsquar
p1569
(lp1570
I69
aI2
assVexplicit
p1571
(dp1572
Vstate
p1573
(lp1574
I17
aI6
aI1
assg255
(dp1575
Vsentenc
p1576
(lp1577
I8
aI60
aI10
aI1
aI1
asVset
p1578
(lp1579
I1
aI3
aI17
asVorder
p1580
(lp1581
I7
aI18
aI11
aI1
aI3
asVlogic
p1582
(lp1583
I48
aI32
aI31
aI4
aI2
aI5
asVproposit
p1584
(lp1585
I43
aI2
aI11
aI2
aI1
asVvalid
p1586
(lp1587
I31
aI3
asVvariabl
p1588
(lp1589
I20
aI2
aI5
assVinform
p1590
(dp1591
Vsearch
p1592
(lp1593
I7
aI10
aI28
aI4
aI1
aI1
aI1
asVretriev
p1594
(lp1595
I1
aI17
aI3
asVattribut
p1596
(lp1597
I1
aI18
aI3
assVcombin
p1598
(dp1599
Vfactor
p1600
(lp1601
I1
aI19
aI2
asVcertainti
p1602
(lp1603
I1
aI23
aI2
asVrule
p1604
(lp1605
I34
aI2
assVtall
p1606
(dp1607
Vset
p1608
(lp1609
I33
aI37
asVheight
p1610
(lp1611
I1
aI17
aI15
asVfuzzi
p1612
(lp1613
I15
aI28
asVsentenc
p1614
(lp1615
I27
aI3
asVmembership
p1616
(lp1617
I25
aI15
assg1125
(dp1618
Vspace
p1619
(lp1620
I16
aI3
asVnode
p1621
(lp1622
I4
aI25
aI2
asVexpand
p1623
(lp1624
I1
aI25
aI2
assVconjunct
p1625
(dp1626
Vdisjunct
p1627
(lp1628
I10
aI1
aI39
aI6
aI1
asVform
p1629
(lp1630
I17
aI18
aI1
assViniti
p1631
(dp1632
Vaction
p1633
(lp1634
I8
aI11
aI17
aI13
aI15
asVagent
p1635
(lp1636
I16
aI1
aI11
aI1
asVgoal
p1637
(lp1638
I15
aI10
aI1
aI2
aI4
aI2
aI4
aI11
aI17
aI23
aI4
aI1
asVachiev
p1639
(lp1640
I2
aI1
aI20
aI3
asVtabl
p1641
(lp1642
I2
aI1
aI16
aI9
asVplan
p1643
(lp1644
I2
aI8
aI22
aI35
aI8
asg281
(lp1645
I70
aI39
aI3
aI12
aI11
aI8
aI41
aI58
aI75
aI33
asVnode
p1646
(lp1647
I5
aI19
aI9
aI7
aI9
aI10
aI4
aI1
aI1
aI1
aI1
aI4
assVanteced
p1648
(dp1649
Vevalu
p1650
(lp1651
I4
aI4
aI20
asVrule
p1652
(lp1653
I2
aI38
aI10
aI3
aI13
aI4
aI7
aI15
aI1
aI2
assVsepar
p1654
(dp1655
Vpoint
p1656
(lp1657
I20
aI10
asVlinear
p1658
(lp1659
I19
aI6
assVconfid
p1660
(dp1661
Vrule
p1662
(lp1663
I18
aI2
assVdomain
p1664
(dp1665
Vblue
p1666
(lp1667
I4
aI17
asVcurrent
p1668
(lp1669
I18
aI4
asVvalu
p1670
(lp1671
I16
aI28
aI1
asVvariabl
p1672
(lp1673
I33
aI33
aI1
aI1
asVassign
p1674
(lp1675
I20
aI33
asVconstraint
p1676
(lp1677
I13
aI37
asVconsist
p1678
(lp1679
I4
aI16
asVcheck
p1680
(lp1681
I4
aI39
assVspace
p1682
(dp1683
Vversion
p1684
(lp1685
I1
aI52
asVimplicit
p1686
(lp1687
I16
aI3
asVsearch
p1688
(lp1689
I2
aI27
aI48
aI25
aI31
aI7
aI10
aI4
aI20
aI14
aI24
aI21
aI3
aI5
aI6
aI1
aI14
aI1
asg1330
(lp1690
I1
aI18
asVrestrict
p1691
(lp1692
I1
aI1
aI16
asg536
(lp1693
I1
aI82
aI77
aI7
aI43
aI6
aI4
aI1
aI2
aI29
aI15
aI2
aI4
asVset
p1694
(lp1695
I4
aI2
aI1
aI1
aI1
aI7
aI7
aI25
aI3
aI2
asVhypothesi
p1696
(lp1697
I43
aI217
aI11
aI41
asVida
p1698
(lp1699
I17
aI3
asVpossibl
p1700
(lp1701
I1
aI3
aI1
aI1
aI4
aI2
aI2
aI5
aI4
aI19
aI2
asValgorithm
p1702
(lp1703
I3
aI15
aI4
aI7
aI1
aI4
aI22
aI1
assg1457
(dp1704
Vagent
p1705
(lp1706
I20
aI6
aI1
assVcorrect
p1707
(dp1708
Vmove
p1709
(lp1710
I32
aI2
asVrule
p1711
(lp1712
I1
aI1
aI16
aI1
assVrefut
p1713
(dp1714
Vresolut
p1715
(lp1716
I2
aI3
aI18
assg1426
(dp1717
Vbird
p1718
(lp1719
I3
aI18
aI20
aI2
asVfli
p1720
(lp1721
I1
aI22
aI19
aI4
assVoppon
p1722
(dp1723
Vmove
p1724
(lp1725
I25
aI1
assVsock
p1726
(dp1727
Vshoe
p1728
(lp1729
I43
aI55
assVsize
p1730
(dp1731
Vtree
p1732
(lp1733
I3
aI3
aI2
aI3
aI20
assVciti
p1734
(dp1735
Vsalesperson
p1736
(lp1737
I1
aI16
aI5
asVtour
p1738
(lp1739
I2
aI17
assVproposit
p1740
(dp1741
Vfals
p1742
(lp1743
I2
aI30
aI17
aI1
aI2
aI6
aI1
asVlevel
p1744
(lp1745
I2
aI1
aI65
asVinterpret
p1746
(lp1747
I31
aI8
aI1
asVaction
p1748
(lp1749
I26
aI6
aI104
asVprecondit
p1750
(lp1751
I2
aI3
aI4
aI22
asg253
(lp1752
I40
aI10
aI6
aI1
aI6
asVcompound
p1753
(lp1754
I30
aI6
aI8
asVtruth
p1755
(lp1756
I13
aI19
aI2
asg73
(lp1757
I38
aI6
aI1
aI1
aI1
aI3
aI2
aI3
asVintellig
p1758
(lp1759
I21
aI7
asVlist
p1760
(lp1761
I19
aI2
asVpredic
p1762
(lp1763
I40
aI2
aI12
aI2
aI1
asVplan
p1764
(lp1765
I4
aI1
aI24
asg175
(lp1766
I1
aI2
aI56
aI18
aI5
aI44
aI1
asg655
(lp1767
I12
aI20
aI4
aI1
aI4
aI1
aI18
asVlogic
p1768
(lp1769
I58
aI17
aI61
aI7
aI27
aI5
aI5
aI2
aI1
aI2
asVvalid
p1770
(lp1771
I32
aI2
aI4
aI7
asVworld
p1772
(lp1773
I22
aI8
aI2
asVachiev
p1774
(lp1775
I1
aI21
asVform
p1776
(lp1777
I12
aI24
aI9
aI2
aI8
aI3
aI1
aI1
aI1
asVsymbol
p1778
(lp1779
I1
aI19
aI1
assVposit
p1780
(dp1781
Vfals
p1782
(lp1783
I7
aI21
aI1
aI6
asVmove
p1784
(lp1785
I1
aI29
aI2
aI33
aI5
aI1
asVclass
p1786
(lp1787
I1
aI3
aI13
aI21
aI19
aI3
asVqueen
p1788
(lp1789
I19
aI20
asVregion
p1790
(lp1791
I2
aI2
aI7
aI23
asg858
(lp1792
I9
aI8
aI31
aI12
aI3
aI2
asVhypothesi
p1793
(lp1794
I18
aI10
aI4
asVgame
p1795
(lp1796
I20
aI6
asVnegat
p1797
(lp1798
I3
aI3
aI1
aI1
aI12
aI16
aI18
aI31
aI11
aI14
aI4
aI6
asVpower
p1799
(lp1800
I2
aI16
assVsay
p1801
(dp1802
Vrule
p1803
(lp1804
I9
aI17
aI5
aI4
assVdoorbel
p1805
(dp1806
Vreason
p1807
(lp1808
I16
aI1
asVring
p1809
(lp1810
I20
aI11
aI4
asVimplic
p1811
(lp1812
I19
aI2
asg185
(lp1813
I39
aI12
aI4
asg181
(lp1814
I45
aI13
aI2
asVprobabl
p1815
(lp1816
I3
aI25
aI6
assVtake
p1817
(dp1818
Vstate
p1819
(lp1820
I30
aI9
aI3
aI8
assg279
(dp1821
Vpartial
p1822
(lp1823
I18
aI7
aI2
asg1390
(lp1824
I35
aI6
aI6
aI5
aI3
asg1451
(lp1825
I18
aI2
aI2
asVepisod
p1826
(lp1827
I29
aI3
asVdeterminist
p1828
(lp1829
I30
aI5
aI4
asVstochast
p1830
(lp1831
I21
aI3
asVobserv
p1832
(lp1833
I43
aI7
aI1
aI9
asg277
(lp1834
I171
aI31
aI20
aI6
aI10
assVnormal
p1835
(dp1836
Vform
p1837
(lp1838
I1
aI17
aI6
aI3
assg1405
(dp1839
Vconjunct
p1840
(lp1841
I9
aI1
aI38
aI1
aI6
aI1
asg862
(lp1842
I19
aI12
aI1
asVform
p1843
(lp1844
I17
aI2
aI26
aI3
aI1
assVshoe
p1845
(dp1846
g1726
(lp1847
I44
aI56
assVprecondit
p1848
(dp1849
Vstate
p1850
(lp1851
I20
aI27
aI9
asVachiev
p1852
(lp1853
I8
aI23
aI6
asVcondit
p1854
(lp1855
I3
aI1
aI19
aI3
asVsatisfi
p1856
(lp1857
I1
aI2
aI17
aI12
asVstep
p1858
(lp1859
I1
aI38
asVproposit
p1860
(lp1861
I2
aI4
aI4
aI20
asVlink
p1862
(lp1863
I3
aI19
aI2
asVgoal
p1864
(lp1865
I1
aI10
aI18
aI12
asVaction
p1866
(lp1867
I24
aI47
aI28
aI96
asVplan
p1868
(lp1869
I1
aI26
aI3
assg165
(dp1870
Vframe
p1871
(lp1872
I16
aI9
asVvalu
p1873
(lp1874
I1
aI33
asVtype
p1875
(lp1876
I1
aI21
asVroom
p1877
(lp1878
I6
aI17
asVclass
p1879
(lp1880
I11
aI22
aI2
assVprime
p1881
(dp1882
Vperfect
p1883
(lp1884
I53
aI5
asg1567
(lp1885
I22
aI2
asVsquar
p1886
(lp1887
I84
aI8
asg781
(lp1888
I62
aI1
asg783
(lp1889
I22
aI6
assVlabel
p1890
(dp1891
Vlearn
p1892
(lp1893
I17
aI1
asVexampl
p1894
(lp1895
I25
aI2
aI3
aI3
assVparent
p1896
(dp1897
g220
(lp1898
I9
aI6
aI6
aI2
aI2
aI16
aI1
aI1
assVregion
p1899
(dp1900
Vmap
p1901
(lp1902
I2
aI25
aI3
aI2
asg1506
(lp1903
I3
aI32
aI8
asVposit
p1904
(lp1905
I2
aI2
aI6
aI20
assg1738
(dp1906
g1734
(lp1907
I3
aI20
assVimprov
p1908
(dp1909
Vperform
p1910
(lp1911
I2
aI19
asVnode
p1912
(lp1913
I7
aI17
assg1506
(dp1914
Vgraph
p1915
(lp1916
I16
aI24
aI4
asVstate
p1917
(lp1918
I1
aI23
asVconstraint
p1919
(lp1920
I2
aI23
aI2
asVassign
p1921
(lp1922
I7
aI19
aI2
asg1504
(lp1923
I2
aI28
aI7
asVnode
p1924
(lp1925
I1
aI35
aI6
aI2
asg1901
(lp1926
I4
aI32
aI17
assVresolut
p1927
(dp1928
Vrefut
p1929
(lp1930
I2
aI3
aI17
asVlogic
p1931
(lp1932
I2
aI16
asVprove
p1933
(lp1934
I17
aI6
aI9
asVclaus
p1935
(lp1936
I15
aI1
aI18
asg546
(lp1937
I25
aI14
aI4
aI1
aI1
asg327
(lp1938
I17
aI3
aI4
assVtiger
p1939
(dp1940
Vanim
p1941
(lp1942
I5
aI17
assg185
(dp1943
g181
(lp1944
I42
aI8
aI3
asg183
(lp1945
I45
aI12
aI3
assVbayesian
p1946
(dp1947
Vlearn
p1948
(lp1949
I1
aI28
assVbinari
p1950
(dp1951
g1676
(lp1952
I24
aI8
assVspeech
p1953
(dp1954
Vtext
p1955
(lp1956
I8
aI16
assVexecut
p1957
(dp1958
Vstate
p1959
(lp1960
I8
aI2
aI1
aI8
aI1
aI31
aI5
asVaction
p1961
(lp1962
I5
aI2
aI3
aI70
aI22
aI6
asVrule
p1963
(lp1964
I23
aI8
aI3
assVhypothesi
p1965
(dp1966
Vlearner
p1967
(lp1968
I16
aI7
aI7
asVsearch
p1969
(lp1970
I5
aI23
asg1330
(lp1971
I20
aI59
aI3
aI13
asVlearn
p1972
(lp1973
I28
aI44
aI2
aI22
asVdata
p1974
(lp1975
I10
aI9
aI11
aI22
asg285
(lp1976
I5
aI17
aI1
aI5
asVspace
p1977
(lp1978
I47
aI223
aI11
aI37
asVtarget
p1979
(lp1980
I7
aI23
aI1
asVposit
p1981
(lp1982
I20
aI11
aI3
asVobject
p1983
(lp1984
I4
aI17
asVset
p1985
(lp1986
I2
aI45
aI74
aI2
aI9
aI2
aI7
asVbest
p1987
(lp1988
I32
aI18
aI1
asVgeneral
p1989
(lp1990
I1
aI2
aI21
asVdefin
p1991
(lp1992
I2
aI20
asVbias
p1993
(lp1994
I20
aI36
asVevid
p1995
(lp1996
I26
aI5
aI18
aI14
asVexampl
p1997
(lp1998
I32
aI48
aI1
aI9
asVlike
p1999
(lp2000
I1
aI3
aI23
asVnegat
p2001
(lp2002
I2
aI18
aI9
aI2
asVconsist
p2003
(lp2004
I27
aI32
aI4
asVpossibl
p2005
(lp2006
I2
aI1
aI10
aI60
aI20
asVprobabl
p2007
(lp2008
I4
aI18
aI1
aI2
aI96
asValgorithm
p2009
(lp2010
I1
aI23
aI5
assVworld
p2011
(dp2012
Vstate
p2013
(lp2014
I4
aI2
aI1
aI27
aI3
aI1
asVinterpret
p2015
(lp2016
I60
aI4
aI1
asVaction
p2017
(lp2018
I4
aI35
aI7
asVproposit
p2019
(lp2020
I19
aI1
aI9
aI2
asVagent
p2021
(lp2022
I13
aI19
aI5
asVfals
p2023
(lp2024
I21
aI2
asVblock
p2025
(lp2026
I2
aI27
aI13
aI1
assVpower
p2027
(dp2028
Vorder
p2029
(lp2030
I11
aI6
aI8
aI17
aI1
aI1
aI2
aI1
aI1
aI1
aI1
asVfunction
p2031
(lp2032
I1
aI1
aI1
aI16
assVration
p2033
(dp2034
g921
(lp2035
I1
aI17
aI6
asg1432
(lp2036
I4
aI57
aI11
assVdegre
p2037
(dp2038
Vfuzzi
p2039
(lp2040
I4
aI17
asVmembership
p2041
(lp2042
I24
aI15
assVact
p2043
(dp2044
g1432
(lp2045
I2
aI29
aI2
assVroad
p2046
(dp2047
g757
(lp2048
I19
aI31
asg755
(lp2049
I21
aI20
assVstrip
p2050
(dp2051
Vaction
p2052
(lp2053
I19
aI6
aI1
asVgoal
p2054
(lp2055
I1
aI21
assg1558
(dp2056
Vphrase
p2057
(lp2058
I18
aI3
asg1556
(lp2059
I2
aI21
assVjug
p2060
(dp2061
Vgallon
p2062
(lp2063
I6
aI14
aI29
asVempti
p2064
(lp2065
I2
aI3
aI17
assVdefault
p2066
(dp2067
Vreason
p2068
(lp2069
I1
aI16
assg1830
(dp2070
Venviron
p2071
(lp2072
I20
aI4
assVad
p2073
(dp2074
Vremov
p2075
(lp2076
I2
aI22
aI1
assVgeneral
p2077
(dp2078
Vhypothesi
p2079
(lp2080
I1
aI2
aI19
assVgenerat
p2081
(dp2082
g1079
(lp2083
I7
aI17
aI10
aI4
aI5
aI2
asVfring
p2084
(lp2085
I3
aI36
aI2
asVnode
p2086
(lp2087
I9
aI38
aI34
aI14
aI7
aI2
aI1
assVevent
p2088
(dp2089
Vprobabl
p2090
(lp2091
I57
aI12
aI2
asVnode
p2092
(lp2093
I4
aI17
assVvalid
p2094
(dp2095
Vsentenc
p2096
(lp2097
I54
aI1
aI1
aI13
asVset
p2098
(lp2099
I1
aI1
aI3
aI1
aI44
aI3
asVproposit
p2100
(lp2101
I32
aI1
aI3
aI6
asVpredic
p2102
(lp2103
I30
aI2
asVcross
p2104
(lp2105
I17
aI1
asg1004
(lp2106
I4
aI34
assg1484
(dp2107
g277
(lp2108
I25
aI5
assVsequenc
p2109
(dp2110
Vstate
p2111
(lp2112
I2
aI25
aI3
aI4
aI3
asVaction
p2113
(lp2114
I9
aI17
aI1
aI24
aI7
asVpercept
p2115
(lp2116
I16
aI1
assVsymbol
p2117
(dp2118
Vproposit
p2119
(lp2120
I21
aI2
assVreduc
p2121
(dp2122
Verror
p2123
(lp2124
I16
aI6
assVdescript
p2125
(dp2126
Vstate
p2127
(lp2128
I6
aI4
aI27
aI16
aI8
aI4
aI1
asVlearn
p2129
(lp2130
I19
aI6
aI2
asVgoal
p2131
(lp2132
I2
aI16
aI5
aI3
aI1
assVrepresent
p2133
(dp2134
Vknowledg
p2135
(lp2136
I4
aI1
aI2
aI24
aI2
aI22
aI15
aI6
aI9
aI3
aI2
aI2
aI4
aI8
asVstate
p2137
(lp2138
I17
aI23
aI3
aI5
aI1
assg1434
(dp2139
Vagent
p2140
(lp2141
I31
aI8
asVnode
p2142
(lp2143
I43
aI2
assg1181
(dp2144
g1179
(lp2145
I3
aI40
aI1
aI2
aI3
asg1186
(lp2146
I3
aI38
aI1
aI2
aI3
asg1551
(lp2147
I1
aI97
aI10
aI1
asVproperti
p2148
(lp2149
I5
aI16
aI2
asg1418
(lp2150
I26
aI10
asVanim
p2151
(lp2152
I3
aI1
aI12
aI19
aI5
aI1
asg449
(lp2153
I2
aI16
asVclass
p2154
(lp2155
I1
aI1
aI8
aI20
asg455
(lp2156
I4
aI48
aI20
assVdesign
p2157
(dp2158
Vagent
p2159
(lp2160
I21
aI2
aI1
assVabc
p2161
(dp2162
Vtriangl
p2163
(lp2164
I10
aI8
aI17
asVequilater
p2165
(lp2166
I33
aI27
asVresolv
p2167
(lp2168
I19
aI14
asVisoscel
p2169
(lp2170
I44
aI32
aI9
assVlearner
p2171
(dp2172
Vset
p2173
(lp2174
I17
aI7
assVdelet
p2175
(dp2176
Vlist
p2177
(lp2178
I18
aI4
asVaction
p2179
(lp2180
I2
aI5
aI6
aI17
assVmethod
p2181
(dp2182
g1688
(lp2183
I1
aI16
aI3
aI1
assg224
(dp2184
g228
(lp2185
I40
aI3
asVfever
p2186
(lp2187
I1
aI43
aI1
assVmodifi
p2188
(dp2189
Vcertainti
p2190
(lp2191
I1
aI19
assVvalu
p2192
(dp2193
Vslot
p2194
(lp2195
I1
aI33
asVtype
p2196
(lp2197
I1
aI1
aI2
aI2
aI1
aI17
asVmax
p2198
(lp2199
I2
aI16
aI2
aI3
asVmembership
p2200
(lp2201
I4
aI24
asVdomain
p2202
(lp2203
I16
aI28
aI1
asg1672
(lp2204
I44
aI36
aI1
aI1
asVassign
p2205
(lp2206
I1
aI38
aI46
aI3
aI6
asVdata
p2207
(lp2208
I16
aI1
aI2
asVattribut
p2209
(lp2210
I4
aI6
aI4
aI4
aI28
aI34
aI6
asVgeneric
p2211
(lp2212
I2
aI21
asg1676
(lp2213
I29
aI15
aI4
asVpossibl
p2214
(lp2215
I3
aI1
aI9
aI21
aI1
aI1
aI2
aI9
aI1
asVnode
p2216
(lp2217
I10
aI8
aI1
aI29
aI4
aI1
aI5
aI5
aI4
aI2
assg1688
(dp2218
g1156
(lp2219
I8
aI69
aI22
aI12
aI5
aI2
aI7
aI2
asg1036
(lp2220
I2
aI14
aI19
aI9
aI4
aI2
aI3
aI1
aI1
aI16
asg688
(lp2221
I12
aI16
aI12
aI28
aI3
aI3
asVcost
p2222
(lp2223
I7
aI17
aI22
aI5
aI19
asVmethod
p2224
(lp2225
I1
aI16
aI3
aI1
asVpath
p2226
(lp2227
I5
aI13
aI24
aI9
aI8
aI13
aI3
aI2
aI4
aI2
aI1
aI2
aI5
asVaction
p2228
(lp2229
I1
aI7
aI1
aI12
aI16
aI3
aI8
asg1056
(lp2230
I7
aI2
aI21
aI7
aI7
aI7
aI5
aI2
aI2
aI2
asg121
(lp2231
I17
aI3
aI11
aI1
asVgoal
p2232
(lp2233
I8
aI33
aI32
aI4
aI9
aI4
aI10
aI11
aI22
aI5
aI2
asVhypothesi
p2234
(lp2235
I5
aI28
asVinform
p2236
(lp2237
I6
aI8
aI29
aI6
aI1
aI1
aI1
aI1
asVorder
p2238
(lp2239
I28
aI14
aI9
aI3
aI6
aI5
aI5
aI2
aI5
aI3
aI1
aI2
aI2
asVmove
p2240
(lp2241
I1
aI11
aI11
aI21
asg1682
(lp2242
I2
aI27
aI46
aI27
aI31
aI8
aI12
aI4
aI20
aI12
aI25
aI18
aI3
aI5
aI5
aI1
aI15
aI1
asVbidirect
p2243
(lp2244
I3
aI8
aI46
aI11
aI8
asg1087
(lp2245
I1
aI7
aI19
aI10
aI1
asg472
(lp2246
I10
aI86
aI43
aI18
aI45
aI37
aI12
aI10
aI1
aI4
aI4
aI3
asVplan
p2247
(lp2248
I1
aI1
aI4
aI1
aI12
aI31
aI9
aI22
asVsolut
p2249
(lp2250
I1
aI9
aI33
aI5
aI21
aI9
aI1
aI11
aI5
aI1
aI10
aI2
asg536
(lp2251
I1
aI53
aI40
aI37
aI31
aI22
aI6
aI10
aI2
aI4
aI2
aI35
aI38
aI3
aI2
aI2
asVlocal
p2252
(lp2253
I24
aI1
asVbacktrack
p2254
(lp2255
I14
aI19
aI2
aI1
aI2
aI1
aI1
asVbest
p2256
(lp2257
I2
aI9
aI14
aI17
aI1
aI1
aI3
aI3
asVstrategi
p2258
(lp2259
I9
aI40
aI4
aI4
aI8
aI15
aI3
aI1
asVuninform
p2260
(lp2261
I23
aI2
asg684
(lp2262
I7
aI16
aI12
aI16
aI2
aI4
asVexpand
p2263
(lp2264
I5
aI30
aI28
aI14
aI10
aI8
aI1
aI2
asVgame
p2265
(lp2266
I2
aI2
aI3
aI15
aI24
aI1
asg265
(lp2267
I13
aI19
aI6
aI3
aI1
aI1
aI2
asVpli
p2268
(lp2269
I8
aI60
asVconstraint
p2270
(lp2271
I1
aI2
aI3
aI15
aI22
aI4
asVforward
p2272
(lp2273
I19
aI4
aI8
aI3
aI7
aI3
aI18
aI31
aI5
aI1
asVlimit
p2274
(lp2275
I29
aI4
aI13
aI1
aI2
aI1
aI1
asg1163
(lp2276
I6
aI116
aI15
aI25
aI8
aI14
aI14
aI20
aI1
aI3
aI5
aI1
aI1
asVnode
p2277
(lp2278
I18
aI71
aI83
aI33
aI18
aI38
aI12
aI3
aI3
aI2
aI2
aI1
aI2
aI1
asg1360
(lp2279
I1
aI11
aI40
aI36
aI43
aI8
aI5
aI2
aI18
aI11
aI8
aI2
asg1150
(lp2280
I25
aI5
aI7
aI12
aI38
aI11
aI2
asVminimax
p2281
(lp2282
I15
aI36
assVprior
p2283
(dp2284
Vprobabl
p2285
(lp2286
I12
aI2
aI31
assg1036
(dp2287
Vsearch
p2288
(lp2289
I2
aI14
aI18
aI10
aI4
aI2
aI3
aI1
aI1
aI16
asVgoal
p2290
(lp2291
I1
aI2
aI1
aI1
aI18
asVmap
p2292
(lp2293
I16
aI3
aI1
asVspace
p2294
(lp2295
I1
aI16
aI7
aI1
aI1
aI3
asVplan
p2296
(lp2297
I1
aI210
aI1
asVsolut
p2298
(lp2299
I2
aI5
aI2
aI32
asVstate
p2300
(lp2301
I7
aI24
aI4
aI5
aI1
aI4
aI15
asVcolor
p2302
(lp2303
I15
aI26
aI5
asg1028
(lp2304
I3
aI4
aI18
aI4
aI2
aI8
aI3
aI11
aI4
aI1
asValgorithm
p2305
(lp2306
I5
aI1
aI1
aI6
aI20
aI1
assVaction
p2307
(dp2308
Vliter
p2309
(lp2310
I6
aI1
aI2
aI17
asg1227
(lp2311
I1
aI16
asg2177
(lp2312
I24
aI9
asVdelet
p2313
(lp2314
I1
aI4
aI1
aI6
aI16
asVsatisfi
p2315
(lp2316
I1
aI3
aI20
aI7
aI32
aI1
asVpick
p2317
(lp2318
I23
aI18
aI8
aI3
asVcausal
p2319
(lp2320
I19
aI13
asVdescrib
p2321
(lp2322
I1
aI16
aI1
aI1
asVpercept
p2323
(lp2324
I28
aI4
asVrelat
p2325
(lp2326
I1
aI1
aI18
asg151
(lp2327
I1
aI22
aI10
aI1
aI16
asVagent
p2328
(lp2329
I101
aI53
aI4
aI2
aI58
aI40
aI2
aI1
aI7
aI3
asVgoal
p2330
(lp2331
I9
aI14
aI1
aI24
aI87
aI14
aI36
aI1
asg1449
(lp2332
I3
aI1
aI1
aI3
aI12
aI28
aI2
asVmove
p2333
(lp2334
I22
aI7
aI46
aI7
aI5
asg1848
(lp2335
I23
aI48
aI30
aI93
asViniti
p2336
(lp2337
I12
aI1
aI14
aI18
aI14
aI17
asVachiev
p2338
(lp2339
I2
aI1
aI1
aI10
aI53
aI23
aI36
asVcarri
p2340
(lp2341
I2
aI6
aI3
aI28
asVnumber
p2342
(lp2343
I3
aI3
aI2
aI11
aI9
aI3
aI18
asVproposit
p2344
(lp2345
I26
aI6
aI113
asVstore
p2346
(lp2347
I2
aI23
asVtabl
p2348
(lp2349
I13
aI3
aI18
aI10
aI1
asg1473
(lp2350
I5
aI18
aI4
aI8
aI2
aI1
asVenviron
p2351
(lp2352
I38
aI8
aI8
aI6
aI3
asVplan
p2353
(lp2354
I3
aI5
aI1
aI18
aI23
aI29
aI54
aI1
asVcurrent
p2355
(lp2356
I14
aI4
aI11
aI39
aI2
aI4
asVset
p2357
(lp2358
I4
aI2
aI10
aI18
aI15
aI4
aI2
asVstate
p2359
(lp2360
I10
aI63
aI7
aI6
aI102
aI86
aI14
aI54
asVpresent
p2361
(lp2362
I1
aI29
asVeffect
p2363
(lp2364
I1
aI14
aI16
aI2
aI10
asg1957
(lp2365
I4
aI2
aI3
aI71
aI23
aI8
asg824
(lp2366
I2
aI5
aI3
aI17
asVworld
p2367
(lp2368
I4
aI36
aI8
asVcondit
p2369
(lp2370
I2
aI6
aI9
aI7
aI12
aI24
aI2
asVstep
p2371
(lp2372
I1
aI1
aI19
aI3
asg917
(lp2373
I1
aI18
asVstrip
p2374
(lp2375
I19
aI5
aI2
asVchang
p2376
(lp2377
I5
aI24
aI3
aI1
asVlink
p2378
(lp2379
I2
aI27
aI22
aI2
asVnode
p2380
(lp2381
I1
aI19
asg2109
(lp2382
I10
aI17
aI1
aI23
aI7
assVheurist
p2383
(dp2384
Vsearch
p2385
(lp2386
I1
aI7
aI2
aI21
aI7
aI6
aI7
aI5
aI2
aI3
aI2
asVfunction
p2387
(lp2388
I1
aI39
aI10
aI5
aI2
aI8
asVnode
p2389
(lp2390
I1
aI31
aI9
aI1
aI2
aI1
assVselect
p2391
(dp2392
Vclaus
p2393
(lp2394
I19
aI2
aI16
asVattribut
p2395
(lp2396
I22
aI9
asVresolv
p2397
(lp2398
I7
aI3
aI18
aI1
asg405
(lp2399
I19
aI2
aI12
aI2
aI1
aI1
aI4
aI1
asVrule
p2400
(lp2401
I24
aI15
aI16
aI2
aI2
aI3
assVformul
p2402
(dp2403
Vqueen
p2404
(lp2405
I21
aI2
aI2
asg536
(lp2406
I1
aI32
aI1
aI5
aI2
aI2
assVautonom
p2407
(dp2408
Vagent
p2409
(lp2410
I20
aI7
aI2
assVbias
p2411
(dp2412
Vhypothesi
p2413
(lp2414
I17
aI33
assVdel
p2415
(dp2416
Vsigma
p2417
(lp2418
I1
aI21
assVpick
p2419
(dp2420
Vaction
p2421
(lp2422
I22
aI19
aI7
aI3
assVminimum
p2423
(dp2424
Vglobal
p2425
(lp2426
I16
aI1
aI5
assVexplor
p2427
(dp2428
Vnode
p2429
(lp2430
I3
aI20
aI1
aI3
aI2
assg2062
(dp2431
g2060
(lp2432
I6
aI15
aI31
assVgoal
p2433
(dp2434
g1434
(lp2435
I16
aI5
asVlevel
p2436
(lp2437
I1
aI5
aI1
aI21
aI1
asg2222
(lp2438
I4
aI6
aI33
aI4
aI5
asVcurrent
p2439
(lp2440
I5
aI5
aI1
aI1
aI44
aI1
aI6
asg2315
(lp2441
I3
aI3
aI15
aI25
aI9
aI7
aI1
asVmet
p2442
(lp2443
I17
aI2
aI1
asVpath
p2444
(lp2445
I7
aI15
aI34
aI7
aI11
aI11
aI4
aI11
asVsearch
p2446
(lp2447
I7
aI32
aI31
aI3
aI9
aI4
aI11
aI10
aI26
aI5
aI1
asVaction
p2448
(lp2449
I12
aI14
aI1
aI1
aI23
aI81
aI12
aI32
aI1
asVprove
p2450
(lp2451
I6
aI1
aI14
aI59
aI5
asVagent
p2452
(lp2453
I57
aI34
aI3
aI19
aI18
asViniti
p2454
(lp2455
I13
aI9
aI1
aI2
aI5
aI2
aI4
aI14
aI18
aI24
aI4
aI1
asVachiev
p2456
(lp2457
I1
aI9
aI4
aI2
aI17
aI134
aI7
aI24
asg1461
(lp2458
I23
aI3
aI5
aI1
aI3
aI1
aI2
aI11
aI2
aI2
aI1
aI1
asVplan
p2459
(lp2460
I1
aI2
aI2
aI1
aI24
aI23
aI17
aI25
aI2
asg1467
(lp2461
I3
aI103
aI43
aI54
aI19
aI16
aI5
aI1
aI16
aI33
aI65
aI110
aI40
aI11
aI4
asVnegat
p2462
(lp2463
I5
aI3
aI24
asg1123
(lp2464
I4
aI4
aI16
aI10
aI1
asVstrip
p2465
(lp2466
I1
aI22
asVdepth
p2467
(lp2468
I19
aI2
asg2380
(lp2469
I10
aI50
aI77
aI9
aI9
aI3
aI7
aI9
aI2
asVdescript
p2470
(lp2471
I3
aI17
aI5
aI4
aI2
asVrule
p2472
(lp2473
I15
aI30
aI9
assg783
(dp2474
g775
(lp2475
I24
aI6
asg1886
(lp2476
I37
aI8
asg777
(lp2477
I21
aI5
assg562
(dp2478
g550
(lp2479
I23
aI5
asVleg
p2480
(lp2481
I34
aI7
aI12
asg556
(lp2482
I7
aI16
asVinfer
p2483
(lp2484
I21
aI5
asg791
(lp2485
I50
aI44
aI12
assVreturn
p2486
(dp2487
g405
(lp2488
I17
aI4
aI8
aI3
aI8
aI8
aI5
aI1
assg253
(dp2489
Vquantifi
p2490
(lp2491
I5
aI45
aI1
asg207
(lp2492
I16
aI49
aI1
aI2
aI2
asVpredic
p2493
(lp2494
I7
aI60
aI13
aI1
asg1606
(lp2495
I30
aI3
asVorder
p2496
(lp2497
I6
aI32
aI3
aI1
aI3
asVmean
p2498
(lp2499
I11
aI12
aI18
aI2
aI3
aI5
aI18
aI7
asVparenthesi
p2500
(lp2501
I17
aI6
aI4
asVproposit
p2502
(lp2503
I45
aI11
aI6
aI1
aI6
asVset
p2504
(lp2505
I1
aI45
aI5
aI1
aI1
asVsen
p2506
(lp2507
I8
aI103
asVlogic
p2508
(lp2509
I7
aI23
aI10
aI44
aI7
asVunderstand
p2510
(lp2511
I8
aI2
aI2
aI12
aI16
asg81
(lp2512
I5
aI32
aI5
aI5
asVnegat
p2513
(lp2514
I3
aI24
aI6
asVexistenti
p2515
(lp2516
I2
aI32
asVatom
p2517
(lp2518
I2
aI19
asVexist
p2519
(lp2520
I8
aI22
asVvalid
p2521
(lp2522
I60
aI2
aI1
aI13
asVrole
p2523
(lp2524
I4
aI16
assVcompound
p2525
(dp2526
Vproposit
p2527
(lp2528
I27
aI5
aI7
assVequilater
p2529
(dp2530
g2161
(lp2531
I31
aI27
assVparenthesi
p2532
(dp2533
g335
(lp2534
I16
aI5
aI4
assg1547
(dp2535
g728
(lp2536
I26
aI4
asVman
p2537
(lp2538
I18
aI5
assg2456
(dp2539
g2448
(lp2540
I3
aI1
aI1
aI9
aI58
aI24
aI33
asVagent
p2541
(lp2542
I16
aI3
aI17
aI10
asVgoal
p2543
(lp2544
I1
aI10
aI4
aI2
aI18
aI134
aI5
aI26
asVprecondit
p2545
(lp2546
I10
aI22
aI8
asViniti
p2547
(lp2548
I3
aI1
aI20
aI1
asVproposit
p2549
(lp2550
I1
aI21
asVplan
p2551
(lp2552
I10
aI18
aI14
aI10
asVstate
p2553
(lp2554
I1
aI9
aI17
aI30
aI8
asVtabl
p2555
(lp2556
I1
aI7
aI18
asVcondit
p2557
(lp2558
I1
aI7
aI22
aI2
aI1
asVstep
p2559
(lp2560
I1
aI17
asg2465
(lp2561
I1
aI20
assVfulli
p2562
(dp2563
Venviron
p2564
(lp2565
I16
aI5
assVweight
p2566
(dp2567
Verror
p2568
(lp2569
I38
aI13
asVunit
p2570
(lp2571
I14
aI25
asVfunction
p2572
(lp2573
I1
aI21
aI3
asVtrain
p2574
(lp2575
I28
aI5
asVarc
p2576
(lp2577
I20
aI7
assVball
p2578
(dp2579
Vround
p2580
(lp2581
I3
aI20
assVhill
p2582
(dp2583
Vclimb
p2584
(lp2585
I16
aI3
assVbelief
p2586
(dp2587
Vnetwork
p2588
(lp2589
I1
aI42
aI3
asVcertainti
p2590
(lp2591
I1
aI20
aI21
aI1
asVstrength
p2592
(lp2593
I16
aI1
aI1
asVdisbelief
p2594
(lp2595
I1
aI16
aI1
aI1
assVreason
p2596
(dp2597
Vdoorbel
p2598
(lp2599
I16
aI1
assVbase
p2600
(dp2601
Vknowledg
p2602
(lp2603
I1
aI10
aI9
aI2
aI4
aI22
aI9
aI7
aI12
aI1
asVrule
p2604
(lp2605
I1
aI45
aI29
aI10
aI1
aI1
assVassign
p2606
(dp2607
Vqueen
p2608
(lp2609
I27
aI4
asVdomain
p2610
(lp2611
I20
aI29
asVcurrent
p2612
(lp2613
I19
aI2
aI2
asVvalu
p2614
(lp2615
I1
aI37
aI44
aI4
aI6
asg1919
(lp2616
I1
aI34
aI18
asVcolor
p2617
(lp2618
I8
aI20
aI2
asVconsist
p2619
(lp2620
I18
aI5
aI2
asg1428
(lp2621
I2
aI16
aI1
asVcheck
p2622
(lp2623
I6
aI17
aI1
asVvariabl
p2624
(lp2625
I55
aI27
assVnumber
p2626
(dp2627
Viter
p2628
(lp2629
I1
aI1
aI18
aI1
asVnatur
p2630
(lp2631
I1
aI54
asVaction
p2632
(lp2633
I4
aI3
aI2
aI11
aI10
aI3
aI17
asVsuccessor
p2634
(lp2635
I1
aI1
aI2
aI1
aI20
asVtree
p2636
(lp2637
I2
aI1
aI3
aI1
aI16
aI4
aI1
aI7
aI3
asVfunction
p2638
(lp2639
I1
aI1
aI8
aI5
aI18
aI2
aI1
aI3
aI4
aI1
asVsquar
p2640
(lp2641
I1
aI4
aI3
aI1
aI21
aI1
asVexpand
p2642
(lp2643
I1
aI6
aI8
aI30
aI4
aI9
aI1
asg680
(lp2644
I13
aI13
aI37
aI14
aI17
aI5
aI3
aI2
aI4
aI3
assVconstruct
p2645
(dp2646
Vdecis
p2647
(lp2648
I21
aI4
asVtree
p2649
(lp2650
I4
aI2
aI21
aI7
assVstore
p2651
(dp2652
Vaction
p2653
(lp2654
I2
aI25
assVrelationship
p2655
(dp2656
Vsemant
p2657
(lp2658
I1
aI17
aI1
assg2243
(dp2659
Vsearch
p2660
(lp2661
I3
aI7
aI43
aI10
aI8
assg401
(dp2662
Vsuccessor
p2663
(lp2664
I24
aI14
aI1
asVfring
p2665
(lp2666
I48
aI3
aI12
aI13
asVad
p2667
(lp2668
I1
aI22
aI1
asVnode
p2669
(lp2670
I14
aI4
aI6
aI21
aI2
aI8
assVcomput
p2671
(dp2672
g87
(lp2673
I1
aI12
aI23
asVfunction
p2674
(lp2675
I6
aI1
aI3
aI3
aI9
aI6
aI21
aI5
asVvalu
p2676
(lp2677
I3
aI16
aI2
aI1
aI1
aI1
aI5
asg793
(lp2678
I17
aI1
aI5
aI1
aI4
aI3
aI1
asVprobabl
p2679
(lp2680
I1
aI12
aI38
aI2
aI2
aI3
asVnode
p2681
(lp2682
I2
aI1
aI4
aI17
aI8
aI9
assVnull
p2683
(dp2684
Vclaus
p2685
(lp2686
I19
aI3
aI18
assVviolat
p2687
(dp2688
Vconstraint
p2689
(lp2690
I1
aI2
aI16
aI6
aI2
assVponen
p2691
(dp2692
Vmodus
p2693
(lp2694
I15
aI19
aI5
aI2
aI3
aI3
asVinfer
p2695
(lp2696
I18
aI2
aI4
aI2
aI3
assVreach
p2697
(dp2698
Vstate
p2699
(lp2700
I51
aI5
aI9
aI4
aI7
aI1
aI1
aI3
aI2
asVaction
p2701
(lp2702
I16
aI1
aI1
asVgoal
p2703
(lp2704
I23
aI3
aI5
aI1
aI3
aI1
aI1
aI12
aI2
aI2
aI1
aI1
aI1
assVplan
p2705
(dp2706
Vpartial
p2707
(lp2708
I47
aI116
aI15
asVgraph
p2709
(lp2710
I1
aI212
aI1
asVlevel
p2711
(lp2712
I53
aI2
asVsatisfi
p2713
(lp2714
I4
aI3
aI7
aI22
asVsearch
p2715
(lp2716
I1
aI1
aI5
aI1
aI12
aI30
aI10
aI25
asVaction
p2717
(lp2718
I3
aI5
aI1
aI17
aI27
aI27
aI52
aI1
asVsolut
p2719
(lp2720
I5
aI6
aI3
aI13
aI25
asg1332
(lp2721
I1
aI3
aI5
aI2
aI1
aI17
aI4
aI1
asVgoal
p2722
(lp2723
I1
aI3
aI2
aI1
aI23
aI28
aI15
aI22
aI2
asg2238
(lp2724
I1
aI1
aI38
aI45
aI13
aI1
asVprecondit
p2725
(lp2726
I1
aI28
aI3
asViniti
p2727
(lp2728
I1
aI6
aI18
aI30
aI9
asVachiev
p2729
(lp2730
I10
aI19
aI16
aI9
asVspace
p2731
(lp2732
I3
aI9
aI16
aI7
aI5
asVconstruct
p2733
(lp2734
I1
aI1
aI17
asVproposit
p2735
(lp2736
I3
aI1
aI1
aI19
asVset
p2737
(lp2738
I1
aI1
aI10
aI26
aI2
aI1
asVstate
p2739
(lp2740
I1
aI5
aI7
aI17
aI17
aI24
aI31
asVcondit
p2741
(lp2742
I6
aI1
aI26
aI15
aI1
asVstep
p2743
(lp2744
I1
aI5
aI46
aI1
asg2270
(lp2745
I1
aI1
aI2
aI18
asg901
(lp2746
I2
aI35
asVproblem
p2747
(lp2748
I20
aI12
aI4
aI6
asVexist
p2749
(lp2750
I2
aI3
aI19
asVvalid
p2751
(lp2752
I4
aI32
asg1360
(lp2753
I1
aI5
aI30
aI14
aI25
assVsparrow
p2754
(dp2755
Vbird
p2756
(lp2757
I10
aI20
aI5
assVsolut
p2758
(dp2759
g2709
(lp2760
I2
aI4
aI2
aI28
asg2385
(lp2761
I1
aI10
aI31
aI7
aI20
aI7
aI2
aI12
aI4
aI1
aI9
aI3
asVplan
p2762
(lp2763
I5
aI4
aI3
aI14
aI28
asVqueen
p2764
(lp2765
I21
aI3
aI12
aI2
asVoptimum
p2766
(lp2767
I1
aI7
aI14
aI17
aI8
asVstate
p2768
(lp2769
I12
aI28
aI1
aI7
aI1
aI2
aI3
asVnode
p2770
(lp2771
I3
aI21
aI3
aI2
aI2
aI2
asg1702
(lp2772
I2
aI19
aI8
aI16
aI3
aI2
aI2
aI3
aI4
assg1600
(dp2773
Vevid
p2774
(lp2775
I2
aI17
aI4
asVcertainti
p2776
(lp2777
I11
aI25
aI174
aI13
aI3
asVrule
p2778
(lp2779
I1
aI1
aI2
aI57
aI3
asg1598
(lp2780
I1
aI22
aI2
assVexpress
p2781
(dp2782
g659
(lp2783
I16
aI1
aI1
aI1
aI5
aI2
aI2
aI1
asVrule
p2784
(lp2785
I16
aI2
aI9
aI6
assVriver
p2786
(dp2787
Vbank
p2788
(lp2789
I1
aI16
assVset
p2790
(dp2791
Vdecis
p2792
(lp2793
I4
aI4
aI1
aI18
aI10
asVlearner
p2794
(lp2795
I18
aI7
asVinterpret
p2796
(lp2797
I20
aI1
aI1
aI1
asVaction
p2798
(lp2799
I6
aI3
aI7
aI18
aI15
aI4
aI2
asVclaus
p2800
(lp2801
I1
aI16
aI1
aI9
asg1330
(lp2802
I38
aI100
aI33
aI59
aI9
aI2
aI8
aI2
asVlearn
p2803
(lp2804
I30
aI31
aI5
aI5
aI2
asVclassifi
p2805
(lp2806
I24
aI3
aI22
aI1
aI4
asVmembership
p2807
(lp2808
I54
aI73
asVpredic
p2809
(lp2810
I1
aI3
aI17
asVtall
p2811
(lp2812
I34
aI38
asVmeter
p2813
(lp2814
I16
aI1
asg335
(lp2815
I1
aI45
aI5
aI1
aI1
aI1
asVspace
p2816
(lp2817
I4
aI3
aI1
aI1
aI8
aI6
aI28
aI2
aI2
asVelement
p2818
(lp2819
I2
aI18
aI6
aI1
aI41
aI23
aI5
aI1
asVdata
p2820
(lp2821
I2
aI1
aI3
aI13
aI5
aI36
aI5
aI1
asVproposit
p2822
(lp2823
I13
aI18
aI5
aI1
aI4
aI1
aI17
asVfuzzi
p2824
(lp2825
I108
aI181
asg1087
(lp2826
I2
aI1
aI24
asVtree
p2827
(lp2828
I3
aI1
aI1
aI1
aI18
aI38
aI2
asVaccuraci
p2829
(lp2830
I32
aI11
aI46
asVobject
p2831
(lp2832
I1
aI1
aI1
aI1
aI18
aI2
aI1
aI6
asVplan
p2833
(lp2834
I1
aI1
aI11
aI27
aI2
aI2
asVnotion
p2835
(lp2836
I1
aI19
aI1
asVstate
p2837
(lp2838
I36
aI13
aI1
aI1
aI5
aI16
aI4
aI14
aI1
aI2
asVattribut
p2839
(lp2840
I1
aI2
aI7
aI17
aI11
aI5
asVfit
p2841
(lp2842
I1
aI3
aI17
asVlogic
p2843
(lp2844
I7
aI12
aI5
aI1
aI17
aI10
asVheight
p2845
(lp2846
I36
aI13
asVdefin
p2847
(lp2848
I1
aI16
aI16
aI2
aI1
aI2
asVbelong
p2849
(lp2850
I2
aI7
aI14
aI73
aI1
aI12
aI2
asg1275
(lp2851
I20
aI3
aI1
asVexampl
p2852
(lp2853
I1
aI1
aI2
aI1
aI32
aI45
aI23
aI6
aI1
aI1
aI5
aI1
asVvalid
p2854
(lp2855
I1
aI3
aI2
aI44
aI3
asVhypothesi
p2856
(lp2857
I2
aI46
aI71
aI2
aI10
aI2
aI6
asVtest
p2858
(lp2859
I1
aI9
aI17
aI2
asVcrisp
p2860
(lp2861
I54
aI42
asVstep
p2862
(lp2863
I3
aI2
aI19
aI1
aI3
aI1
asVmedium
p2864
(lp2865
I25
aI3
asg2770
(lp2866
I1
aI4
aI13
aI1
aI4
aI11
aI1
aI8
aI2
aI34
aI5
aI10
asVrule
p2867
(lp2868
I2
aI29
aI5
aI4
aI1
aI2
aI12
aI14
aI1
aI36
aI1
assg2254
(dp2869
Vchoic
p2870
(lp2871
I5
aI17
aI1
aI1
asVsearch
p2872
(lp2873
I11
aI20
aI2
aI1
aI1
aI1
aI1
aI1
assVarc
p2874
(dp2875
g103
(lp2876
I18
aI7
assVclose
p2877
(dp2878
Vnode
p2879
(lp2880
I23
aI11
aI1
aI1
assg552
(dp2881
Vdog
p2882
(lp2883
I7
aI20
assVexpert
p2884
(dp2885
Vsystem
p2886
(lp2887
I3
aI3
aI48
aI2
aI130
aI3
aI2
aI1
aI1
asVknowledg
p2888
(lp2889
I2
aI32
aI1
aI5
aI2
asVrule
p2890
(lp2891
I1
aI10
aI2
aI27
aI2
aI4
aI1
aI4
assVsolv
p2892
(dp2893
Vproblem
p2894
(lp2895
I25
aI3
aI3
aI6
aI1
aI2
aI1
aI3
aI1
aI1
aI2
aI1
aI1
assg2315
(dp2896
Vprecondit
p2897
(lp2898
I2
aI2
aI16
aI12
asVstate
p2899
(lp2900
I3
aI17
aI30
aI6
aI11
asg2448
(lp2901
I1
aI3
aI21
aI8
aI32
aI1
asg2330
(lp2902
I3
aI4
aI15
aI25
aI10
aI8
aI1
asVplan
p2903
(lp2904
I3
aI2
aI7
aI19
assg1826
(dp2905
Venviron
p2906
(lp2907
I28
aI3
assVpoint
p2908
(dp2909
Vsepar
p2910
(lp2911
I22
aI9
assVempti
p2912
(dp2913
Vjug
p2914
(lp2915
I1
aI3
aI18
asVhand
p2916
(lp2917
I8
aI16
asVaction
p2918
(lp2919
I1
aI16
aI4
aI1
assVstrategi
p2920
(dp2921
Vsearch
p2922
(lp2923
I9
aI40
aI4
aI4
aI7
aI14
aI3
aI1
asVrule
p2924
(lp2925
I6
aI23
aI1
aI2
assVfire
p2926
(dp2927
Vstate
p2928
(lp2929
I19
aI8
aI1
aI13
asVsprinkler
p2930
(lp2931
I6
aI16
asVrule
p2932
(lp2933
I100
aI78
aI4
aI49
aI14
aI2
assg2260
(dp2934
Vsearch
p2935
(lp2936
I22
aI3
assg757
(dp2937
g755
(lp2938
I18
aI15
aI8
asg761
(lp2939
I21
aI31
assVconvert
p2940
(dp2941
Vform
p2942
(lp2943
I27
aI4
aI4
aI31
aI9
asg980
(lp2944
I17
aI4
aI26
aI7
assVunderstand
p2945
(dp2946
Vagent
p2947
(lp2948
I19
aI1
asg69
(lp2949
I9
aI2
aI1
aI2
aI11
aI17
asg73
(lp2950
I16
aI1
aI3
aI1
aI22
aI1
asg2135
(lp2951
I2
aI19
aI5
aI1
aI4
aI6
aI6
asVlanguag
p2952
(lp2953
I24
aI1
aI12
aI2
aI1
aI15
aI17
assg1190
(dp2954
Vsubstitut
p2955
(lp2956
I17
aI4
assVmatch
p2957
(dp2958
Vworld
p2959
(lp2960
I1
aI16
asg327
(lp2961
I20
aI12
aI6
asVrule
p2962
(lp2963
I7
aI31
aI14
aI3
aI17
aI5
assVerror
p2964
(dp2965
Vweight
p2966
(lp2967
I38
aI13
asVgradient
p2968
(lp2969
I16
aI2
asVunit
p2970
(lp2971
I2
aI34
asVfunction
p2972
(lp2973
I2
aI14
aI2
aI20
aI9
asVtrain
p2974
(lp2975
I7
aI17
aI8
aI12
aI11
asg293
(lp2976
I1
aI17
aI2
asVdata
p2977
(lp2978
I11
aI4
aI20
assg2849
(dp2979
Vset
p2980
(lp2981
I2
aI7
aI13
aI76
aI1
aI14
aI2
aI1
asVmembership
p2982
(lp2983
I18
aI2
assVtask
p2984
(dp2985
Vsystem
p2986
(lp2987
I7
aI1
aI1
aI19
asVlearn
p2988
(lp2989
I1
aI25
aI1
aI4
aI9
aI4
assVperson
p2990
(dp2991
Vtom
p2992
(lp2993
I4
aI27
aI1
assVshape
p2994
(dp2995
Vball
p2996
(lp2997
I9
aI16
assVinput
p2998
(dp2999
Vunit
p3000
(lp3001
I22
aI4
assg724
(dp3002
Vsearch
p3003
(lp3004
I2
aI2
aI3
aI12
aI23
aI1
asVwinner
p3005
(lp3006
I1
aI20
asVmove
p3007
(lp3008
I16
aI9
aI4
aI2
asVtree
p3009
(lp3010
I38
aI36
asVposit
p3011
(lp3012
I18
aI3
asg720
(lp3013
I2
aI35
aI9
assVresolv
p3014
(dp3015
Vabc
p3016
(lp3017
I17
aI11
asVselect
p3018
(lp3019
I8
aI2
aI22
aI1
asg1935
(lp3020
I41
aI3
aI48
assg2693
(dp3021
Vinfer
p3022
(lp3023
I20
aI2
aI2
aI2
aI3
asg2691
(lp3024
I15
aI17
aI6
aI2
aI3
aI3
assg1117
(dp3025
Vnode
p3026
(lp3027
I10
aI14
aI21
assg1144
(dp3028
Vmove
p3029
(lp3030
I4
aI17
asVsearch
p3031
(lp3032
I14
aI37
asVtree
p3033
(lp3034
I16
aI15
asVmin
p3035
(lp3036
I11
aI21
asVnode
p3037
(lp3038
I31
aI76
asVmax
p3039
(lp3040
I16
aI20
asVexpand
p3041
(lp3042
I3
aI21
assVmachin
p3043
(dp3044
Vlearn
p3045
(lp3046
I4
aI4
aI1
aI1
aI34
aI7
aI2
aI1
aI2
aI2
aI10
asVtranslat
p3047
(lp3048
I9
aI12
aI21
assg807
(dp3049
Vhuman
p3050
(lp3051
I3
aI1
aI1
aI1
aI4
aI4
aI33
aI1
aI1
aI1
assVpatient
p3052
(dp3053
Vtumor
p3054
(lp3055
I19
aI27
assVstep
p3056
(dp3057
Vpartial
p3058
(lp3059
I1
aI21
asVaction
p3060
(lp3061
I1
aI2
aI18
aI4
asVorder
p3062
(lp3063
I1
aI1
aI1
aI1
aI1
aI4
aI1
aI20
aI1
asg2725
(lp3064
I2
aI35
asVachiev
p3065
(lp3066
I1
aI17
asVfring
p3067
(lp3068
I16
aI2
asVplan
p3069
(lp3070
I1
aI5
aI47
aI1
asVset
p3071
(lp3072
I2
aI4
aI19
aI2
aI1
asVlink
p3073
(lp3074
I4
aI27
assg2270
(dp3075
Vvalu
p3076
(lp3077
I31
aI14
aI5
asg2715
(lp3078
I1
aI2
aI3
aI15
aI22
aI4
asVtype
p3079
(lp3080
I19
aI9
aI7
aI1
asVdomain
p3081
(lp3082
I13
aI37
asg1672
(lp3083
I52
aI42
asVassign
p3084
(lp3085
I1
aI36
aI17
asg2247
(lp3086
I1
aI2
aI2
aI16
asVqueen
p3087
(lp3088
I2
aI27
aI7
asVinvolv
p3089
(lp3090
I1
aI22
aI4
asVsatisfact
p3091
(lp3092
I1
aI1
aI1
aI34
aI35
asVpropag
p3093
(lp3094
I19
aI34
asVbinari
p3095
(lp3096
I26
aI9
asVcolor
p3097
(lp3098
I2
aI19
aI2
asg1360
(lp3099
I1
aI3
aI22
aI4
asVproblem
p3100
(lp3101
I1
aI18
aI19
asg2622
(lp3102
I6
aI22
aI6
assVmemori
p3103
(dp3104
Vwork
p3105
(lp3106
I36
aI21
assVblock
p3107
(dp3108
Vworld
p3109
(lp3110
I2
aI29
aI14
aI1
assVcutoff
p3111
(dp3112
Vnode
p3113
(lp3114
I3
aI2
aI25
asVsearch
p3115
(lp3116
I1
aI6
aI16
assg558
(dp3117
Vdog
p3118
(lp3119
I3
aI19
assVartifici
p3120
(dp3121
Vintellig
p3122
(lp3123
I39
aI12
aI4
aI2
aI2
aI1
aI3
aI1
aI2
aI2
aI6
aI1
aI1
aI2
aI1
aI1
aI2
aI1
aI1
aI2
aI1
aI2
aI2
aI1
aI1
aI3
aI1
aI1
aI1
aI1
aI1
aI1
aI1
aI1
aI1
aI2
aI1
aI1
aI3
aI2
assVtriangl
p3124
(dp3125
g2161
(lp3126
I9
aI7
aI16
assVquestion
p3127
(dp3128
Vagent
p3129
(lp3130
I21
aI20
aI1
aI2
assVforward
p3131
(dp3132
Vchain
p3133
(lp3134
I13
aI18
asVsearch
p3135
(lp3136
I19
aI5
aI9
aI3
aI8
aI3
aI16
aI32
aI4
aI1
asVcheck
p3137
(lp3138
I3
aI1
aI12
aI27
assg2378
(dp3139
Vprecondit
p3140
(lp3141
I3
aI18
aI2
asVcondit
p3142
(lp3143
I2
aI23
asg2559
(lp3144
I3
aI27
asVaction
p3145
(lp3146
I1
aI26
aI24
aI2
asVplan
p3147
(lp3148
I1
aI31
asg2319
(lp3149
I15
aI51
aI4
assg3047
(dp3150
Vtext
p3151
(lp3152
I17
aI12
asVmachin
p3153
(lp3154
I9
aI13
aI23
assg2517
(dp3155
Vsentenc
p3156
(lp3157
I2
aI20
assVconsist
p3158
(dp3159
Vtrain
p3160
(lp3161
I1
aI7
aI16
aI3
asVassign
p3162
(lp3163
I20
aI4
aI2
asg1010
(lp3164
I2
aI16
aI1
aI1
asVhypothesi
p3165
(lp3166
I30
aI35
aI3
assVcurv
p3167
(dp3168
Vmembership
p3169
(lp3170
I17
aI17
assVrepres
p3171
(dp3172
Vstate
p3173
(lp3174
I23
aI20
aI2
aI1
aI1
aI11
aI1
aI2
assVpriori
p3175
(dp3176
Vprobabl
p3177
(lp3178
I49
aI47
assValgorithm
p3179
(dp3180
Vgraph
p3181
(lp3182
I4
aI1
aI1
aI6
aI18
aI1
asVdecis
p3183
(lp3184
I2
aI21
aI18
aI3
aI3
aI1
asg2715
(lp3185
I1
aI9
aI43
aI36
aI45
aI9
aI6
aI2
aI16
aI1
aI11
aI7
aI2
asVtrain
p3186
(lp3187
I1
aI16
aI6
aI2
aI3
aI2
aI3
aI5
asg3045
(lp3188
I1
aI3
aI3
aI4
aI20
aI10
aI6
aI10
aI23
aI14
asVspace
p3189
(lp3190
I3
aI15
aI5
aI7
aI1
aI1
aI4
aI20
aI1
aI1
asg1083
(lp3191
I2
aI21
aI7
aI1
aI2
asVtree
p3192
(lp3193
I3
aI1
aI24
aI15
aI3
aI3
aI1
asg2247
(lp3194
I1
aI6
aI32
aI13
aI26
asVsolut
p3195
(lp3196
I2
aI20
aI6
aI18
aI3
aI2
aI2
aI3
aI4
asVstate
p3197
(lp3198
I4
aI23
aI5
aI4
aI2
aI7
aI5
asVhypothesi
p3199
(lp3200
I1
aI23
aI4
asg2270
(lp3201
I1
aI3
aI26
aI2
asVnode
p3202
(lp3203
I1
aI28
aI11
aI21
aI1
aI6
aI2
aI2
aI2
aI9
aI2
aI1
assg1163
(dp3204
g1156
(lp3205
I2
aI23
aI2
aI2
aI1
aI1
aI3
asVsolut
p3206
(lp3207
I16
aI1
aI4
aI2
aI1
aI1
asVtree
p3208
(lp3209
I31
aI1
aI8
aI11
aI11
aI1
aI1
aI1
aI1
asg1158
(lp3210
I7
aI107
aI16
aI24
aI9
aI14
aI13
aI20
aI1
aI3
aI5
aI1
aI1
asg2274
(lp3211
I35
aI7
aI12
aI1
aI1
asVgoal
p3212
(lp3213
I19
aI2
aI1
asVnode
p3214
(lp3215
I57
aI9
aI13
aI4
aI4
aI2
aI1
aI1
aI1
asVexpand
p3216
(lp3217
I19
aI6
aI7
aI4
aI1
assg1822
(dp3218
Vstep
p3219
(lp3220
I1
aI22
asg901
(lp3221
I2
aI18
asVplan
p3222
(lp3223
I1
aI47
aI109
aI18
asVorder
p3224
(lp3225
I1
aI23
aI35
aI6
aI2
assg830
(dp3226
Vboard
p3227
(lp3228
I29
aI2
aI15
aI8
asVstate
p3229
(lp3230
I43
aI5
aI3
aI4
asg2689
(lp3231
I2
aI25
aI7
asVassign
p3232
(lp3233
I27
aI3
asVsolut
p3234
(lp3235
I18
aI1
aI12
aI3
asVdiagon
p3236
(lp3237
I3
aI19
asVattack
p3238
(lp3239
I47
aI7
aI5
asVformul
p3240
(lp3241
I22
aI2
aI2
asVposit
p3242
(lp3243
I19
aI21
asVthird
p3244
(lp3245
I7
aI1
aI31
assg811
(dp3246
Vtype
p3247
(lp3248
I1
aI17
aI1
aI2
asg813
(lp3249
I6
aI1
aI26
aI9
asVnumber
p3250
(lp3251
I1
aI53
asg809
(lp3252
I25
aI1
aI1
aI2
aI56
aI30
assg1424
(dp3253
Vanim
p3254
(lp3255
I43
aI2
asVlevel
p3256
(lp3257
I21
aI1
asg1106
(lp3258
I16
aI1
aI13
asg1426
(lp3259
I3
aI19
aI19
aI2
asVfeather
p3260
(lp3261
I5
aI17
asVtype
p3262
(lp3263
I2
aI16
aI5
asg1422
(lp3264
I75
aI25
aI18
aI8
asg2754
(lp3265
I10
aI17
aI4
assVleg
p3266
(dp3267
g562
(lp3268
I36
aI8
aI14
asg2882
(lp3269
I4
aI20
aI28
aI7
aI9
assg1686
(dp3270
Vspace
p3271
(lp3272
I16
aI3
asVstate
p3273
(lp3274
I18
aI3
assVchang
p3275
(dp3276
Vaction
p3277
(lp3278
I5
aI23
aI3
aI1
assg2319
(dp3279
g2559
(lp3280
I1
aI19
asVaction
p3281
(lp3282
I20
aI14
asg901
(lp3283
I15
aI48
aI4
assVimplic
p3284
(dp3285
Vdoorbel
p3286
(lp3287
I18
aI2
asVrule
p3288
(lp3289
I1
aI3
aI1
aI1
aI21
aI6
aI7
aI2
assVtrain
p3290
(dp3291
Vdecis
p3292
(lp3293
I1
aI29
aI7
aI1
aI2
aI3
asVlearn
p3294
(lp3295
I22
aI25
aI6
aI6
aI6
aI4
aI7
aI4
asVclassifi
p3296
(lp3297
I2
aI20
aI10
aI18
aI1
asVdata
p3298
(lp3299
I4
aI53
aI12
aI25
aI10
aI7
aI14
aI5
asVfit
p3300
(lp3301
I26
aI1
aI4
aI2
aI3
asVweight
p3302
(lp3303
I25
aI6
asVnetwork
p3304
(lp3305
I1
aI6
aI37
aI3
asVspace
p3306
(lp3307
I1
aI18
asVtree
p3308
(lp3309
I35
aI16
aI1
aI2
aI3
asVaccuraci
p3310
(lp3311
I4
aI27
aI6
aI14
asVattribut
p3312
(lp3313
I6
aI37
aI11
aI9
asg1344
(lp3314
I36
aI100
aI32
aI59
aI8
aI2
aI9
aI3
asVerror
p3315
(lp3316
I7
aI18
aI7
aI16
aI11
asVneural
p3317
(lp3318
I1
aI4
aI26
aI3
asVexampl
p3319
(lp3320
I38
aI51
aI45
aI4
aI20
aI7
aI21
asVhypothesi
p3321
(lp3322
I23
aI62
aI5
aI14
asg2003
(lp3323
I7
aI17
aI3
assVretriev
p3324
(dp3325
Vinform
p3326
(lp3327
I1
aI17
aI4
assg813
(dp3328
g811
(lp3329
I6
aI1
aI27
aI6
asg809
(lp3330
I6
aI1
aI1
aI31
aI7
assg980
(dp3331
g994
(lp3332
I17
aI4
aI27
aI7
asVproposit
p3333
(lp3334
I17
aI2
aI7
asg2942
(lp3335
I48
aI10
aI43
aI22
assg3054
(dp3336
Vpatient
p3337
(lp3338
I17
aI26
assVsurfac
p3339
(dp3340
Vdecis
p3341
(lp3342
I11
aI28
assVisoscel
p3343
(dp3344
g2161
(lp3345
I43
aI31
aI10
assVelement
p3346
(dp3347
Vset
p3348
(lp3349
I2
aI19
aI5
aI1
aI43
aI26
aI6
aI1
asVmembership
p3350
(lp3351
I6
aI27
assVperfect
p3352
(dp3353
g777
(lp3354
I50
aI5
asg1886
(lp3355
I75
aI8
asg783
(lp3356
I24
aI6
assVle
p3357
(dp3358
g680
(lp3359
I2
aI21
aI2
aI55
aI1
assVsuccessor
p3360
(dp3361
Vqueen
p3362
(lp3363
I18
aI2
asg577
(lp3364
I1
aI20
asVstate
p3365
(lp3366
I31
aI18
aI2
aI8
aI8
aI10
asVfring
p3367
(lp3368
I9
aI48
aI4
aI4
asVnumber
p3369
(lp3370
I1
aI2
aI1
aI22
asVremov
p3371
(lp3372
I24
aI13
aI1
asg1135
(lp3373
I6
aI18
aI10
aI4
aI5
aI2
asg2681
(lp3374
I21
aI23
aI20
aI4
aI14
aI9
aI2
assVtruth
p3375
(dp3376
Vfals
p3377
(lp3378
I3
aI41
aI1
aI3
asVproposit
p3379
(lp3380
I12
aI20
aI2
asVtabl
p3381
(lp3382
I18
aI4
aI1
assg3122
(dp3383
g1223
(lp3384
I13
aI19
asVagent
p3385
(lp3386
I8
aI41
aI4
aI6
aI2
asVsystem
p3387
(lp3388
I22
aI3
aI2
aI5
aI2
aI2
aI1
aI1
asg1740
(lp3389
I1
aI19
aI5
asVknowledg
p3390
(lp3391
I4
aI1
aI21
aI3
aI1
aI1
aI1
asg793
(lp3392
I35
aI1
aI6
aI1
aI3
aI1
aI2
aI1
asg3120
(lp3393
I40
aI12
aI4
aI2
aI2
aI1
aI3
aI1
aI2
aI2
aI6
aI1
aI1
aI2
aI1
aI1
aI2
aI1
aI1
aI2
aI1
aI2
aI2
aI1
aI1
aI3
aI1
aI1
aI1
aI1
aI1
aI1
aI1
aI1
aI1
aI2
aI1
aI1
aI3
aI2
assg1672
(dp3394
g1670
(lp3395
I40
aI34
aI1
aI1
asVunassign
p3396
(lp3397
I16
aI3
asVpredic
p3398
(lp3399
I17
aI2
aI5
asg2202
(lp3400
I35
aI35
aI1
aI1
asg1674
(lp3401
I54
aI27
asVinvolv
p3402
(lp3403
I16
aI2
asVconstraint
p3404
(lp3405
I56
aI43
asVcheck
p3406
(lp3407
I5
aI19
assVred
p3408
(dp3409
g240
(lp3410
I3
aI21
aI17
aI1
aI1
asg31
(lp3411
I3
aI2
aI28
aI12
aI1
aI1
aI8
assg301
(dp3412
Vcarri
p3413
(lp3414
I2
aI21
assg2807
(dp3415
g2860
(lp3416
I8
aI20
asVset
p3417
(lp3418
I52
aI75
asVvalu
p3419
(lp3420
I4
aI22
asVdegre
p3421
(lp3422
I25
aI17
asVheight
p3423
(lp3424
I17
aI8
asVfuzzi
p3425
(lp3426
I32
aI45
asVposit
p3427
(lp3428
I2
aI16
asVcurv
p3429
(lp3430
I20
aI12
asVelement
p3431
(lp3432
I6
aI27
asVbelong
p3433
(lp3434
I19
aI2
asVtall
p3435
(lp3436
I22
aI16
assg449
(dp3437
g1551
(lp3438
I3
aI19
asg455
(lp3439
I3
aI35
aI2
aI4
assg3387
(dp3440
g133
(lp3441
I4
aI2
aI42
aI4
aI1
aI1
asVintellig
p3442
(lp3443
I24
aI3
aI2
aI4
aI1
aI1
aI1
aI2
asVtask
p3444
(lp3445
I8
aI1
aI1
aI18
asVobject
p3446
(lp3447
I1
aI1
aI1
aI9
aI2
aI19
aI3
asVframe
p3448
(lp3449
I3
aI19
aI1
asg3390
(lp3450
I10
aI1
aI1
aI1
aI1
aI9
aI1
aI4
aI2
aI24
aI1
aI3
aI5
asg2884
(lp3451
I4
aI4
aI46
aI2
aI124
aI2
aI2
aI1
aI1
asVstate
p3452
(lp3453
I21
aI1
aI2
aI2
aI1
aI1
aI1
aI1
aI1
asVhuman
p3454
(lp3455
I21
aI4
aI9
aI1
aI1
asg2890
(lp3456
I1
aI1
aI3
aI64
aI41
aI8
aI11
aI46
aI1
aI4
aI3
aI3
aI2
aI1
assg3238
(dp3457
Vqueen
p3458
(lp3459
I49
aI7
aI6
assVfuzzi
p3460
(dp3461
g2860
(lp3462
I13
aI24
asVset
p3463
(lp3464
I105
aI177
asg3421
(lp3465
I3
aI17
asVlogic
p3466
(lp3467
I7
aI17
asVmembership
p3468
(lp3469
I33
aI36
asVtall
p3470
(lp3471
I12
aI30
assg759
(dp3472
Vrain
p3473
(lp3474
I2
aI16
aI7
assg1087
(dp3475
Vdecis
p3476
(lp3477
I3
aI22
asVset
p3478
(lp3479
I2
aI1
aI25
asVsearch
p3480
(lp3481
I1
aI6
aI20
aI9
aI1
asg1339
(lp3482
I25
aI3
aI3
aI94
asVnode
p3483
(lp3484
I6
aI6
aI34
aI4
aI44
assVsen
p3485
(dp3486
g374
(lp3487
I7
aI100
assVsprinkler
p3488
(dp3489
Vfire
p3490
(lp3491
I6
aI16
assVmin
p3492
(dp3493
Vevalu
p3494
(lp3495
I24
aI17
asVnode
p3496
(lp3497
I21
aI149
asVmax
p3498
(lp3499
I22
aI59
aI16
asVminimax
p3500
(lp3501
I10
aI18
assVaccuraci
p3502
(dp3503
Vset
p3504
(lp3505
I1
aI31
aI11
aI45
asVtrain
p3506
(lp3507
I4
aI30
aI5
aI13
asVtree
p3508
(lp3509
I14
aI32
asVclassifi
p3510
(lp3511
I19
aI4
aI8
aI1
assg232
(dp3512
g230
(lp3513
I18
aI4
assVfact
p3514
(dp3515
Vrule
p3516
(lp3517
I2
aI43
aI19
aI1
aI1
aI9
aI3
aI1
aI1
assVtext
p3518
(dp3519
Vtranslat
p3520
(lp3521
I16
aI13
asVspeech
p3522
(lp3523
I10
aI17
assg3005
(dp3524
Vgame
p3525
(lp3526
I2
aI20
assg2252
(dp3527
Vsearch
p3528
(lp3529
I25
aI1
assg2333
(dp3530
Vsearch
p3531
(lp3532
I1
aI12
aI11
aI23
asVaction
p3533
(lp3534
I23
aI7
aI41
aI8
aI4
asVcorrect
p3535
(lp3536
I31
aI2
asVoppon
p3537
(lp3538
I27
aI1
asVposit
p3539
(lp3540
I34
aI2
aI33
aI4
aI1
asVtabl
p3541
(lp3542
I2
aI3
aI3
aI25
aI29
asVstate
p3543
(lp3544
I32
aI11
aI4
aI6
aI1
aI13
aI7
aI11
aI2
aI2
asVplayer
p3545
(lp3546
I33
aI9
asVmake
p3547
(lp3548
I2
aI34
aI2
aI2
aI1
aI2
asg510
(lp3549
I16
aI9
aI6
aI1
asVminimax
p3550
(lp3551
I4
aI17
asVnode
p3552
(lp3553
I11
aI12
aI18
assg3091
(dp3554
g2270
(lp3555
I1
aI1
aI1
aI34
aI38
asg3100
(lp3556
I2
aI1
aI16
aI19
assVjoint
p3557
(dp3558
Vprobabl
p3559
(lp3560
I20
aI12
aI3
assVenabl
p3561
(dp3562
g2926
(lp3563
I12
aI10
aI16
asg2932
(lp3564
I22
aI14
aI21
aI2
assVpossibl
p3565
(dp3566
Vspace
p3567
(lp3568
I1
aI2
aI1
aI1
aI5
aI2
aI2
aI5
aI4
aI19
aI2
asVstate
p3569
(lp3570
I39
aI4
aI2
aI1
aI2
aI3
aI1
aI1
aI7
aI10
aI11
aI5
asVvalu
p3571
(lp3572
I3
aI1
aI9
aI20
aI1
aI1
aI1
aI9
aI1
asg2856
(lp3573
I2
aI1
aI9
aI62
aI17
assVframe
p3574
(dp3575
Vinstanc
p3576
(lp3577
I26
aI2
asVsystem
p3578
(lp3579
I3
aI16
aI1
asVclass
p3580
(lp3581
I19
aI2
assg2135
(dp3582
g2133
(lp3583
I4
aI1
aI2
aI24
aI2
aI19
aI13
aI5
aI9
aI3
aI2
aI2
aI3
aI7
asVconcept
p3584
(lp3585
I20
aI1
aI1
aI1
asVagent
p3586
(lp3587
I24
aI1
aI2
asVintellig
p3588
(lp3589
I4
aI1
aI26
aI3
aI1
aI1
aI1
asVbase
p3590
(lp3591
I1
aI9
aI9
aI3
aI4
aI23
aI9
aI5
aI12
aI1
asVsystem
p3592
(lp3593
I9
aI1
aI1
aI1
aI1
aI11
aI1
aI4
aI3
aI22
aI1
aI3
aI1
aI5
asVexpert
p3594
(lp3595
I2
aI36
aI1
aI4
aI2
asg2945
(lp3596
I2
aI20
aI5
aI1
aI5
aI5
aI6
asVlanguag
p3597
(lp3598
I39
aI8
aI3
asg2604
(lp3599
I1
aI16
aI8
aI3
aI2
aI2
aI18
aI1
aI1
aI2
assg536
(dp3600
Vrepresent
p3601
(lp3602
I17
aI24
aI3
aI5
aI2
asg1036
(lp3603
I7
aI23
aI5
aI5
aI2
aI4
aI16
asVcost
p3604
(lp3605
I7
aI4
aI7
aI16
aI11
asVcurrent
p3606
(lp3607
I7
aI23
aI8
aI11
aI49
aI3
aI1
asVsatisfi
p3608
(lp3609
I3
aI18
aI28
aI6
aI11
asg1291
(lp3610
I9
aI39
aI16
aI11
aI8
aI2
aI4
aI13
aI9
asg1686
(lp3611
I16
aI3
asg1688
(lp3612
I1
aI59
aI41
aI42
aI27
aI20
aI7
aI11
aI2
aI3
aI2
aI34
aI38
aI2
aI2
aI3
asg115
(lp3613
I8
aI59
aI8
aI8
aI108
aI85
aI17
aI50
aI1
asg2402
(lp3614
I1
aI36
aI1
aI4
aI1
aI2
asVhold
p3615
(lp3616
I14
aI6
aI1
aI21
asg2452
(lp3617
I21
aI92
aI9
aI2
aI17
aI41
aI1
asg1445
(lp3618
I3
aI102
aI41
aI52
aI18
aI16
aI6
aI1
aI17
aI31
aI62
aI108
aI40
aI13
aI3
asVexplicit
p3619
(lp3620
I20
aI6
aI2
aI1
asg2333
(lp3621
I34
aI11
aI4
aI4
aI1
aI12
aI8
aI10
aI1
aI1
asVprecondit
p3622
(lp3623
I15
aI23
aI7
asg2336
(lp3624
I72
aI38
aI3
aI12
aI10
aI7
aI41
aI58
aI79
aI33
asVlevel
p3625
(lp3626
I1
aI1
aI37
aI5
asVachiev
p3627
(lp3628
I1
aI2
aI7
aI19
aI30
aI7
asVvariabl
p3629
(lp3630
I18
aI1
aI4
aI1
asg1682
(lp3631
I1
aI85
aI76
aI6
aI47
aI6
aI4
aI1
aI3
aI1
aI28
aI16
aI2
aI4
asVmodel
p3632
(lp3633
I1
aI16
aI1
aI1
aI9
aI1
asVpuzzl
p3634
(lp3635
I17
aI5
aI2
aI1
asg429
(lp3636
I1
aI23
asg3360
(lp3637
I32
aI18
aI2
aI8
aI8
aI7
asVoper
p3638
(lp3639
I59
aI21
aI1
aI2
aI2
aI7
aI3
asVtop
p3640
(lp3641
I1
aI7
aI4
aI29
aI4
aI2
asVsystem
p3642
(lp3643
I18
aI1
aI2
aI3
aI1
aI1
aI1
aI1
aI1
aI1
asVproposit
p3644
(lp3645
I3
aI56
aI16
aI5
aI44
aI1
asVbidirect
p3646
(lp3647
I16
aI1
aI3
asg842
(lp3648
I1
aI23
aI16
asVtabl
p3649
(lp3650
I2
aI3
aI1
aI2
aI4
aI25
aI11
asVtake
p3651
(lp3652
I27
aI9
aI2
aI7
asg135
(lp3653
I1
aI19
aI2
aI1
aI3
aI1
aI1
aI2
aI4
aI2
asVreach
p3654
(lp3655
I49
aI5
aI9
aI5
aI7
aI1
aI2
aI3
aI2
asVplan
p3656
(lp3657
I1
aI4
aI9
aI1
aI16
aI17
aI27
aI29
asg2404
(lp3658
I43
aI5
aI3
aI4
asVconfigur
p3659
(lp3660
I23
aI5
asVsolut
p3661
(lp3662
I11
aI30
aI2
aI8
aI2
aI2
asVset
p3663
(lp3664
I36
aI12
aI1
aI4
aI16
aI4
aI15
aI1
aI2
asVempti
p3665
(lp3666
I1
aI1
aI17
aI1
aI1
aI2
aI4
aI4
asVfire
p3667
(lp3668
I17
aI8
aI1
aI14
asVexecut
p3669
(lp3670
I8
aI3
aI1
aI8
aI1
aI30
aI6
asg2367
(lp3671
I4
aI2
aI1
aI30
aI3
aI1
asVpossibl
p3672
(lp3673
I40
aI4
aI3
aI1
aI2
aI2
aI1
aI1
aI8
aI11
aI11
aI6
asVrepres
p3674
(lp3675
I19
aI19
aI2
aI2
aI1
aI11
aI1
aI3
asg1028
(lp3676
I20
aI22
aI33
aI11
aI13
aI4
aI6
aI9
aI4
aI1
aI1
aI2
asVsequenc
p3677
(lp3678
I3
aI26
aI3
aI6
aI3
asg1702
(lp3679
I3
aI23
aI5
aI5
aI2
aI9
aI6
asg2125
(lp3680
I4
aI4
aI31
aI16
aI9
aI4
aI1
asg2867
(lp3681
I2
aI35
aI23
aI3
aI2
aI20
aI3
aI1
aI2
asg1150
(lp3682
I5
aI1
aI5
aI6
aI17
aI2
assVinstanc
p3683
(dp3684
g886
(lp3685
I21
aI4
asVclass
p3686
(lp3687
I3
aI12
aI23
aI8
aI13
aI3
aI10
asVdog
p3688
(lp3689
I4
aI23
asVset
p3690
(lp3691
I4
aI5
aI16
aI1
aI1
aI1
asVframe
p3692
(lp3693
I25
aI2
assg3260
(dp3694
Vbird
p3695
(lp3696
I6
aI17
assVpresent
p3697
(dp3698
Vaction
p3699
(lp3700
I1
aI28
assg1828
(dp3701
g2071
(lp3702
I29
aI6
aI4
assVdefin
p3703
(dp3704
g1696
(lp3705
I2
aI17
asVset
p3706
(lp3707
I1
aI15
aI16
aI1
aI1
aI2
assg1832
(dp3708
g2564
(lp3709
I42
aI7
aI1
aI8
assVlayer
p3710
(dp3711
Vhidden
p3712
(lp3713
I5
aI47
asVfunction
p3714
(lp3715
I10
aI16
asVnetwork
p3716
(lp3717
I1
aI22
aI44
asVunit
p3718
(lp3719
I15
aI21
asVneural
p3720
(lp3721
I7
aI19
assg694
(dp3722
Vvalu
p3723
(lp3724
I2
aI20
asVproperti
p3725
(lp3726
I18
aI4
assVcross
p3727
(dp3728
Vvalid
p3729
(lp3730
I18
aI2
assVinch
p3731
(dp3732
g2845
(lp3733
I27
aI3
asg1269
(lp3734
I22
aI3
asg2864
(lp3735
I25
aI1
assVinfer
p3736
(dp3737
Vinduct
p3738
(lp3739
I2
aI25
aI6
asg2693
(lp3740
I18
aI2
aI4
aI2
aI3
asg2691
(lp3741
I17
aI3
aI5
aI3
aI4
asg562
(lp3742
I21
aI5
asg3516
(lp3743
I45
aI1
aI2
aI67
aI14
aI1
aI1
aI1
aI11
aI4
aI19
aI9
aI2
aI1
assg1186
(dp3744
g1179
(lp3745
I3
aI53
aI1
aI1
aI14
asg1181
(lp3746
I2
aI36
aI1
aI2
aI3
asg1551
(lp3747
I3
aI71
aI12
asg455
(lp3748
I3
aI17
assVeffect
p3749
(dp3750
Vaction
p3751
(lp3752
I1
aI15
aI18
aI3
aI11
assg1113
(dp3753
Vwhose
p3754
(lp3755
I16
aI3
aI2
aI1
asg1042
(lp3756
I17
aI5
aI1
aI5
asg1044
(lp3757
I3
aI4
aI26
aI2
asVcost
p3758
(lp3759
I1
aI8
aI1
aI18
asVfring
p3760
(lp3761
I3
aI17
aI20
aI11
aI15
asg397
(lp3762
I5
aI26
aI25
aI14
aI14
aI10
aI1
aI2
asVnumber
p3763
(lp3764
I1
aI5
aI8
aI31
aI4
aI9
aI1
asVida
p3765
(lp3766
I1
aI25
aI2
asVminimax
p3767
(lp3768
I2
aI19
asg2681
(lp3769
I11
aI74
aI124
aI92
aI36
aI28
aI1
aI1
aI2
asg273
(lp3770
I18
aI5
aI5
aI3
aI1
aI1
assg358
(dp3771
g95
(lp3772
I1
aI1
aI16
asg344
(lp3773
I7
aI2
aI3
aI1
aI39
aI100
aI9
aI1
asg305
(lp3774
I1
aI12
aI22
asg348
(lp3775
I1
aI4
aI25
aI4
asVlayer
p3776
(lp3777
I6
aI20
assVexampl
p3778
(dp3779
Vdecis
p3780
(lp3781
I19
aI2
aI1
aI1
asVtrain
p3782
(lp3783
I36
aI53
aI45
aI6
aI22
aI7
aI23
asVlearn
p3784
(lp3785
I2
aI41
aI21
aI2
aI1
aI4
aI2
asVtree
p3786
(lp3787
I1
aI19
aI6
aI1
aI1
asVposit
p3788
(lp3789
I10
aI9
aI30
aI13
aI3
aI2
asVclass
p3790
(lp3791
I1
aI1
aI4
aI8
aI21
aI18
aI1
aI8
asVset
p3792
(lp3793
I1
aI2
aI1
aI33
aI45
aI26
aI6
aI1
aI2
aI5
aI1
asVlabel
p3794
(lp3795
I27
aI2
aI4
aI3
asVattribut
p3796
(lp3797
I1
aI1
aI3
aI5
aI51
aI10
aI6
asg540
(lp3798
I34
aI50
aI8
asg960
(lp3799
I8
aI5
aI28
aI13
aI3
aI2
asVnode
p3800
(lp3801
I2
aI1
aI18
aI11
assg550
(dp3802
Vfido
p3803
(lp3804
I24
aI4
asVdog
p3805
(lp3806
I13
aI18
assVcrisp
p3807
(dp3808
g3417
(lp3809
I56
aI45
asVfuzzi
p3810
(lp3811
I12
aI23
asg2807
(lp3812
I9
aI22
assVlike
p3813
(dp3814
Vhypothesi
p3815
(lp3816
I1
aI3
aI25
assg1809
(dp3817
Vdoorbel
p3818
(lp3819
I21
aI10
aI5
assg1121
(dp3820
g1038
(lp3821
I18
aI4
asg512
(lp3822
I2
aI24
aI13
aI10
aI2
aI23
aI3
assVsigmoid
p3823
(dp3824
Vfunction
p3825
(lp3826
I37
aI31
asg2970
(lp3827
I13
aI21
assVcertainti
p3828
(dp3829
Vfactor
p3830
(lp3831
I10
aI23
aI170
aI14
aI3
asVanteced
p3832
(lp3833
I4
aI19
asg2586
(lp3834
I1
aI21
aI19
aI1
asVmodifi
p3835
(lp3836
I1
aI18
asVevid
p3837
(lp3838
I1
aI3
aI23
aI3
asVrule
p3839
(lp3840
I2
aI3
aI3
aI66
aI6
asVcombin
p3841
(lp3842
I1
aI24
aI2
assg3236
(dp3843
Vqueen
p3844
(lp3845
I2
aI18
assVfunction
p3846
(dp3847
g107
(lp3848
I11
aI16
asVheurist
p3849
(lp3850
I1
aI40
aI10
aI5
aI1
aI8
asVperceptron
p3851
(lp3852
I19
aI4
asg3247
(lp3853
I1
aI2
aI18
aI1
aI11
aI1
aI2
aI1
aI7
aI3
asVlearn
p3854
(lp3855
I1
aI11
aI2
aI16
aI7
asVdifferenti
p3856
(lp3857
I15
aI25
asVweight
p3858
(lp3859
I2
aI20
aI5
asVlinear
p3860
(lp3861
I1
aI29
aI10
asVnumber
p3862
(lp3863
I1
aI1
aI8
aI4
aI16
aI1
aI2
aI1
aI1
aI3
aI1
asVcomput
p3864
(lp3865
I6
aI1
aI3
aI2
aI7
aI5
aI21
aI4
asVsigma
p3866
(lp3867
I16
aI12
asVrepres
p3868
(lp3869
I5
aI3
aI2
aI16
aI14
asg2964
(lp3870
I1
aI15
aI4
aI21
aI10
asVunit
p3871
(lp3872
I26
aI19
asVsigmoid
p3873
(lp3874
I38
aI32
asVpower
p3875
(lp3876
I1
aI1
aI2
aI18
asg2681
(lp3877
I4
aI26
aI7
aI8
aI5
asVnetwork
p3878
(lp3879
I1
aI26
aI22
assVlimit
p3880
(dp3881
Viter
p3882
(lp3883
I2
aI2
aI21
aI1
asVsearch
p3884
(lp3885
I29
aI5
aI14
aI1
aI2
aI1
aI2
asVnode
p3886
(lp3887
I16
aI15
aI20
aI1
aI1
aI2
asVdepth
p3888
(lp3889
I31
aI8
aI12
aI1
aI1
assg2894
(dp3890
Vplan
p3891
(lp3892
I19
aI16
aI4
aI5
asVsatisfact
p3893
(lp3894
I2
aI1
aI17
aI20
asVsolv
p3895
(lp3896
I25
aI3
aI3
aI6
aI1
aI2
aI1
aI3
aI1
aI1
aI1
aI1
aI1
asVconstraint
p3897
(lp3898
I2
aI20
aI21
assVevalu
p3899
(dp3900
g199
(lp3901
I1
aI17
aI3
aI5
aI8
aI2
aI2
asVinterpret
p3902
(lp3903
I18
aI7
aI2
asVanteced
p3904
(lp3905
I5
aI4
aI19
asVmin
p3906
(lp3907
I25
aI17
asg676
(lp3908
I1
aI40
aI6
asVnode
p3909
(lp3910
I3
aI5
aI77
aI2
asVrule
p3911
(lp3912
I1
aI9
aI2
aI20
aI3
assg2679
(dp3913
Vmalaria
p3914
(lp3915
I40
aI2
asVprior
p3916
(lp3917
I13
aI3
aI33
asVtype
p3918
(lp3919
I16
aI1
asVoccur
p3920
(lp3921
I66
aI23
aI2
asVfever
p3922
(lp3923
I36
aI7
asVevent
p3924
(lp3925
I55
aI12
aI2
asVindepend
p3926
(lp3927
I20
aI34
asVdata
p3928
(lp3929
I1
aI21
aI2
asVjohn
p3930
(lp3931
I44
aI1
aI4
asVcomput
p3932
(lp3933
I1
aI12
aI36
aI2
aI2
aI4
asVdoorbel
p3934
(lp3935
I3
aI25
aI6
asg3557
(lp3936
I22
aI12
aI3
asVevid
p3937
(lp3938
I5
aI25
aI13
asVhypothesi
p3939
(lp3940
I4
aI19
aI1
aI1
aI2
aI99
asVcondit
p3941
(lp3942
I5
aI35
aI35
aI3
asVclass
p3943
(lp3944
I3
aI16
asVpriori
p3945
(lp3946
I46
aI44
asVnode
p3947
(lp3948
I25
aI2
assVbranch
p3949
(dp3950
Vattribut
p3951
(lp3952
I16
aI5
assg2890
(dp3953
Vchain
p3954
(lp3955
I7
aI5
aI4
aI19
aI9
aI15
aI3
aI1
asVdecis
p3956
(lp3957
I7
aI2
aI4
aI2
aI2
aI1
aI19
asVconsequ
p3958
(lp3959
I2
aI17
aI11
aI3
aI4
aI3
asVinterpret
p3960
(lp3961
I1
aI7
aI17
aI1
aI3
aI2
asVbase
p3962
(lp3963
I1
aI47
aI31
aI10
aI1
aI1
asVselect
p3964
(lp3965
I23
aI12
aI15
aI2
aI2
aI3
asVprove
p3966
(lp3967
I2
aI35
aI17
asVimplic
p3968
(lp3969
I1
aI3
aI1
aI1
aI20
aI5
aI6
aI2
asg49
(lp3970
I15
aI33
aI8
asVcombin
p3971
(lp3972
I31
aI2
asVorder
p3973
(lp3974
I3
aI17
aI4
aI5
aI3
aI1
aI2
aI3
aI2
asVanteced
p3975
(lp3976
I2
aI37
aI9
aI3
aI10
aI4
aI5
aI13
aI1
aI2
asVconfid
p3977
(lp3978
I18
aI2
asVcorrect
p3979
(lp3980
I1
aI1
aI16
aI1
asg2886
(lp3981
I1
aI1
aI3
aI61
aI41
aI7
aI9
aI44
aI1
aI4
aI4
aI3
aI2
aI1
asVtree
p3982
(lp3983
I1
aI1
aI1
aI26
asVsay
p3984
(lp3985
I9
aI17
aI5
aI4
asVfact
p3986
(lp3987
I2
aI42
aI21
aI1
aI1
aI9
aI2
aI1
aI1
asVfactor
p3988
(lp3989
I1
aI1
aI3
aI56
aI3
asVexpress
p3990
(lp3991
I17
aI2
aI9
aI5
asVenabl
p3992
(lp3993
I26
aI11
aI23
aI2
asg3663
(lp3994
I2
aI1
aI30
aI3
aI4
aI1
aI1
aI12
aI15
aI1
aI36
aI1
asVknowledg
p3995
(lp3996
I1
aI1
aI1
aI1
aI19
aI10
aI3
aI2
aI3
aI20
aI1
aI1
aI3
asg2884
(lp3997
I1
aI12
aI3
aI27
aI2
aI4
aI1
aI3
asg2837
(lp3998
I2
aI38
aI25
aI4
aI17
aI3
aI1
aI2
asVlogic
p3999
(lp4000
I3
aI17
aI1
aI1
aI1
aI2
aI5
aI1
asVtrigger
p4001
(lp4002
I49
aI21
asVstrategi
p4003
(lp4004
I7
aI24
aI2
aI1
asg2926
(lp4005
I98
aI80
aI5
aI48
aI14
aI3
asVinfer
p4006
(lp4007
I42
aI1
aI2
aI66
aI14
aI2
aI2
aI1
aI11
aI4
aI19
aI10
aI3
aI2
asVconflict
p4008
(lp4009
I18
aI22
aI3
aI2
asg3837
(lp4010
I1
aI3
aI18
aI2
aI1
aI2
asVrain
p4011
(lp4012
I2
aI17
aI3
aI4
asVmin
p4013
(lp4014
I6
aI16
asVexecut
p4015
(lp4016
I20
aI9
aI3
asVmatch
p4017
(lp4018
I6
aI30
aI15
aI3
aI18
aI4
asVapplic
p4019
(lp4020
I3
aI22
aI3
aI1
aI5
aI2
aI1
aI2
aI2
aI3
aI1
aI1
asVcondit
p4021
(lp4022
I19
aI10
aI2
aI3
aI4
aI19
aI1
asg3828
(lp4023
I3
aI2
aI5
aI69
aI5
asVform
p4024
(lp4025
I2
aI4
aI18
aI4
aI2
aI7
aI3
aI2
aI2
aI1
aI2
asVevalu
p4026
(lp4027
I1
aI7
aI1
aI18
aI2
ass.