((lp0
(lp1
c__builtin__
set
p2
((lp3
tp4
Rp5
ag2
((lp6
S'intelligence'
p7
aS'strong ai'
p8
aS'machine'
p9
aS'computer'
p10
aS'human'
p11
aS'intelligent'
p12
aS'artificial intelligence'
p13
atp14
Rp15
aa(lp16
g2
((lp17
tp18
Rp19
ag2
((lp20
S'rational agent'
p21
aS'autonomous agent'
p22
aS'agent'
p23
aS'environment'
p24
aS'bounded rationality'
p25
aS'rationality'
p26
aS'agent program'
p27
aS'intelligent agent'
p28
atp29
Rp30
aa(lp31
g2
((lp32
S'agent'
p33
aS'rational agent'
p34
atp35
Rp36
ag2
((lp37
S'space search'
p38
aS'goal state'
p39
aS'initial state'
p40
aS'agent refer'
p41
aS'current state'
p42
aS'goal test'
p43
aS'state'
p44
aS'operator'
p45
aS'implicit state'
p46
aS'state space'
p47
atp48
Rp49
aa(lp50
g2
((lp51
S'state space'
p52
aS'goal state'
p53
aS'state'
p54
aS'initial state'
p55
atp56
Rp57
ag2
((lp58
S'search'
p59
aS'breadth first search'
p60
aS'space'
p61
aS'first node'
p62
aS'search tree'
p63
aS'search strategy'
p64
aS'solution'
p65
aS'iterative deepening search'
p66
aS'search problem'
p67
aS'time and space'
p68
aS'search algorithm'
p69
aS'search space'
p70
atp71
Rp72
aa(lp73
g2
((lp74
S'search'
p75
aS'breadth first search'
p76
aS'search tree'
p77
aS'search space'
p78
aS'state'
p79
aS'goal state'
p80
aS'search algorithm'
p81
atp82
Rp83
ag2
((lp84
S'optimum path'
p85
aS'greedy search'
p86
aS'forward search'
p87
aS'node'
p88
aS'first search'
p89
aS'node n'
p90
aS'heuristic function'
p91
aS'cost search'
p92
aS'goal node'
p93
aS't state'
p94
aS'path'
p95
aS'bidirectional search'
p96
atp97
Rp98
aa(lp99
g2
((lp100
S'node'
p101
aS'search'
p102
aS'goal state'
p103
aS'initial state'
p104
aS'search tree'
p105
aS'first search'
p106
aS'state space'
p107
aS'iterative deepening search'
p108
aS'goal node'
p109
aS'state'
p110
aS'search space'
p111
aS'breadth first search'
p112
aS'bidirectional search'
p113
atp114
Rp115
ag2
((lp116
S'start node'
p117
aS'local search'
p118
aS'depth first search'
p119
aS'algorithm'
p120
atp121
Rp122
aa(lp123
g2
((lp124
S'node'
p125
aS'search'
p126
aS'search tree'
p127
aS'node n'
p128
aS'cost search'
p129
aS'bidirectional search'
p130
atp131
Rp132
ag2
((lp133
S'max player'
p134
aS'min player'
p135
aS'move'
p136
aS'player'
p137
aS'game'
p138
aS'agent search'
p139
aS'game tree'
p140
aS'other player'
p141
atp142
Rp143
aa(lp144
g2
((lp145
S'node'
p146
aS'search'
p147
aS'search tree'
p148
aS'move'
p149
aS'game'
p150
aS'game tree'
p151
atp152
Rp153
ag2
((lp154
S'exact minimax'
p155
aS'min node'
p156
aS'node ordering'
p157
aS'minimax'
p158
aS'minimax search'
p159
aS'exact minimax value'
p160
aS'minimax value'
p161
aS'ply search'
p162
aS'max node'
p163
atp164
Rp165
aa(lp166
g2
((lp167
S'search'
p168
aS'depth first search'
p169
aS'search tree'
p170
atp171
Rp172
ag2
((lp173
S'current assignment'
p174
aS'constraint satisfaction'
p175
aS'assignment'
p176
aS'constraint propagation'
p177
aS'constraint'
p178
atp179
Rp180
aa(lp181
g2
((lp182
S'search'
p183
aS'constraint'
p184
aS'constraint satisfaction'
p185
aS'search tree'
p186
aS'depth first search'
p187
aS'constraint propagation'
p188
atp189
Rp190
ag2
((lp191
S'domain'
p192
atp193
Rp194
aa(lp195
g2
((lp196
tp197
Rp198
ag2
((lp199
S'particular world'
p200
aS'interpretation'
p201
aS'knowledge'
p202
aS'compound proposition'
p203
aS'valid proposition'
p204
aS'propositional logic'
p205
aS'proposition'
p206
aS'world'
p207
aS'knowledge representation'
p208
aS'interpret'
p209
aS'proposition p'
p210
atp211
Rp212
aa(lp213
g2
((lp214
S'propositional logic'
p215
aS'proposition'
p216
atp217
Rp218
ag2
((lp219
tp220
Rp221
aa(lp222
g2
((lp223
S'propositional logic'
p224
aS'proposition'
p225
aS'proposition p'
p226
atp227
Rp228
ag2
((lp229
S'predicate'
p230
aS'order logic'
p231
aS'drink tom'
p232
aS'man tom'
p233
aS'tom'
p234
aS'predicate logic'
p235
aS'mammal tom'
p236
aS'valid predicate'
p237
aS'logic'
p238
aS'first order logic'
p239
aS'tom milk'
p240
atp241
Rp242
aa(lp243
g2
((lp244
S'predicate'
p245
aS'predicate logic'
p246
atp247
Rp248
ag2
((lp249
S'first order predicate'
p250
aS'horn sentence'
p251
aS'order predicate'
p252
atp253
Rp254
aa(lp255
g2
((lp256
tp257
Rp258
ag2
((lp259
S'clause'
p260
aS'resolution'
p261
aS'null clause'
p262
atp263
Rp264
aa(lp265
g2
((lp266
tp267
Rp268
ag2
((lp269
S'rule base'
p270
aS'third rule'
p271
aS'rule'
p272
atp273
Rp274
aa(lp275
g2
((lp276
S'goal state'
p277
aS'rule base'
p278
aS'rule'
p279
atp280
Rp281
ag2
((lp282
tp283
Rp284
aa(lp285
g2
((lp286
tp287
Rp288
ag2
((lp289
S'top level'
p290
aS'concept animal'
p291
atp292
Rp293
aa(lp294
g2
((lp295
tp296
Rp297
ag2
((lp298
S'semantic net'
p299
atp300
Rp301
aa(lp302
g2
((lp303
tp304
Rp305
ag2
((lp306
S'concept dog'
p307
aS'frame'
p308
aS'instance of dog'
p309
aS'dog'
p310
aS'super class'
p311
aS'particular dog'
p312
atp313
Rp314
aa(lp315
g2
((lp316
S'state space'
p317
aS'goal state'
p318
aS'initial state'
p319
aS'agent'
p320
aS'state'
p321
aS'proposition'
p322
atp323
Rp324
ag2
((lp325
S'action'
p326
aS'action go'
p327
aS'action pick'
p328
aS'successor state'
p329
atp330
Rp331
aa(lp332
g2
((lp333
S'search'
p334
aS'forward search'
p335
aS'goal state'
p336
aS'initial state'
p337
aS'state space'
p338
aS'current state'
p339
aS'state'
p340
aS'action'
p341
aS'search space'
p342
atp343
Rp344
ag2
((lp345
S'sub goal'
p346
aS'current goal'
p347
aS'goal'
p348
aS'backward search'
p349
atp350
Rp351
aa(lp352
g2
((lp353
S'action'
p354
atp355
Rp356
ag2
((lp357
S'new step'
p358
aS'planning algorithm'
p359
aS'planning problem'
p360
aS'step'
p361
aS'partial plan'
p362
aS'partial order'
p363
aS'planning'
p364
aS'plan'
p365
aS'initial plan'
p366
atp367
Rp368
aa(lp369
g2
((lp370
S'action'
p371
aS'proposition'
p372
aS'plan'
p373
atp374
Rp375
ag2
((lp376
S'valid plan'
p377
aS'level pi'
p378
aS'action level'
p379
aS'graph'
p380
aS'level'
p381
aS'graph expansion'
p382
aS'maintenance action'
p383
aS'planning graph'
p384
aS'previous level'
p385
aS'state level'
p386
aS'graph plan'
p387
atp388
Rp389
aa(lp390
g2
((lp391
S'knowledge'
p392
aS'rule'
p393
atp394
Rp395
ag2
((lp396
S'expert system'
p397
aS'expert'
p398
aS'system'
p399
aS'human expert'
p400
aS'knowledge acquisition'
p401
aS'knowledge base'
p402
atp403
Rp404
aa(lp405
g2
((lp406
tp407
Rp408
ag2
((lp409
S'doorbell'
p410
aS'measure of belief'
p411
aS'belief'
p412
aS'belief in h'
p413
aS'uncertainty'
p414
atp415
Rp416
aa(lp417
g2
((lp418
S'rule'
p419
atp420
Rp421
ag2
((lp422
S'certainty'
p423
aS'factor of h'
p424
aS'certainty factor'
p425
aS'factor'
p426
atp427
Rp428
aa(lp429
g2
((lp430
S'rule'
p431
atp432
Rp433
ag2
((lp434
S'joint probability'
p435
aS'probability theory'
p436
aS'event'
p437
atp438
Rp439
aa(lp440
g2
((lp441
S'node'
p442
atp443
Rp444
ag2
((lp445
S'probability of alarm'
p446
aS'compute'
p447
aS'probability'
p448
aS'priori probability'
p449
aS'computation'
p450
aS'probability of john'
p451
aS'conditional probability'
p452
aS'probability of b'
p453
atp454
Rp455
aa(lp456
g2
((lp457
tp458
Rp459
ag2
((lp460
S'set'
p461
aS'set theory'
p462
aS'set medium'
p463
aS'set tall'
p464
aS'tall'
p465
aS'case of fuzzy'
p466
aS'crisp set'
p467
atp468
Rp469
aa(lp470
g2
((lp471
S'set'
p472
aS'crisp set'
p473
aS'set tall'
p474
aS'rule'
p475
atp476
Rp477
ag2
((lp478
S'membership function'
p479
aS'fuzzy set'
p480
aS'fuzzy set tall'
p481
aS'membership'
p482
aS'membership value'
p483
aS'fuzzy'
p484
aS'fuzzy logic'
p485
atp486
Rp487
aa(lp488
g2
((lp489
S'system'
p490
atp491
Rp492
ag2
((lp493
S'concept learning'
p494
aS'machine learning'
p495
aS'learning'
p496
aS'learning problem'
p497
atp498
Rp499
aa(lp500
g2
((lp501
S'set'
p502
aS'algorithm'
p503
aS'space'
p504
atp505
Rp506
ag2
((lp507
S'training'
p508
aS'hypothesis space'
p509
aS'learning algorithm'
p510
aS'positive example'
p511
aS'negative example'
p512
aS'hypothesis'
p513
aS'version space'
p514
aS'set of training'
p515
aS'good hypothesis'
p516
aS'possible hypothesis'
p517
aS'training example'
p518
aS'set of hypothesis'
p519
atp520
Rp521
aa(lp522
g2
((lp523
S'node'
p524
aS'training example'
p525
aS'algorithm'
p526
atp527
Rp528
ag2
((lp529
S'attribute'
p530
aS'decision'
p531
aS'target attribute'
p532
aS'leaf node'
p533
aS'same class'
p534
aS'greedy algorithm'
p535
aS'decision attribute'
p536
atp537
Rp538
aa(lp539
g2
((lp540
S'node'
p541
aS'attribute'
p542
aS'decision'
p543
aS'set'
p544
atp545
Rp546
ag2
((lp547
S'training set'
p548
aS'test set'
p549
aS'rule set'
p550
aS'decision tree'
p551
aS'validation set'
p552
aS'tree'
p553
aS'data set'
p554
aS'data'
p555
aS'class'
p556
atp557
Rp558
aa(lp559
g2
((lp560
S'computer'
p561
atp562
Rp563
ag2
((lp564
S'weight'
p565
aS'computing'
p566
aS'xor function'
p567
aS'linear unit'
p568
aS'linear threshold unit'
p569
aS'weight vector'
p570
aS'threshold unit'
p571
atp572
Rp573
aa(lp574
g2
((lp575
S'training'
p576
aS'training example'
p577
atp578
Rp579
ag2
((lp580
S'function'
p581
aS'network'
p582
aS'error function'
p583
aS'output unit'
p584
aS'hidden unit'
p585
aS'sigmoid unit'
p586
aS'sigmoid function'
p587
aS'sigmoidal function'
p588
aS'neural network'
p589
aS'unit'
p590
atp591
Rp592
aa(lp593
g2
((lp594
S'hypothesis space'
p595
aS'possible hypothesis'
p596
aS'hypothesis'
p597
aS'class'
p598
aS'probability'
p599
atp600
Rp601
ag2
((lp602
S'prior probability'
p603
aS'different hypothesis'
p604
aS'map hypothesis'
p605
aS'posterior probability'
p606
atp607
Rp608
aa(lp609
g2
((lp610
tp611
Rp612
ag2
((lp613
S'language processing'
p614
aS'language'
p615
aS'text'
p616
aS'understanding'
p617
aS'natural language processing'
p618
aS'natural language'
p619
atp620
Rp621
aa(lp622
g2
((lp623
S'language'
p624
aS'natural language'
p625
atp626
Rp627
ag2
((lp628
S'balloon'
p629
aS'natural language understanding'
p630
aS'sentence'
p631
atp632
Rp633
aa(lp634
(dp635
a(dp636
a(dp637
g34
(F10.277346536194475
I5
tp638
sg33
(F10.277346536194475
I99
tp639
sa(dp640
g53
(F10.035481360151094
I12
tp641
sg55
(F10.035481360151094
I16
tp642
sg52
(F10.035481360151094
I34
tp643
sg54
(F10.035481360151094
I108
tp644
sa(dp645
g75
(F11.321696228181226
I145
tp646
sg80
(F5.859251925716299
I16
tp647
sg79
(F5.859251925716299
I51
tp648
sg77
(F11.321696228181226
I11
tp649
sg76
(F11.321696228181226
I11
tp650
sg78
(F11.321696228181226
I5
tp651
sg81
(F11.321696228181226
I11
tp652
sa(dp653
g101
(F8.152855626366444
I50
tp654
sg102
(F8.440276995702652
I91
tp655
sg103
(F6.28822074532721
I7
tp656
sg104
(F6.28822074532721
I5
tp657
sg105
(F8.440276995702652
I6
tp658
sg106
(F8.440276995702652
I25
tp659
sg107
(F6.28822074532721
I16
tp660
sg108
(F8.440276995702652
I7
tp661
sg109
(F8.152855626366444
I6
tp662
sg110
(F6.28822074532721
I61
tp663
sg112
(F8.440276995702652
I6
tp664
sg113
(F8.440276995702652
I6
tp665
sg111
(F8.440276995702652
I7
tp666
sa(dp667
g125
(F8.246547115472735
I66
tp668
sg126
(F8.048324937716659
I80
tp669
sg127
(F8.048324937716659
I18
tp670
sg128
(F8.246547115472735
I6
tp671
sg129
(F8.048324937716659
I5
tp672
sg130
(F8.048324937716659
I5
tp673
sa(dp674
g146
(F10.459684948210867
I144
tp675
sg147
(F7.0644346711364125
I80
tp676
sg148
(F7.0644346711364125
I12
tp677
sg149
(F5.264536284896902
I25
tp678
sg150
(F7.707556234189125
I41
tp679
sg151
(F7.707556234189125
I19
tp680
sa(dp681
g168
(F6.79303803306017
I50
tp682
sg170
(F6.79303803306017
I7
tp683
sg169
(F6.79303803306017
I7
tp684
sa(dp685
g183
(F5.592138156523426
I42
tp686
sg186
(F5.592138156523426
I7
tp687
sg185
(F7.0705120265392765
I23
tp688
sg184
(F7.0705120265392765
I59
tp689
sg187
(F5.592138156523426
I13
tp690
sg188
(F7.0705120265392765
I14
tp691
sa(dp692
a(dp693
g215
(F6.232449933124392
I9
tp694
sg216
(F6.232449933124392
I28
tp695
sa(dp696
g226
(F5.539973332859425
I5
tp697
sg224
(F5.834900514168782
I28
tp698
sg225
(F5.539973332859425
I23
tp699
sa(dp700
g245
(F5.187193436968367
I43
tp701
sg246
(F5.187193436968367
I17
tp702
sa(dp703
a(dp704
a(dp705
g278
(F15.393470702284223
I7
tp706
sg277
(F7.301528718602831
I6
tp707
sg279
(F15.393470702284223
I98
tp708
sa(dp709
a(dp710
a(dp711
a(dp712
g317
(F9.37128773679261
I14
tp713
sg318
(F9.37128773679261
I8
tp714
sg319
(F9.37128773679261
I21
tp715
sg320
(F6.343149212513702
I41
tp716
sg321
(F9.37128773679261
I120
tp717
sg322
(F6.490161008580108
I18
tp718
sa(dp719
g334
(F7.099397286531538
I65
tp720
sg335
(F7.099397286531538
I12
tp721
sg336
(F9.036861992500372
I24
tp722
sg338
(F9.036861992500372
I8
tp723
sg339
(F9.036861992500372
I12
tp724
sg340
(F9.036861992500372
I134
tp725
sg341
(F10.489319275437618
I83
tp726
sg337
(F9.036861992500372
I31
tp727
sg342
(F7.099397286531538
I5
tp728
sa(dp729
g354
(F5.801851307501442
I50
tp730
sa(dp731
g372
(F6.223433047441499
I33
tp732
sg373
(F5.501187630595054
I59
tp733
sg371
(F9.447415048637474
I101
tp734
sa(dp735
g392
(F7.160984969420651
I46
tp736
sg393
(F13.927153591356422
I60
tp737
sa(dp738
a(dp739
g419
(F8.033513012486642
I58
tp740
sa(dp741
g431
(F6.515495751449664
I21
tp742
sa(dp743
g442
(F5.267335412209101
I44
tp744
sa(dp745
a(dp746
g475
(F5.021946032723976
I21
tp747
sg472
(F8.69372628641921
I111
tp748
sg474
(F8.69372628641921
I9
tp749
sg473
(F8.69372628641921
I15
tp750
sa(dp751
g490
(F5.489670770099704
I36
tp752
sa(dp753
g502
(F7.917155067681643
I100
tp754
sg503
(F5.068736919365415
I30
tp755
sg504
(F5.379515990463551
I92
tp756
sa(dp757
g524
(F5.193788333464451
I41
tp758
sg526
(F5.008369840194959
I28
tp759
sg525
(F6.5420253479238974
I9
tp760
sa(dp761
g541
(F5.908067270523166
I44
tp762
sg544
(F8.526814878223226
I92
tp763
sg542
(F7.708540914074161
I28
tp764
sg543
(F6.669428056579827
I60
tp765
sa(dp766
g561
(F5.281568535954191
I6
tp767
sa(dp768
g576
(F5.160390531757352
I28
tp769
sg577
(F5.160390531757352
I6
tp770
sa(dp771
g599
(F9.197698217177761
I57
tp772
sg595
(F8.40131824273541
I13
tp773
sg597
(F8.40131824273541
I115
tp774
sg596
(F8.40131824273541
I5
tp775
sg598
(F5.101951501628962
I30
tp776
sa(dp777
a(dp778
g625
(F6.758513928905577
I20
tp779
sg624
(F6.758513928905577
I32
tp780
sa(lp781
(lp782
F0.0
aF0.0
aF0.0
aF0.0
aF0.0
aF0.0
aF0.0
aF0.0
aF0.0
aF0.0
aF0.0
aF0.0
aF0.0
aF0.0
aF0.0
aF0.0
aF0.0
aF0.0
aF0.0
aF0.0
aF0.0
aF0.0
aF0.0
aF0.0
aF0.0
aF0.0
aF0.0
aF0.0
aF0.0
aF0.0
aF0.0
aF0.0
aF0.0
aF0.0
aF0.0
aF0.0
aF0.0
aF0.0
aF0.0
aF0.0
aa(lp783
F0.0
aF0.0
aF0.0
aF0.0
aF0.0
aF0.0
aF0.0
aF0.0
aF0.0
aF0.0
aF0.0
aF0.0
aF0.0
aF0.0
aF0.0
aF0.0
aF0.0
aF0.0
aF0.0
aF0.0
aF0.0
aF0.0
aF0.0
aF0.0
aF0.0
aF0.0
aF0.0
aF0.0
aF0.0
aF0.0
aF0.0
aF0.0
aF0.0
aF0.0
aF0.0
aF0.0
aF0.0
aF0.0
aF0.0
aF0.0
aa(lp784
F0.0
aF10.277346536194475
aF0.0
aF0.0
aF0.0
aF0.0
aF0.0
aF0.0
aF0.0
aF0.0
aF0.0
aF0.0
aF0.0
aF0.0
aF0.0
aF0.0
aF0.0
aF0.0
aF0.0
aF0.0
aF0.0
aF0.0
aF0.0
aF0.0
aF0.0
aF0.0
aF0.0
aF0.0
aF0.0
aF0.0
aF0.0
aF0.0
aF0.0
aF0.0
aF0.0
aF0.0
aF0.0
aF0.0
aF0.0
aF0.0
aa(lp785
F0.0
aF0.0
aF10.035481360151094
aF0.0
aF0.0
aF0.0
aF0.0
aF0.0
aF0.0
aF0.0
aF0.0
aF0.0
aF0.0
aF0.0
aF0.0
aF0.0
aF0.0
aF0.0
aF0.0
aF0.0
aF0.0
aF0.0
aF0.0
aF0.0
aF0.0
aF0.0
aF0.0
aF0.0
aF0.0
aF0.0
aF0.0
aF0.0
aF0.0
aF0.0
aF0.0
aF0.0
aF0.0
aF0.0
aF0.0
aF0.0
aa(lp786
F0.0
aF0.0
aF0.44865129031199086
aF5.919629742163328
aF0.0
aF0.0
aF0.0
aF0.0
aF0.0
aF0.0
aF0.0
aF0.0
aF0.0
aF0.0
aF0.0
aF0.0
aF0.0
aF0.0
aF0.0
aF0.0
aF0.0
aF0.0
aF0.0
aF0.0
aF0.0
aF0.0
aF0.0
aF0.0
aF0.0
aF0.0
aF0.0
aF0.0
aF0.0
aF0.0
aF0.0
aF0.0
aF0.0
aF0.0
aF0.0
aF0.0
aa(lp787
F0.0
aF0.0
aF0.5877150394687547
aF1.2962882757905099
aF0.7542226326524579
aF0.0
aF0.0
aF0.0
aF0.0
aF0.0
aF0.0
aF0.0
aF0.0
aF0.0
aF0.0
aF0.0
aF0.0
aF0.0
aF0.0
aF0.0
aF0.0
aF0.0
aF0.0
aF0.0
aF0.0
aF0.0
aF0.0
aF0.0
aF0.0
aF0.0
aF0.0
aF0.0
aF0.0
aF0.0
aF0.0
aF0.0
aF0.0
aF0.0
aF0.0
aF0.0
aa(lp788
F0.0
aF0.0
aF0.0
aF1.4606219331411714
aF2.4971653395970494
aF0.0
aF0.0
aF0.0
aF0.0
aF0.0
aF0.0
aF0.0
aF0.0
aF0.0
aF0.0
aF0.0
aF0.0
aF0.0
aF0.0
aF0.0
aF0.0
aF0.0
aF0.0
aF0.0
aF0.0
aF0.0
aF0.0
aF0.0
aF0.0
aF0.0
aF0.0
aF0.0
aF0.0
aF0.0
aF0.0
aF0.0
aF0.0
aF0.0
aF0.0
aF0.0
aa(lp789
F0.0
aF0.0
aF0.0
aF0.6748992624553997
aF0.7820325194924013
aF0.0
aF0.9253376653797042
aF0.0
aF0.0
aF0.0
aF0.0
aF0.0
aF0.0
aF0.0
aF0.0
aF0.0
aF0.0
aF0.0
aF0.0
aF0.0
aF0.0
aF0.0
aF0.0
aF0.0
aF0.0
aF0.0
aF0.0
aF0.0
aF0.0
aF0.0
aF0.0
aF0.0
aF0.0
aF0.0
aF0.0
aF0.0
aF0.0
aF0.0
aF0.0
aF0.0
aa(lp790
F0.0
aF0.0
aF0.0
aF4.033366332129476
aF0.0
aF0.24766284495531868
aF0.0
aF0.0
aF0.0
aF0.0
aF0.0
aF0.0
aF0.0
aF0.0
aF0.0
aF0.0
aF0.0
aF0.0
aF0.0
aF0.0
aF0.0
aF0.0
aF0.0
aF0.0
aF0.0
aF0.0
aF0.0
aF0.0
aF0.0
aF0.0
aF0.0
aF0.0
aF0.0
aF0.0
aF0.0
aF0.0
aF0.0
aF0.0
aF0.0
aF0.0
aa(lp791
F0.0
aF0.0
aF0.0
aF0.578090231370565
aF0.0
aF0.07668543885527904
aF0.0
aF0.0
aF2.148003653632185
aF0.0
aF0.0
aF0.0
aF0.0
aF0.0
aF0.0
aF0.0
aF0.0
aF0.0
aF0.0
aF0.0
aF0.0
aF0.0
aF0.0
aF0.0
aF0.0
aF0.0
aF0.0
aF0.0
aF0.0
aF0.0
aF0.0
aF0.0
aF0.0
aF0.0
aF0.0
aF0.0
aF0.0
aF0.0
aF0.0
aF0.0
aa(lp792
F0.0
aF0.0
aF0.0
aF0.0
aF0.0
aF0.0
aF0.0
aF0.0
aF0.0
aF0.0
aF0.0
aF0.0
aF0.0
aF0.0
aF0.0
aF0.0
aF0.0
aF0.0
aF0.0
aF0.0
aF0.0
aF0.0
aF0.0
aF0.0
aF0.0
aF0.0
aF0.0
aF0.0
aF0.0
aF0.0
aF0.0
aF0.0
aF0.0
aF0.0
aF0.0
aF0.0
aF0.0
aF0.0
aF0.0
aF0.0
aa(lp793
F0.0
aF0.0
aF0.0
aF0.0
aF0.0
aF0.0
aF0.0
aF0.0
aF0.0
aF0.0
aF6.232449933124392
aF0.0
aF0.0
aF0.0
aF0.0
aF0.0
aF0.0
aF0.0
aF0.0
aF0.0
aF0.0
aF0.0
aF0.0
aF0.0
aF0.0
aF0.0
aF0.0
aF0.0
aF0.0
aF0.0
aF0.0
aF0.0
aF0.0
aF0.0
aF0.0
aF0.0
aF0.0
aF0.0
aF0.0
aF0.0
aa(lp794
F0.0
aF0.0
aF0.0
aF0.0
aF0.0
aF0.0
aF0.0
aF0.0
aF0.0
aF0.0
aF5.687436923514104
aF0.0
aF0.0
aF0.0
aF0.0
aF0.0
aF0.0
aF0.0
aF0.0
aF0.0
aF0.0
aF0.0
aF0.0
aF0.0
aF0.0
aF0.0
aF0.0
aF0.0
aF0.0
aF0.0
aF0.0
aF0.0
aF0.0
aF0.0
aF0.0
aF0.0
aF0.0
aF0.0
aF0.0
aF0.0
aa(lp795
F0.0
aF0.0
aF0.0
aF0.0
aF0.0
aF0.0
aF0.0
aF0.0
aF0.0
aF0.0
aF0.0
aF0.0
aF5.187193436968367
aF0.0
aF0.0
aF0.0
aF0.0
aF0.0
aF0.0
aF0.0
aF0.0
aF0.0
aF0.0
aF0.0
aF0.0
aF0.0
aF0.0
aF0.0
aF0.0
aF0.0
aF0.0
aF0.0
aF0.0
aF0.0
aF0.0
aF0.0
aF0.0
aF0.0
aF0.0
aF0.0
aa(lp796
F0.0
aF0.0
aF0.0
aF0.0
aF0.0
aF0.0
aF0.0
aF0.0
aF0.0
aF0.0
aF0.0
aF0.0
aF0.0
aF0.0
aF0.0
aF0.0
aF0.0
aF0.0
aF0.0
aF0.0
aF0.0
aF0.0
aF0.0
aF0.0
aF0.0
aF0.0
aF0.0
aF0.0
aF0.0
aF0.0
aF0.0
aF0.0
aF0.0
aF0.0
aF0.0
aF0.0
aF0.0
aF0.0
aF0.0
aF0.0
aa(lp797
F0.0
aF0.0
aF0.0
aF0.0
aF0.0
aF0.0
aF0.0
aF0.0
aF0.0
aF0.0
aF0.0
aF0.0
aF0.0
aF0.0
aF0.0
aF0.0
aF0.0
aF0.0
aF0.0
aF0.0
aF0.0
aF0.0
aF0.0
aF0.0
aF0.0
aF0.0
aF0.0
aF0.0
aF0.0
aF0.0
aF0.0
aF0.0
aF0.0
aF0.0
aF0.0
aF0.0
aF0.0
aF0.0
aF0.0
aF0.0
aa(lp798
F0.0
aF0.0
aF0.1315590760108618
aF0.0
aF0.0
aF0.0
aF0.0
aF0.0
aF0.0
aF0.0
aF0.0
aF0.0
aF0.0
aF0.0
aF0.0
aF9.707594136575636
aF0.0
aF0.0
aF0.0
aF0.0
aF0.0
aF0.0
aF0.0
aF0.0
aF0.0
aF0.0
aF0.0
aF0.0
aF0.0
aF0.0
aF0.0
aF0.0
aF0.0
aF0.0
aF0.0
aF0.0
aF0.0
aF0.0
aF0.0
aF0.0
aa(lp799
F0.0
aF0.0
aF0.0
aF0.0
aF0.0
aF0.0
aF0.0
aF0.0
aF0.0
aF0.0
aF0.0
aF0.0
aF0.0
aF0.0
aF0.0
aF0.0
aF0.0
aF0.0
aF0.0
aF0.0
aF0.0
aF0.0
aF0.0
aF0.0
aF0.0
aF0.0
aF0.0
aF0.0
aF0.0
aF0.0
aF0.0
aF0.0
aF0.0
aF0.0
aF0.0
aF0.0
aF0.0
aF0.0
aF0.0
aF0.0
aa(lp800
F0.0
aF0.0
aF0.0
aF0.0
aF0.0
aF0.0
aF0.0
aF0.0
aF0.0
aF0.0
aF0.0
aF0.0
aF0.0
aF0.0
aF0.0
aF0.0
aF0.0
aF0.0
aF0.0
aF0.0
aF0.0
aF0.0
aF0.0
aF0.0
aF0.0
aF0.0
aF0.0
aF0.0
aF0.0
aF0.0
aF0.0
aF0.0
aF0.0
aF0.0
aF0.0
aF0.0
aF0.0
aF0.0
aF0.0
aF0.0
aa(lp801
F0.0
aF0.0
aF0.0
aF0.0
aF0.0
aF0.0
aF0.0
aF0.0
aF0.0
aF0.0
aF0.0
aF0.0
aF0.0
aF0.0
aF0.0
aF0.0
aF0.0
aF0.0
aF0.0
aF0.0
aF0.0
aF0.0
aF0.0
aF0.0
aF0.0
aF0.0
aF0.0
aF0.0
aF0.0
aF0.0
aF0.0
aF0.0
aF0.0
aF0.0
aF0.0
aF0.0
aF0.0
aF0.0
aF0.0
aF0.0
aa(lp802
F0.0
aF0.1952470853701665
aF4.587146850141727
aF0.0
aF0.0
aF0.0
aF0.0
aF0.0
aF0.0
aF0.0
aF0.08770487849432579
aF0.0
aF0.0
aF0.0
aF0.0
aF0.0
aF0.0
aF0.0
aF0.0
aF0.0
aF0.0
aF0.0
aF0.0
aF0.0
aF0.0
aF0.0
aF0.0
aF0.0
aF0.0
aF0.0
aF0.0
aF0.0
aF0.0
aF0.0
aF0.0
aF0.0
aF0.0
aF0.0
aF0.0
aF0.0
aa(lp803
F0.0
aF0.0
aF2.805561729697828
aF0.29528093289198315
aF0.02530979424788427
aF0.0
aF0.0
aF0.0
aF0.0
aF0.0
aF0.0
aF0.0
aF0.0
aF0.0
aF0.0
aF0.0
aF0.0
aF0.0
aF0.0
aF0.0
aF0.25864928694632267
aF0.0
aF0.0
aF0.0
aF0.0
aF0.0
aF0.0
aF0.0
aF0.0
aF0.0
aF0.0
aF0.0
aF0.0
aF0.0
aF0.0
aF0.0
aF0.0
aF0.0
aF0.0
aF0.0
aa(lp804
F0.0
aF0.0
aF0.0
aF0.0
aF0.0
aF0.0
aF0.0
aF0.0
aF0.0
aF0.0
aF0.0
aF0.0
aF0.0
aF0.0
aF0.0
aF0.0
aF0.0
aF0.0
aF0.0
aF0.0
aF5.801851307501442
aF0.0
aF0.0
aF0.0
aF0.0
aF0.0
aF0.0
aF0.0
aF0.0
aF0.0
aF0.0
aF0.0
aF0.0
aF0.0
aF0.0
aF0.0
aF0.0
aF0.0
aF0.0
aF0.0
aa(lp805
F0.0
aF0.0
aF0.0
aF0.0
aF0.0
aF0.0
aF0.0
aF0.0
aF0.0
aF0.0
aF0.3547034379370802
aF0.0
aF0.0
aF0.0
aF0.0
aF0.0
aF0.0
aF0.0
aF0.0
aF0.0
aF1.6479946803322707
aF0.0
aF0.5605700694388742
aF0.0
aF0.0
aF0.0
aF0.0
aF0.0
aF0.0
aF0.0
aF0.0
aF0.0
aF0.0
aF0.0
aF0.0
aF0.0
aF0.0
aF0.0
aF0.0
aF0.0
aa(lp806
F0.0
aF0.0
aF0.0
aF0.0
aF0.0
aF0.0
aF0.0
aF0.0
aF0.0
aF0.0
aF1.55379862544033
aF0.0
aF0.0
aF0.0
aF0.0
aF3.9416472428367233
aF0.0
aF0.0
aF0.0
aF0.0
aF0.0
aF0.0
aF0.0
aF0.0
aF0.0
aF0.0
aF0.0
aF0.0
aF0.0
aF0.0
aF0.0
aF0.0
aF0.0
aF0.0
aF0.0
aF0.0
aF0.0
aF0.0
aF0.0
aF0.0
aa(lp807
F0.0
aF0.0
aF0.0
aF0.0
aF0.0
aF0.0
aF0.0
aF0.0
aF0.0
aF0.0
aF0.0
aF0.0
aF0.0
aF0.0
aF0.0
aF0.0
aF0.0
aF0.0
aF0.0
aF0.0
aF0.0
aF0.0
aF0.0
aF0.0
aF0.0
aF0.0
aF0.0
aF0.0
aF0.0
aF0.0
aF0.0
aF0.0
aF0.0
aF0.0
aF0.0
aF0.0
aF0.0
aF0.0
aF0.0
aF0.0
aa(lp808
F0.0
aF0.0
aF0.0
aF0.0
aF0.0
aF0.0
aF0.0
aF0.0
aF0.0
aF0.0
aF0.0
aF0.0
aF0.0
aF0.0
aF0.0
aF8.033513012486642
aF0.0
aF0.0
aF0.0
aF0.0
aF0.0
aF0.0
aF0.0
aF0.0
aF0.0
aF0.0
aF0.0
aF0.0
aF0.0
aF0.0
aF0.0
aF0.0
aF0.0
aF0.0
aF0.0
aF0.0
aF0.0
aF0.0
aF0.0
aF0.0
aa(lp809
F0.0
aF0.0
aF0.0
aF0.0
aF0.0
aF0.0
aF0.0
aF0.0
aF0.0
aF0.0
aF0.0
aF0.0
aF0.0
aF0.0
aF0.0
aF6.515495751449665
aF0.0
aF0.0
aF0.0
aF0.0
aF0.0
aF0.0
aF0.0
aF0.0
aF0.0
aF0.0
aF0.0
aF0.0
aF0.0
aF0.0
aF0.0
aF0.0
aF0.0
aF0.0
aF0.0
aF0.0
aF0.0
aF0.0
aF0.0
aF0.0
aa(lp810
F0.0
aF0.0
aF0.0
aF0.0
aF5.267335412209101
aF0.0
aF0.0
aF0.0
aF0.0
aF0.0
aF0.0
aF0.0
aF0.0
aF0.0
aF0.0
aF0.0
aF0.0
aF0.0
aF0.0
aF0.0
aF0.0
aF0.0
aF0.0
aF0.0
aF0.0
aF0.0
aF0.0
aF0.0
aF0.0
aF0.0
aF0.0
aF0.0
aF0.0
aF0.0
aF0.0
aF0.0
aF0.0
aF0.0
aF0.0
aF0.0
aa(lp811
F0.0
aF0.0
aF0.0
aF0.0
aF0.0
aF0.0
aF0.0
aF0.0
aF0.0
aF0.0
aF0.0
aF0.0
aF0.0
aF0.0
aF0.0
aF0.0
aF0.0
aF0.0
aF0.0
aF0.0
aF0.0
aF0.0
aF0.0
aF0.0
aF0.0
aF0.0
aF0.0
aF0.0
aF0.0
aF0.0
aF0.0
aF0.0
aF0.0
aF0.0
aF0.0
aF0.0
aF0.0
aF0.0
aF0.0
aF0.0
aa(lp812
F0.0
aF0.0
aF0.0
aF0.0
aF0.0
aF0.0
aF0.0
aF0.0
aF0.0
aF0.0
aF0.0
aF0.0
aF0.0
aF0.0
aF0.0
aF0.16900779917821074
aF0.0
aF0.0
aF0.0
aF0.0
aF0.0
aF0.0
aF0.0
aF0.0
aF0.0
aF0.0
aF0.0
aF0.0
aF0.0
aF5.642562733974007
aF0.0
aF0.0
aF0.0
aF0.0
aF0.0
aF0.0
aF0.0
aF0.0
aF0.0
aF0.0
aa(lp813
F0.0
aF0.0
aF0.0
aF0.0
aF0.0
aF0.0
aF0.0
aF0.0
aF0.0
aF0.0
aF0.0
aF0.0
aF0.0
aF0.0
aF0.0
aF0.0
aF0.0
aF0.0
aF0.0
aF0.0
aF0.0
aF0.0
aF0.0
aF0.0
aF5.489670770099704
aF0.0
aF0.0
aF0.0
aF0.0
aF0.0
aF0.0
aF0.0
aF0.0
aF0.0
aF0.0
aF0.0
aF0.0
aF0.0
aF0.0
aF0.0
aa(lp814
F0.0
aF0.0
aF0.0
aF0.7431163230069769
aF0.0
aF0.22832148285429799
aF0.0
aF0.0
aF0.0
aF0.0
aF0.0
aF0.0
aF0.0
aF0.0
aF0.0
aF0.0
aF0.0
aF0.0
aF0.0
aF0.0
aF0.0
aF0.0
aF0.0
aF0.0
aF0.0
aF0.0
aF0.0
aF0.0
aF0.0
aF1.1887620221744206
aF0.0
aF0.0
aF0.0
aF0.0
aF0.0
aF0.0
aF0.0
aF0.0
aF0.0
aF0.0
aa(lp815
F0.0
aF0.0
aF0.0
aF0.0
aF0.9100227421882157
aF0.599292117630166
aF0.0
aF0.0
aF0.0
aF0.0
aF0.0
aF0.0
aF0.0
aF0.0
aF0.0
aF0.0
aF0.0
aF0.0
aF0.0
aF0.0
aF0.0
aF0.0
aF0.0
aF0.0
aF0.0
aF0.0
aF0.0
aF0.0
aF0.0
aF0.0
aF0.0
aF0.0
aF0.2516163595355345
aF0.0
aF0.0
aF0.0
aF0.0
aF0.0
aF0.0
aF0.0
aa(lp816
F0.0
aF0.0
aF0.0
aF0.0
aF0.2901283034631912
aF0.0
aF0.0
aF0.0
aF0.0
aF0.0
aF0.0
aF0.0
aF0.0
aF0.0
aF0.0
aF0.0
aF0.0
aF0.0
aF0.0
aF0.0
aF0.0
aF0.0
aF0.0
aF0.0
aF0.0
aF0.0
aF0.0
aF0.0
aF0.0
aF0.8755211705318491
aF0.0
aF0.0
aF0.0
aF1.3750107789930048
aF0.0
aF0.0
aF0.0
aF0.0
aF0.0
aF0.0
aa(lp817
F5.281568535954191
aF0.0
aF0.0
aF0.0
aF0.0
aF0.0
aF0.0
aF0.0
aF0.0
aF0.0
aF0.0
aF0.0
aF0.0
aF0.0
aF0.0
aF0.0
aF0.0
aF0.0
aF0.0
aF0.0
aF0.0
aF0.0
aF0.0
aF0.0
aF0.0
aF0.0
aF0.0
aF0.0
aF0.0
aF0.0
aF0.0
aF0.0
aF0.0
aF0.0
aF0.0
aF0.0
aF0.0
aF0.0
aF0.0
aF0.0
aa(lp818
F0.0
aF0.0
aF0.0
aF0.0
aF0.0
aF0.0
aF0.0
aF0.0
aF0.0
aF0.0
aF0.0
aF0.0
aF0.0
aF0.0
aF0.0
aF0.0
aF0.0
aF0.0
aF0.0
aF0.0
aF0.0
aF0.0
aF0.0
aF0.0
aF0.0
aF0.0
aF0.0
aF0.0
aF0.0
aF0.0
aF0.0
aF0.0
aF5.160390531757352
aF0.0
aF0.0
aF0.0
aF0.0
aF0.0
aF0.0
aF0.0
aa(lp819
F0.0
aF0.0
aF0.0
aF0.0
aF0.0
aF0.0
aF0.0
aF0.0
aF0.0
aF0.0
aF0.0
aF0.0
aF0.0
aF0.0
aF0.0
aF0.0
aF0.0
aF0.0
aF0.0
aF0.0
aF0.0
aF0.0
aF0.0
aF0.0
aF0.0
aF0.0
aF0.0
aF0.0
aF0.476607998526484
aF0.0
aF0.0
aF0.0
aF3.047387253501299
aF0.0
aF0.13914413186260807
aF0.0
aF0.0
aF0.0
aF0.0
aF0.0
aa(lp820
F0.0
aF0.0
aF0.0
aF0.0
aF0.0
aF0.0
aF0.0
aF0.0
aF0.0
aF0.0
aF0.0
aF0.0
aF0.0
aF0.0
aF0.0
aF0.0
aF0.0
aF0.0
aF0.0
aF0.0
aF0.0
aF0.0
aF0.0
aF0.0
aF0.0
aF0.0
aF0.0
aF0.0
aF0.0
aF0.0
aF0.0
aF0.0
aF0.0
aF0.0
aF0.0
aF0.0
aF0.0
aF0.0
aF0.0
aF0.0
aa(lp821
F0.0
aF0.0
aF0.0
aF0.0
aF0.0
aF0.0
aF0.0
aF0.0
aF0.0
aF0.0
aF0.0
aF0.0
aF0.0
aF0.0
aF0.0
aF0.0
aF0.0
aF0.0
aF0.0
aF0.0
aF0.0
aF0.0
aF0.0
aF0.0
aF0.0
aF0.0
aF0.0
aF0.0
aF0.0
aF0.0
aF0.0
aF0.0
aF0.0
aF0.0
aF0.0
aF0.0
aF0.0
aF0.0
aF6.758513928905577
aF0.0
aatp822
.