((lp0
(lp1
c__builtin__
set
p2
((lp3
tp4
Rp5
ag2
((lp6
S'building'
p7
aS'century'
p8
aS'intelligence'
p9
aS'solving'
p10
aS'strong ai'
p11
aS'machine'
p12
aS'computer'
p13
aS'artificial intelligence'
p14
aS'human'
p15
aS'rock'
p16
aS'intelligent'
p17
aS'nature'
p18
atp19
Rp20
aa(lp21
g2
((lp22
S'intelligence'
p23
aS'intelligent'
p24
aS'artificial intelligence'
p25
atp26
Rp27
ag2
((lp28
S'rational agent'
p29
aS'autonomous agent'
p30
aS'component'
p31
aS'robot'
p32
aS'agent'
p33
aS'environment'
p34
aS'bounded rationality'
p35
aS'rationality'
p36
aS'performance measure'
p37
aS'performance'
p38
aS'agent program'
p39
aS'intelligent agent'
p40
atp41
Rp42
aa(lp43
g2
((lp44
S'environment'
p45
aS'agent'
p46
aS'rational agent'
p47
atp48
Rp49
ag2
((lp50
S'agent refer'
p51
aS'goal state'
p52
aS'initial state'
p53
aS'state'
p54
aS'space search'
p55
aS'current state'
p56
aS'goal test'
p57
aS'formulation'
p58
aS'operator'
p59
aS'implicit state'
p60
aS'configuration'
p61
aS'state space'
p62
aS'successor'
p63
atp64
Rp65
aa(lp66
g2
((lp67
S'operator'
p68
aS'state'
p69
aS'goal state'
p70
aS'state space'
p71
aS'initial state'
p72
atp73
Rp74
ag2
((lp75
S'breadth'
p76
aS'search'
p77
aS'fringe'
p78
aS'breadth first search'
p79
aS'search tree'
p80
aS'first node'
p81
aS'depth d'
p82
aS'space'
p83
aS'search strategy'
p84
aS'solution'
p85
aS'iterative deepening search'
p86
aS'search problem'
p87
aS'time and space'
p88
aS'depth first iterative deepening'
p89
aS'depth'
p90
aS'hamiltonian path'
p91
aS'back of fringe'
p92
aS'search algorithm'
p93
aS'search space'
p94
atp95
Rp96
aa(lp97
g2
((lp98
S'search space'
p99
aS'goal state'
p100
aS'search tree'
p101
aS'search'
p102
aS'state'
p103
aS'breadth first search'
p104
aS'search algorithm'
p105
atp106
Rp107
ag2
((lp108
S'optimum path'
p109
aS'greedy search'
p110
aS'node'
p111
aS'forward search'
p112
aS'cost'
p113
aS'first search'
p114
aS'node n'
p115
aS'heuristic function'
p116
aS'cost search'
p117
aS'goal node'
p118
aS'uniform cost'
p119
aS't state'
p120
aS'path'
p121
aS'expand'
p122
aS'bidirectional search'
p123
atp124
Rp125
aa(lp126
g2
((lp127
S'node'
p128
aS'search space'
p129
aS'goal state'
p130
aS'initial state'
p131
aS'space'
p132
aS'goal node'
p133
aS'search'
p134
aS'first search'
p135
aS'search tree'
p136
aS'state space'
p137
aS'iterative deepening search'
p138
aS'solution'
p139
aS'state'
p140
aS'path'
p141
aS'breadth first search'
p142
aS'bidirectional search'
p143
atp144
Rp145
ag2
((lp146
S'iterative deepening'
p147
aS'current path'
p148
aS'algorithm'
p149
aS'iteration'
p150
aS'number'
p151
aS'depth first search'
p152
aS'local search'
p153
aS'optimum solution'
p154
aS'ida star'
p155
aS'start node'
p156
atp157
Rp158
aa(lp159
g2
((lp160
S'node'
p161
aS'search'
p162
aS'goal state'
p163
aS'search tree'
p164
aS'cost'
p165
aS'node n'
p166
aS'cost search'
p167
aS'state'
p168
aS'uniform cost'
p169
aS'bidirectional search'
p170
atp171
Rp172
ag2
((lp173
S'pay'
p174
aS'max player'
p175
aS'initial position'
p176
aS'position'
p177
aS'min player'
p178
aS'move'
p179
aS'game'
p180
aS'player'
p181
aS'static evaluation function'
p182
aS'chess'
p183
aS'game tree'
p184
aS'other player'
p185
aS'utility'
p186
aS'evaluation function'
p187
aS'utility value'
p188
aS'agent search'
p189
atp190
Rp191
aa(lp192
g2
((lp193
S'node'
p194
aS'search'
p195
aS'search tree'
p196
aS'move'
p197
aS'game'
p198
aS'game tree'
p199
atp200
Rp201
ag2
((lp202
S'max ancestor'
p203
aS'exact minimax'
p204
aS'min'
p205
aS'min node'
p206
aS'node ordering'
p207
aS'minimax'
p208
aS'minimax search'
p209
aS'exact minimax value'
p210
aS'minimax value'
p211
aS'ply search'
p212
aS'max'
p213
aS'max node'
p214
aS'value of min'
p215
atp216
Rp217
aa(lp218
g2
((lp219
S'node'
p220
aS'search'
p221
aS'depth first search'
p222
aS'search tree'
p223
atp224
Rp225
ag2
((lp226
S'current assignment'
p227
aS'coloring'
p228
aS'constraint'
p229
aS'constraint satisfaction'
p230
aS'assignment'
p231
aS'satisfaction problem'
p232
aS'satisfaction'
p233
aS'color'
p234
aS'constraint propagation'
p235
aS'current domain'
p236
atp237
Rp238
aa(lp239
g2
((lp240
S'search'
p241
aS'search tree'
p242
aS'constraint satisfaction'
p243
aS'assignment'
p244
aS'constraint'
p245
aS'depth first search'
p246
aS'constraint propagation'
p247
atp248
Rp249
ag2
((lp250
S'domain'
p251
aS'legal value'
p252
aS'assign'
p253
atp254
Rp255
aa(lp256
g2
((lp257
S'machine'
p258
aS'intelligence'
p259
aS'intelligent'
p260
atp261
Rp262
ag2
((lp263
S'particular world'
p264
aS'interpretation'
p265
aS'knowledge'
p266
aS'compound proposition'
p267
aS'intelligent behavior'
p268
aS'valid proposition'
p269
aS'intelligent anil'
p270
aS'valid sentence'
p271
aS'propositional logic'
p272
aS'proposition'
p273
aS'world'
p274
aS'knowledge representation'
p275
aS'sentence p'
p276
aS'interpret'
p277
aS'proposition p'
p278
atp279
Rp280
aa(lp281
g2
((lp282
S'propositional logic'
p283
aS'proposition'
p284
atp285
Rp286
ag2
((lp287
S'false true'
p288
aS'conjunctive normal form'
p289
aS'truth table'
p290
aS'form'
p291
aS'false false'
p292
aS'clausal form'
p293
aS'truth value'
p294
aS'truth'
p295
aS'false'
p296
aS'normal form'
p297
aS'inference rule'
p298
atp299
Rp300
aa(lp301
g2
((lp302
S'propositional logic'
p303
aS'proposition'
p304
aS'proposition p'
p305
atp306
Rp307
ag2
((lp308
S'predicate'
p309
aS'drink tom'
p310
aS'type w'
p311
aS'tom'
p312
aS'man tom'
p313
aS'order logic'
p314
aS'predicate logic'
p315
aS'mammal tom'
p316
aS'valid predicate'
p317
aS'logic'
p318
aS'first order logic'
p319
aS'tom milk'
p320
atp321
Rp322
aa(lp323
g2
((lp324
S'predicate'
p325
aS'first order logic'
p326
aS'predicate logic'
p327
aS'logic'
p328
atp329
Rp330
ag2
((lp331
S'horn sentence'
p332
aS'existential quantifier'
p333
aS'universal quantifier'
p334
aS'meaning'
p335
aS'exist'
p336
aS'first order predicate'
p337
aS'quantifier'
p338
aS'order predicate'
p339
aS'order'
p340
atp341
Rp342
aa(lp343
g2
((lp344
S'predicate'
p345
aS'form'
p346
aS'clausal form'
p347
aS'predicate logic'
p348
aS'first order predicate'
p349
aS'order'
p350
atp351
Rp352
ag2
((lp353
S'next step'
p354
aS'resolve'
p355
aS'scope of negation'
p356
aS'clause'
p357
aS'null clause'
p358
aS'negation'
p359
aS'happy x'
p360
aS'resolvent'
p361
aS'resolution'
p362
aS'canonical form'
p363
aS'happy'
p364
atp365
Rp366
aa(lp367
g2
((lp368
S'knowledge'
p369
aS'form'
p370
aS'clausal form'
p371
aS'state'
p372
aS'knowledge representation'
p373
aS'logic'
p374
atp375
Rp376
ag2
((lp377
S'inference'
p378
aS'inference machine'
p379
aS'assertion'
p380
aS'rule'
p381
aS'inference mechanism'
p382
aS'base'
p383
aS'rule base'
p384
aS'fact base'
p385
aS'implication'
p386
aS'third rule'
p387
atp388
Rp389
aa(lp390
g2
((lp391
S'goal state'
p392
aS'rule'
p393
aS'state'
p394
aS'rule base'
p395
aS'path'
p396
aS'fact base'
p397
atp398
Rp399
ag2
((lp400
S'fire'
p401
aS'particular state'
p402
atp403
Rp404
aa(lp405
g2
((lp406
S'node'
p407
aS'knowledge representation'
p408
aS'knowledge'
p409
atp410
Rp411
ag2
((lp412
S'top level'
p413
aS'hierarchy'
p414
aS'concept animal'
p415
aS'etc'
p416
aS'bird'
p417
aS'man'
p418
atp419
Rp420
aa(lp421
g2
((lp422
S'node'
p423
aS'inference'
p424
atp425
Rp426
ag2
((lp427
S'relationship'
p428
aS'inheritance'
p429
aS'current node'
p430
aS'inherit'
p431
aS'nellie'
p432
aS'semantic net'
p433
aS'fido'
p434
aS'subclass'
p435
aS'elephant'
p436
aS'property'
p437
aS'instance of elephant'
p438
atp439
Rp440
aa(lp441
g2
((lp442
S'tom'
p443
atp444
Rp445
ag2
((lp446
S'slot'
p447
aS'concept dog'
p448
aS'instance of dog'
p449
aS'boy'
p450
aS'frame'
p451
aS'object'
p452
aS'type of teeth'
p453
aS'dog'
p454
aS'particular dog'
p455
aS'instance'
p456
aS'super class'
p457
aS'type'
p458
atp459
Rp460
aa(lp461
g2
((lp462
S'search'
p463
aS'goal state'
p464
aS'initial state'
p465
aS'space search'
p466
aS'state space'
p467
aS'agent'
p468
aS'search problem'
p469
aS'state'
p470
aS'proposition'
p471
aS'world'
p472
atp473
Rp474
ag2
((lp475
S'go store'
p476
aS'action pick'
p477
aS'successor state'
p478
aS'action'
p479
aS'home'
p480
aS'action go'
p481
aS'store'
p482
atp483
Rp484
aa(lp485
g2
((lp486
S'search space'
p487
aS'forward search'
p488
aS'goal state'
p489
aS'algorithm'
p490
aS'initial state'
p491
aS'search'
p492
aS'state space'
p493
aS'agent'
p494
aS'current state'
p495
aS'state'
p496
aS'action'
p497
aS'order'
p498
atp499
Rp500
ag2
((lp501
S'sub goal'
p502
aS'current goal'
p503
aS'goal'
p504
aS'backward search'
p505
aS'strip'
p506
atp507
Rp508
aa(lp509
g2
((lp510
S'goal state'
p511
aS'goal'
p512
aS'initial state'
p513
aS'state'
p514
aS'action'
p515
aS'order'
p516
atp517
Rp518
ag2
((lp519
S'partial plan'
p520
aS'precondition'
p521
aS'open condition'
p522
aS'planning problem'
p523
aS'open precondition'
p524
aS'ordering'
p525
aS'flaw'
p526
aS'unsafe link'
p527
aS'new step'
p528
aS'partial order'
p529
aS'planning'
p530
aS'planning algorithm'
p531
aS'plan'
p532
aS'causal link'
p533
aS'step'
p534
aS'initial plan'
p535
aS'link'
p536
aS'condition'
p537
atp538
Rp539
aa(lp540
g2
((lp541
S'search'
p542
aS'goal'
p543
aS'initial state'
p544
aS'precondition'
p545
aS'state'
p546
aS'proposition'
p547
aS'plan'
p548
aS'action'
p549
atp550
Rp551
ag2
((lp552
S'valid plan'
p553
aS'level'
p554
aS'action level'
p555
aS'graph'
p556
aS'maintenance action'
p557
aS'graph expansion'
p558
aS'mutex'
p559
aS'planning graph'
p560
aS'next state'
p561
aS'level pi'
p562
aS'previous level'
p563
aS'state level'
p564
aS'graph plan'
p565
atp566
Rp567
aa(lp568
g2
((lp569
S'domain'
p570
aS'inference'
p571
aS'knowledge'
p572
aS'rule'
p573
aS'inference mechanism'
p574
aS'base'
p575
aS'order'
p576
atp577
Rp578
ag2
((lp579
S'engine'
p580
aS'human expert'
p581
aS'expert'
p582
aS'expert system'
p583
aS'doctor'
p584
aS'inference engine'
p585
aS'mycin'
p586
aS'system'
p587
aS'knowledge acquisition'
p588
aS'gas in engine'
p589
aS'knowledge base'
p590
atp591
Rp592
aa(lp593
g2
((lp594
S'proposition'
p595
aS'rule'
p596
aS'expert'
p597
atp598
Rp599
ag2
((lp600
S'doorbell'
p601
aS'strength'
p602
aS'door'
p603
aS'belief'
p604
aS'uncertainty'
p605
aS'mb prime'
p606
aS'measure of belief'
p607
aS'belief in h'
p608
aS'door x'
p609
atp610
Rp611
aa(lp612
g2
((lp613
S'measure of belief'
p614
aS'belief'
p615
aS'rule'
p616
atp617
Rp618
ag2
((lp619
S'confidence'
p620
aS'factor'
p621
aS'certainty factor'
p622
aS'certainty'
p623
aS'factor of h'
p624
atp625
Rp626
aa(lp627
g2
((lp628
S'uncertainty'
p629
aS'inference'
p630
aS'knowledge'
p631
aS'rule'
p632
atp633
Rp634
ag2
((lp635
S'joint probability'
p636
aS'probability theory'
p637
aS'event'
p638
atp639
Rp640
aa(lp641
g2
((lp642
S'node'
p643
aS'belief'
p644
atp645
Rp646
ag2
((lp647
S'probability of alarm'
p648
aS'probability of john'
p649
aS'probability'
p650
aS'alarm'
p651
aS'priori probability'
p652
aS'evidence'
p653
aS'evidence e'
p654
aS'bayesian approach'
p655
aS'computation'
p656
aS'john calling'
p657
aS'compute'
p658
aS'conditional probability'
p659
aS'john'
p660
aS'probability of b'
p661
aS'belief network'
p662
atp663
Rp664
aa(lp665
g2
((lp666
tp667
Rp668
ag2
((lp669
S'set'
p670
aS'crisp'
p671
aS'temperature'
p672
aS'degree'
p673
aS'strong fever'
p674
aS'set theory'
p675
aS'imprecise'
p676
aS'set medium'
p677
aS'medium height'
p678
aS'set tall'
p679
aS'notion of truth'
p680
aS'tall'
p681
aS'case of fuzzy'
p682
aS'height'
p683
aS'crisp set'
p684
aS'notion'
p685
atp686
Rp687
aa(lp688
g2
((lp689
S'set'
p690
aS'crisp'
p691
aS'rule'
p692
aS'computer'
p693
aS'set tall'
p694
aS'tall'
p695
aS'crisp set'
p696
atp697
Rp698
ag2
((lp699
S'membership function'
p700
aS'fuzzy set'
p701
aS'fuzzy set tall'
p702
aS'curve'
p703
aS'membership'
p704
aS'membership value'
p705
aS'tall will'
p706
aS'fuzzy'
p707
aS'crisp value'
p708
aS'fuzzy logic'
p709
atp710
Rp711
aa(lp712
g2
((lp713
S'set'
p714
aS'knowledge'
p715
aS'system'
p716
aS'rule'
p717
aS'machine'
p718
aS'instance'
p719
atp720
Rp721
ag2
((lp722
S'task'
p723
aS'inductive inference'
p724
aS'inductive bias'
p725
aS'machine learning'
p726
aS'concept learning'
p727
aS'learning'
p728
aS'learning problem'
p729
atp730
Rp731
aa(lp732
g2
((lp733
S'set'
p734
aS'algorithm'
p735
aS'space'
p736
aS'number'
p737
aS'instance'
p738
aS'concept learning'
p739
aS'learning problem'
p740
atp741
Rp742
ag2
((lp743
S'digit'
p744
aS'hypothesis space'
p745
aS'learning algorithm'
p746
aS'training'
p747
aS'positive example'
p748
aS'version space'
p749
aS'hypothesis'
p750
aS'set of training'
p751
aS'good hypothesis'
p752
aS'possible hypothesis'
p753
aS'training example'
p754
aS'negative example'
p755
aS'set of hypothesis'
p756
atp757
Rp758
aa(lp759
g2
((lp760
S'node'
p761
aS'training'
p762
aS'set'
p763
aS'algorithm'
p764
aS'set of training'
p765
aS'training example'
p766
atp767
Rp768
ag2
((lp769
S'information content'
p770
aS'attribute'
p771
aS'decision'
p772
aS'target attribute'
p773
aS'leaf node'
p774
aS'same class'
p775
aS'greedy algorithm'
p776
aS'decision attribute'
p777
aS'entropy'
p778
aS'information gain'
p779
atp780
Rp781
aa(lp782
g2
((lp783
S'node'
p784
aS'training'
p785
aS'set'
p786
aS'algorithm'
p787
aS'attribute'
p788
aS'decision'
p789
aS'rule'
p790
atp791
Rp792
ag2
((lp793
S'training set'
p794
aS'test set'
p795
aS'rule set'
p796
aS'decision tree'
p797
aS'class'
p798
aS'validation set'
p799
aS'tree'
p800
aS'feature'
p801
aS'classifier'
p802
aS'data set'
p803
aS'train'
p804
aS'stopping'
p805
aS'data'
p806
aS'rule post'
p807
aS'error pruning'
p808
aS'accuracy'
p809
atp810
Rp811
aa(lp812
g2
((lp813
S'training set'
p814
aS'computer'
p815
aS'training example'
p816
aS'training'
p817
atp818
Rp819
ag2
((lp820
S'linear unit'
p821
aS'weight'
p822
aS'computing'
p823
aS'process'
p824
aS'xor function'
p825
aS'processing'
p826
aS'training rule'
p827
aS'human brain'
p828
aS'brain'
p829
aS'linear threshold'
p830
aS'linear threshold unit'
p831
aS'weight vector'
p832
aS'perceptron'
p833
aS'threshold unit'
p834
atp835
Rp836
aa(lp837
g2
((lp838
S'weight vector'
p839
aS'training'
p840
aS'training example'
p841
aS'linear threshold'
p842
aS'weight'
p843
atp844
Rp845
ag2
((lp846
S'function'
p847
aS'layer'
p848
aS'linear'
p849
aS'sigmoidal function'
p850
aS'error function'
p851
aS'output unit'
p852
aS'hidden unit'
p853
aS'sigma x'
p854
aS'sigmoid unit'
p855
aS'error'
p856
aS'sigmoid function'
p857
aS'hidden layer'
p858
aS'sigma'
p859
aS'neural network'
p860
aS'unit'
p861
aS'network'
p862
atp863
Rp864
aa(lp865
g2
((lp866
S'algorithm'
p867
aS'probability'
p868
aS'hypothesis space'
p869
aS'attribute'
p870
aS'hypothesis'
p871
aS'possible hypothesis'
p872
aS'data'
p873
aS'class'
p874
atp875
Rp876
ag2
((lp877
S'classification'
p878
aS'likely classification'
p879
aS'map hypothesis'
p880
aS'bayesian classification'
p881
aS'prior probability'
p882
aS'posterior'
p883
aS'bayesian'
p884
aS'different hypothesis'
p885
aS'posterior probability'
p886
aS'bayesian learning'
p887
atp888
Rp889
aa(lp890
g2
((lp891
S'meaning'
p892
aS'computer'
p893
aS'knowledge'
p894
atp895
Rp896
ag2
((lp897
S'information'
p898
aS'plant'
p899
aS'word'
p900
aS'language'
p901
aS'english'
p902
aS'text'
p903
aS'part of speech'
p904
aS'speech'
p905
aS'noun'
p906
aS'understanding'
p907
aS'noun phrase'
p908
aS'natural language processing'
p909
aS'language processing'
p910
aS'industrial plant'
p911
aS'common sense knowledge'
p912
aS'information retrieval'
p913
aS'bank'
p914
aS'natural language'
p915
atp916
Rp917
aa(lp918
g2
((lp919
S'inference'
p920
aS'knowledge'
p921
aS'language'
p922
aS'semantic net'
p923
aS'frame'
p924
aS'system'
p925
aS'etc'
p926
aS'john'
p927
aS'natural language'
p928
atp929
Rp930
ag2
((lp931
S'machine translation'
p932
aS'mary ate spaghetti'
p933
aS'script'
p934
aS'sentence'
p935
aS'movie'
p936
aS'balloon'
p937
aS'movie hall'
p938
aS'mary ate'
p939
aS'verb'
p940
aS'translation'
p941
aS'natural language understanding'
p942
atp943
Rp944
aa(lp945
(dp946
a(dp947
g23
(F4.357550071966408
I12
tp948
sg24
(F4.357550071966408
I16
tp949
sg25
(F4.357550071966408
I5
tp950
sa(dp951
g46
(F10.277346536194475
I99
tp952
sg45
(F4.165244723583587
I21
tp953
sg47
(F10.277346536194475
I5
tp954
sa(dp955
g68
(F3.1745912720497764
I9
tp956
sg69
(F10.035481360151094
I108
tp957
sg71
(F10.035481360151094
I34
tp958
sg70
(F10.035481360151094
I12
tp959
sg72
(F10.035481360151094
I16
tp960
sa(dp961
g101
(F11.321696228181226
I11
tp962
sg105
(F11.321696228181226
I11
tp963
sg99
(F11.321696228181226
I5
tp964
sg104
(F11.321696228181226
I11
tp965
sg103
(F5.859251925716299
I51
tp966
sg100
(F5.859251925716299
I16
tp967
sg102
(F11.321696228181226
I145
tp968
sa(dp969
g136
(F8.440276995702652
I6
tp970
sg129
(F8.440276995702652
I7
tp971
sg142
(F8.440276995702652
I6
tp972
sg132
(F4.225911052708902
I38
tp973
sg140
(F6.28822074532721
I61
tp974
sg130
(F6.28822074532721
I7
tp975
sg143
(F8.440276995702652
I6
tp976
sg128
(F8.152855626366444
I50
tp977
sg137
(F6.28822074532721
I16
tp978
sg131
(F6.28822074532721
I5
tp979
sg135
(F8.440276995702652
I25
tp980
sg133
(F8.152855626366444
I6
tp981
sg141
(F3.155154992096223
I31
tp982
sg134
(F8.440276995702652
I91
tp983
sg139
(F4.737308561048773
I41
tp984
sg138
(F8.440276995702652
I7
tp985
sa(dp986
g164
(F8.048324937716659
I18
tp987
sg167
(F8.048324937716659
I5
tp988
sg169
(F3.5355237611324886
I5
tp989
sg166
(F8.246547115472735
I6
tp990
sg168
(F3.8313807854372097
I28
tp991
sg170
(F8.048324937716659
I5
tp992
sg161
(F8.246547115472735
I66
tp993
sg163
(F3.8313807854372097
I6
tp994
sg162
(F8.048324937716659
I80
tp995
sg165
(F3.5355237611324886
I57
tp996
sa(dp997
g194
(F10.459684948210867
I144
tp998
sg195
(F7.0644346711364125
I80
tp999
sg196
(F7.0644346711364125
I12
tp1000
sg197
(F5.264536284896902
I25
tp1001
sg198
(F7.707556234189125
I41
tp1002
sg199
(F7.707556234189125
I19
tp1003
sa(dp1004
g220
(F3.4411168307352438
I19
tp1005
sg221
(F6.79303803306017
I50
tp1006
sg222
(F6.79303803306017
I7
tp1007
sg223
(F6.79303803306017
I7
tp1008
sa(dp1009
g241
(F5.592138156523426
I42
tp1010
sg245
(F7.0705120265392765
I59
tp1011
sg243
(F7.0705120265392765
I23
tp1012
sg244
(F4.0154201095908775
I15
tp1013
sg242
(F5.592138156523426
I7
tp1014
sg246
(F5.592138156523426
I13
tp1015
sg247
(F7.0705120265392765
I14
tp1016
sa(dp1017
g259
(F4.857329229610808
I9
tp1018
sg258
(F3.2076059589143644
I18
tp1019
sg260
(F4.857329229610808
I40
tp1020
sa(dp1021
g283
(F6.232449933124392
I9
tp1022
sg284
(F6.232449933124392
I28
tp1023
sa(dp1024
g305
(F5.539973332859425
I5
tp1025
sg303
(F5.834900514168782
I28
tp1026
sg304
(F5.539973332859425
I23
tp1027
sa(dp1028
g325
(F5.187193436968367
I43
tp1029
sg327
(F5.187193436968367
I17
tp1030
sg328
(F4.280133054882758
I44
tp1031
sg326
(F4.280133054882758
I22
tp1032
sa(dp1033
g345
(F3.6323366012257368
I23
tp1034
sg346
(F3.5985365432713583
I48
tp1035
sg347
(F3.5985365432713583
I31
tp1036
sg348
(F3.6323366012257368
I17
tp1037
sg349
(F3.6323366012257368
I6
tp1038
sg350
(F3.4522643511575337
I19
tp1039
sa(dp1040
g369
(F4.39821886144311
I28
tp1041
sg370
(F3.7792298773612694
I26
tp1042
sg371
(F3.7792298773612694
I8
tp1043
sg372
(F3.084224745754123
I23
tp1044
sg373
(F4.39821886144311
I9
tp1045
sg374
(F3.6959993172347234
I20
tp1046
sa(dp1047
g397
(F3.893404899899866
I9
tp1048
sg393
(F15.393470702284223
I98
tp1049
sg394
(F3.111254195581046
I23
tp1050
sg392
(F7.301528718602831
I6
tp1051
sg396
(F3.0213885827774334
I9
tp1052
sg395
(F15.393470702284223
I7
tp1053
sa(dp1054
g407
(F3.4925376349285515
I8
tp1055
sg409
(F3.107682563721403
I21
tp1056
sg408
(F3.107682563721403
I6
tp1057
sa(dp1058
g423
(F4.17917806207133
I14
tp1059
sg424
(F4.911437916957194
I8
tp1060
sa(dp1061
g443
(F3.1978031348492233
I28
tp1062
sa(dp1063
g467
(F9.37128773679261
I14
tp1064
sg464
(F9.37128773679261
I8
tp1065
sg466
(F3.8492356238240215
I10
tp1066
sg463
(F3.8492356238240215
I33
tp1067
sg468
(F6.343149212513702
I41
tp1068
sg469
(F3.8492356238240215
I5
tp1069
sg470
(F9.37128773679261
I120
tp1070
sg471
(F6.490161008580108
I18
tp1071
sg472
(F4.256572407682557
I37
tp1072
sg465
(F9.37128773679261
I21
tp1073
sa(dp1074
g494
(F4.907409151060216
I45
tp1075
sg487
(F7.099397286531538
I5
tp1076
sg496
(F9.036861992500372
I134
tp1077
sg493
(F9.036861992500372
I8
tp1078
sg488
(F7.099397286531538
I12
tp1079
sg489
(F9.036861992500372
I24
tp1080
sg491
(F9.036861992500372
I31
tp1081
sg492
(F7.099397286531538
I65
tp1082
sg490
(F4.346974379606646
I24
tp1083
sg495
(F9.036861992500372
I12
tp1084
sg497
(F10.489319275437618
I83
tp1085
sg498
(F3.386194638664661
I23
tp1086
sa(dp1087
g512
(F3.4627122006250044
I27
tp1088
sg514
(F4.413649239942484
I57
tp1089
sg511
(F4.413649239942484
I10
tp1090
sg513
(F4.413649239942484
I30
tp1091
sg515
(F5.801851307501442
I50
tp1092
sg516
(F3.5098971575285134
I28
tp1093
sa(dp1094
g542
(F3.3578898232549315
I24
tp1095
sg543
(F4.052318605964305
I22
tp1096
sg544
(F4.629164315122877
I22
tp1097
sg545
(F3.979666512000233
I34
tp1098
sg546
(F4.629164315122877
I62
tp1099
sg547
(F6.223433047441499
I33
tp1100
sg548
(F5.501187630595054
I59
tp1101
sg549
(F9.447415048637474
I101
tp1102
sa(dp1103
g570
(F3.3931227332006797
I15
tp1104
sg571
(F3.8708055747185335
I19
tp1105
sg573
(F13.927153591356422
I60
tp1106
sg576
(F3.517317398758977
I13
tp1107
sg574
(F3.8708055747185335
I7
tp1108
sg575
(F3.0095446252343705
I18
tp1109
sg572
(F7.160984969420651
I46
tp1110
sa(dp1111
g597
(F3.535725684201106
I9
tp1112
sg596
(F4.469457204439486
I18
tp1113
sg595
(F3.7016817592870317
I16
tp1114
sa(dp1115
g615
(F3.9825688510733945
I21
tp1116
sg616
(F8.033513012486642
I58
tp1117
sg614
(F3.9825688510733945
I11
tp1118
sa(dp1119
g630
(F3.0602973910038997
I9
tp1120
sg631
(F3.2294723894246244
I12
tp1121
sg629
(F4.480466585344927
I17
tp1122
sg632
(F6.515495751449664
I21
tp1123
sa(dp1124
g643
(F5.267335412209101
I44
tp1125
sg644
(F3.3824566604768465
I26
tp1126
sa(dp1127
a(dp1128
g690
(F8.69372628641921
I111
tp1129
sg692
(F5.021946032723976
I21
tp1130
sg691
(F3.28871250578523
I28
tp1131
sg693
(F3.335100112585797
I6
tp1132
sg694
(F8.69372628641921
I9
tp1133
sg695
(F3.2794043527755132
I36
tp1134
sg696
(F8.69372628641921
I15
tp1135
sa(dp1136
g715
(F3.555640556478833
I25
tp1137
sg716
(F5.489670770099704
I36
tp1138
sg717
(F4.218135573103559
I6
tp1139
sg718
(F3.889044256840947
I17
tp1140
sg719
(F3.4644301687273327
I14
tp1141
sg714
(F3.8777600861047414
I44
tp1142
sa(dp1143
g734
(F7.917155067681643
I100
tp1144
sg737
(F3.268357931605419
I14
tp1145
sg739
(F3.1503443708679577
I5
tp1146
sg736
(F5.379515990463551
I92
tp1147
sg738
(F3.4932357211940213
I14
tp1148
sg740
(F3.1503443708679577
I9
tp1149
sg735
(F5.068736919365415
I30
tp1150
sa(dp1151
g761
(F5.193788333464451
I41
tp1152
sg762
(F4.436411635409663
I54
tp1153
sg763
(F3.7188499819152803
I38
tp1154
sg764
(F5.008369840194959
I28
tp1155
sg765
(F4.436411635409663
I8
tp1156
sg766
(F6.5420253479238974
I9
tp1157
sa(dp1158
g786
(F8.526814878223226
I92
tp1159
sg788
(F7.708540914074161
I28
tp1160
sg789
(F6.669428056579827
I60
tp1161
sg784
(F5.908067270523166
I44
tp1162
sg785
(F4.103116189604443
I37
tp1163
sg787
(F3.038064868347119
I17
tp1164
sg790
(F4.666819013221276
I24
tp1165
sa(dp1166
g815
(F5.281568535954191
I6
tp1167
sg814
(F4.8027721947107755
I5
tp1168
sg816
(F4.8027721947107755
I10
tp1169
sg817
(F4.8027721947107755
I40
tp1170
sa(dp1171
g840
(F5.160390531757352
I28
tp1172
sg843
(F4.6136193512500645
I16
tp1173
sg839
(F4.6136193512500645
I5
tp1174
sg842
(F3.335374561342764
I5
tp1175
sg841
(F5.160390531757352
I6
tp1176
sa(dp1177
g867
(F3.207984509018811
I8
tp1178
sg868
(F9.197698217177761
I57
tp1179
sg869
(F8.40131824273541
I13
tp1180
sg871
(F8.40131824273541
I115
tp1181
sg870
(F4.654577384810817
I15
tp1182
sg872
(F8.40131824273541
I5
tp1183
sg873
(F3.2476337297114717
I25
tp1184
sg874
(F5.101951501628962
I30
tp1185
sa(dp1186
g893
(F4.332445383359096
I14
tp1187
sg894
(F3.9134406564009248
I18
tp1188
sg892
(F3.0288319647171886
I30
tp1189
sa(dp1190
g927
(F3.023631841584984
I22
tp1191
sg920
(F4.116181657483071
I10
tp1192
sg921
(F3.4823198745081925
I16
tp1193
sg922
(F6.758513928905577
I32
tp1194
sg926
(F3.0062138156783544
I13
tp1195
sg925
(F3.04641228416338
I11
tp1196
sg923
(F3.4641180793320405
I5
tp1197
sg924
(F4.34154326671664
I19
tp1198
sg928
(F6.758513928905577
I20
tp1199
sa(lp1200
(lp1201
F0.0
aF0.0
aF0.0
aF0.0
aF0.0
aF0.0
aF0.0
aF0.0
aF0.0
aF0.0
aF0.0
aF0.0
aF0.0
aF0.0
aF0.0
aF0.0
aF0.0
aF0.0
aF0.0
aF0.0
aF0.0
aF0.0
aF0.0
aF0.0
aF0.0
aF0.0
aF0.0
aF0.0
aF0.0
aF0.0
aF0.0
aF0.0
aF0.0
aF0.0
aF0.0
aF0.0
aF0.0
aF0.0
aF0.0
aF0.0
aa(lp1202
F4.357550071966408
aF0.0
aF0.0
aF0.0
aF0.0
aF0.0
aF0.0
aF0.0
aF0.0
aF0.0
aF0.0
aF0.0
aF0.0
aF0.0
aF0.0
aF0.0
aF0.0
aF0.0
aF0.0
aF0.0
aF0.0
aF0.0
aF0.0
aF0.0
aF0.0
aF0.0
aF0.0
aF0.0
aF0.0
aF0.0
aF0.0
aF0.0
aF0.0
aF0.0
aF0.0
aF0.0
aF0.0
aF0.0
aF0.0
aF0.0
aa(lp1203
F0.0
aF9.250513431675845
aF0.0
aF0.0
aF0.0
aF0.0
aF0.0
aF0.0
aF0.0
aF0.0
aF0.0
aF0.0
aF0.0
aF0.0
aF0.0
aF0.0
aF0.0
aF0.0
aF0.0
aF0.0
aF0.0
aF0.0
aF0.0
aF0.0
aF0.0
aF0.0
aF0.0
aF0.0
aF0.0
aF0.0
aF0.0
aF0.0
aF0.0
aF0.0
aF0.0
aF0.0
aF0.0
aF0.0
aF0.0
aF0.0
aa(lp1204
F0.0
aF0.0
aF9.690520406000747
aF0.0
aF0.0
aF0.0
aF0.0
aF0.0
aF0.0
aF0.0
aF0.0
aF0.0
aF0.0
aF0.0
aF0.0
aF0.0
aF0.0
aF0.0
aF0.0
aF0.0
aF0.0
aF0.0
aF0.0
aF0.0
aF0.0
aF0.0
aF0.0
aF0.0
aF0.0
aF0.0
aF0.0
aF0.0
aF0.0
aF0.0
aF0.0
aF0.0
aF0.0
aF0.0
aF0.0
aF0.0
aa(lp1205
F0.0
aF0.0
aF0.44865129031199086
aF5.919629742163328
aF0.0
aF0.0
aF0.0
aF0.0
aF0.0
aF0.0
aF0.0
aF0.0
aF0.0
aF0.0
aF0.0
aF0.0
aF0.0
aF0.0
aF0.0
aF0.0
aF0.0
aF0.0
aF0.0
aF0.0
aF0.0
aF0.0
aF0.0
aF0.0
aF0.0
aF0.0
aF0.0
aF0.0
aF0.0
aF0.0
aF0.0
aF0.0
aF0.0
aF0.0
aF0.0
aF0.0
aa(lp1206
F0.0
aF0.0
aF0.3471784406539216
aF1.4572405019420032
aF0.6327685380724922
aF0.0
aF0.0
aF0.0
aF0.0
aF0.0
aF0.0
aF0.0
aF0.0
aF0.0
aF0.0
aF0.0
aF0.0
aF0.0
aF0.0
aF0.0
aF0.0
aF0.0
aF0.0
aF0.0
aF0.0
aF0.0
aF0.0
aF0.0
aF0.0
aF0.0
aF0.0
aF0.0
aF0.0
aF0.0
aF0.0
aF0.0
aF0.0
aF0.0
aF0.0
aF0.0
aa(lp1207
F0.0
aF0.0
aF0.09439633819193126
aF0.5715477129682845
aF1.942254597568299
aF0.0
aF0.0
aF0.0
aF0.0
aF0.0
aF0.0
aF0.0
aF0.0
aF0.0
aF0.0
aF0.0
aF0.0
aF0.0
aF0.0
aF0.0
aF0.0
aF0.0
aF0.0
aF0.0
aF0.0
aF0.0
aF0.0
aF0.0
aF0.0
aF0.0
aF0.0
aF0.0
aF0.0
aF0.0
aF0.0
aF0.0
aF0.0
aF0.0
aF0.0
aF0.0
aa(lp1208
F0.0
aF0.0
aF0.0
aF0.6748992624553997
aF0.7820325194924013
aF0.0
aF0.9253376653797042
aF0.0
aF0.0
aF0.0
aF0.0
aF0.0
aF0.0
aF0.0
aF0.0
aF0.0
aF0.0
aF0.0
aF0.0
aF0.0
aF0.0
aF0.0
aF0.0
aF0.0
aF0.0
aF0.0
aF0.0
aF0.0
aF0.0
aF0.0
aF0.0
aF0.0
aF0.0
aF0.0
aF0.0
aF0.0
aF0.0
aF0.0
aF0.0
aF0.0
aa(lp1209
F0.0
aF0.0
aF0.0
aF2.3325492041230707
aF0.19693138489147477
aF0.14322670551632888
aF0.0
aF0.0
aF0.0
aF0.0
aF0.0
aF0.0
aF0.0
aF0.0
aF0.0
aF0.0
aF0.0
aF0.0
aF0.0
aF0.0
aF0.0
aF0.0
aF0.0
aF0.0
aF0.0
aF0.0
aF0.0
aF0.0
aF0.0
aF0.0
aF0.0
aF0.0
aF0.0
aF0.0
aF0.0
aF0.0
aF0.0
aF0.0
aF0.0
aF0.0
aa(lp1210
F0.0
aF0.0
aF0.0
aF0.4525429722042078
aF0.0
aF0.06003121059851736
aF0.0
aF0.0
aF2.440959392870796
aF0.0
aF0.0
aF0.0
aF0.0
aF0.0
aF0.0
aF0.0
aF0.0
aF0.0
aF0.0
aF0.0
aF0.0
aF0.0
aF0.0
aF0.0
aF0.0
aF0.0
aF0.0
aF0.0
aF0.0
aF0.0
aF0.0
aF0.0
aF0.0
aF0.0
aF0.0
aF0.0
aF0.0
aF0.0
aF0.0
aF0.0
aa(lp1211
F4.414119992707286
aF0.0
aF0.0
aF0.0
aF0.0
aF0.0
aF0.0
aF0.0
aF0.0
aF0.0
aF0.0
aF0.0
aF0.0
aF0.0
aF0.0
aF0.0
aF0.0
aF0.0
aF0.0
aF0.0
aF0.0
aF0.0
aF0.0
aF0.0
aF0.0
aF0.0
aF0.0
aF0.0
aF0.0
aF0.0
aF0.0
aF0.0
aF0.0
aF0.0
aF0.0
aF0.0
aF0.0
aF0.0
aF0.0
aF0.0
aa(lp1212
F0.0
aF0.0
aF0.0
aF0.0
aF0.0
aF0.0
aF0.0
aF0.0
aF0.0
aF0.0
aF6.232449933124392
aF0.0
aF0.0
aF0.0
aF0.0
aF0.0
aF0.0
aF0.0
aF0.0
aF0.0
aF0.0
aF0.0
aF0.0
aF0.0
aF0.0
aF0.0
aF0.0
aF0.0
aF0.0
aF0.0
aF0.0
aF0.0
aF0.0
aF0.0
aF0.0
aF0.0
aF0.0
aF0.0
aF0.0
aF0.0
aa(lp1213
F0.0
aF0.0
aF0.0
aF0.0
aF0.0
aF0.0
aF0.0
aF0.0
aF0.0
aF0.0
aF5.687436923514104
aF0.0
aF0.0
aF0.0
aF0.0
aF0.0
aF0.0
aF0.0
aF0.0
aF0.0
aF0.0
aF0.0
aF0.0
aF0.0
aF0.0
aF0.0
aF0.0
aF0.0
aF0.0
aF0.0
aF0.0
aF0.0
aF0.0
aF0.0
aF0.0
aF0.0
aF0.0
aF0.0
aF0.0
aF0.0
aa(lp1214
F0.0
aF0.0
aF0.0
aF0.0
aF0.0
aF0.0
aF0.0
aF0.0
aF0.0
aF0.0
aF0.0
aF0.0
aF4.712066570161619
aF0.0
aF0.0
aF0.0
aF0.0
aF0.0
aF0.0
aF0.0
aF0.0
aF0.0
aF0.0
aF0.0
aF0.0
aF0.0
aF0.0
aF0.0
aF0.0
aF0.0
aF0.0
aF0.0
aF0.0
aF0.0
aF0.0
aF0.0
aF0.0
aF0.0
aF0.0
aF0.0
aa(lp1215
F0.0
aF0.0
aF0.0
aF0.0
aF0.0
aF0.0
aF0.0
aF0.0
aF0.0
aF0.0
aF0.0
aF0.6580657104593455
aF0.3363274630764571
aF0.2022848200910823
aF0.0
aF0.0
aF0.0
aF0.0
aF0.0
aF0.0
aF0.0
aF0.0
aF0.0
aF0.0
aF0.0
aF0.0
aF0.0
aF0.0
aF0.0
aF0.0
aF0.0
aF0.0
aF0.0
aF0.0
aF0.0
aF0.0
aF0.0
aF0.0
aF0.0
aF0.0
aa(lp1216
F0.0
aF0.0
aF0.10370931162623515
aF0.0
aF0.0
aF0.0
aF0.0
aF0.0
aF0.0
aF0.0
aF0.47583069553624285
aF0.37571291178445365
aF0.1080701554746995
aF0.0
aF0.0
aF0.0
aF0.0
aF0.0
aF0.0
aF0.0
aF0.0
aF0.0
aF0.0
aF0.0
aF0.0
aF0.0
aF0.0
aF0.0
aF0.0
aF0.0
aF0.0
aF0.0
aF0.0
aF0.0
aF0.0
aF0.0
aF0.0
aF0.0
aF0.0
aF0.0
aa(lp1217
F0.0
aF0.0
aF0.25300004124995845
aF0.0
aF0.029816334698461514
aF0.0
aF0.0
aF0.0
aF0.0
aF0.0
aF0.0
aF0.0
aF0.0
aF0.0
aF0.0
aF5.432089038943889
aF0.0
aF0.0
aF0.0
aF0.0
aF0.0
aF0.0
aF0.0
aF0.0
aF0.0
aF0.0
aF0.0
aF0.0
aF0.0
aF0.0
aF0.0
aF0.0
aF0.0
aF0.0
aF0.0
aF0.0
aF0.0
aF0.0
aF0.0
aF0.0
aa(lp1218
F0.0
aF0.0
aF0.0
aF0.0
aF0.2660981055183658
aF0.0
aF0.0
aF0.0
aF0.0
aF0.0
aF1.5982367470567216
aF0.0
aF0.0
aF0.0
aF0.0
aF0.0
aF0.0
aF0.0
aF0.0
aF0.0
aF0.0
aF0.0
aF0.0
aF0.0
aF0.0
aF0.0
aF0.0
aF0.0
aF0.0
aF0.0
aF0.0
aF0.0
aF0.0
aF0.0
aF0.0
aF0.0
aF0.0
aF0.0
aF0.0
aF0.0
aa(lp1219
F0.0
aF0.0
aF0.0
aF0.0
aF1.329738474295423
aF0.0
aF0.0
aF0.0
aF0.0
aF0.0
aF0.0
aF0.0
aF0.0
aF0.0
aF0.0
aF0.8929887121740353
aF0.0
aF0.0
aF0.0
aF0.0
aF0.0
aF0.0
aF0.0
aF0.0
aF0.0
aF0.0
aF0.0
aF0.0
aF0.0
aF0.0
aF0.0
aF0.0
aF0.0
aF0.0
aF0.0
aF0.0
aF0.0
aF0.0
aF0.0
aF0.0
aa(lp1220
F0.0
aF0.0
aF0.0
aF0.0
aF0.0
aF0.0
aF0.0
aF0.0
aF0.0
aF0.0
aF0.0
aF0.0
aF3.1978031348492233
aF0.0
aF0.0
aF0.0
aF0.0
aF0.0
aF0.0
aF0.0
aF0.0
aF0.0
aF0.0
aF0.0
aF0.0
aF0.0
aF0.0
aF0.0
aF0.0
aF0.0
aF0.0
aF0.0
aF0.0
aF0.0
aF0.0
aF0.0
aF0.0
aF0.0
aF0.0
aF0.0
aa(lp1221
F0.0
aF0.08471306765897779
aF2.550508562435563
aF0.09529052358652301
aF0.0
aF0.0
aF0.0
aF0.0
aF0.0
aF0.0
aF0.17870754217504664
aF0.0
aF0.0
aF0.0
aF0.0
aF0.0
aF0.0
aF0.0
aF0.0
aF0.0
aF0.0
aF0.0
aF0.0
aF0.0
aF0.0
aF0.0
aF0.0
aF0.0
aF0.0
aF0.0
aF0.0
aF0.0
aF0.0
aF0.0
aF0.0
aF0.0
aF0.0
aF0.0
aF0.0
aF0.0
aa(lp1222
F0.0
aF0.03949095346883221
aF1.6887555046786282
aF0.17773884479871518
aF0.015234758125604157
aF0.01865654240174526
aF0.0
aF0.0
aF0.0
aF0.0
aF0.0
aF0.0
aF0.0
aF0.01392748152526595
aF0.0
aF0.0
aF0.0
aF0.0
aF0.0
aF0.0
aF0.15568910941726077
aF0.0
aF0.0
aF0.0
aF0.0
aF0.0
aF0.0
aF0.0
aF0.0
aF0.0
aF0.0
aF0.0
aF0.0
aF0.0
aF0.0
aF0.0
aF0.0
aF0.0
aF0.0
aF0.0
aa(lp1223
F0.0
aF0.0
aF1.059712812560448
aF0.0
aF0.0
aF0.0
aF0.0
aF0.0
aF0.0
aF0.0
aF0.0
aF0.0
aF0.0
aF0.08108673301220988
aF0.0
aF0.0
aF0.0
aF0.0
aF0.0
aF0.0
aF0.23935030146458094
aF0.07713962823174514
aF0.0
aF0.0
aF0.0
aF0.0
aF0.0
aF0.0
aF0.0
aF0.0
aF0.0
aF0.0
aF0.0
aF0.0
aF0.0
aF0.0
aF0.0
aF0.0
aF0.0
aF0.0
aa(lp1224
F0.0
aF0.0
aF0.27230378324252225
aF0.028217561539957407
aF0.0
aF0.0
aF0.0
aF0.0
aF0.0
aF0.0
aF0.07190941546413496
aF0.0
aF0.0
aF0.0
aF0.0
aF0.0
aF0.0
aF0.0
aF0.0
aF0.0
aF0.33409976187408436
aF0.03121533940168582
aF0.3220439297010617
aF0.0
aF0.0
aF0.0
aF0.0
aF0.0
aF0.0
aF0.0
aF0.0
aF0.0
aF0.0
aF0.0
aF0.0
aF0.0
aF0.0
aF0.0
aF0.0
aF0.0
aa(lp1225
F0.0
aF0.0
aF0.0
aF0.0
aF0.0
aF0.0
aF0.0
aF0.0
aF0.0
aF0.04084818699679791
aF0.26437023161585066
aF0.0
aF0.0
aF0.036697533052862524
aF0.0
aF3.1795889684696177
aF0.0
aF0.0
aF0.0
aF0.0
aF0.0
aF0.0
aF0.0
aF0.0
aF0.0
aF0.0
aF0.0
aF0.0
aF0.0
aF0.0
aF0.0
aF0.0
aF0.0
aF0.0
aF0.0
aF0.0
aF0.0
aF0.0
aF0.0
aF0.0
aa(lp1226
F0.0
aF0.0
aF0.0
aF0.0
aF0.0
aF0.0
aF0.0
aF0.0
aF0.0
aF0.0
aF0.4591233189813373
aF0.0
aF0.0
aF0.0
aF0.0
aF0.6236451913171376
aF0.0
aF0.0
aF0.0
aF0.0
aF0.0
aF0.0
aF0.0
aF0.0
aF0.24667853610705387
aF0.0
aF0.0
aF0.0
aF0.0
aF0.0
aF0.0
aF0.0
aF0.0
aF0.0
aF0.0
aF0.0
aF0.0
aF0.0
aF0.0
aF0.0
aa(lp1227
F0.0
aF0.0
aF0.0
aF0.0
aF0.0
aF0.0
aF0.0
aF0.0
aF0.0
aF0.0
aF0.0
aF0.0
aF0.0
aF0.0
aF0.0
aF1.7257176100897231
aF0.0
aF0.0
aF0.0
aF0.0
aF0.0
aF0.0
aF0.0
aF0.0
aF0.0
aF0.9440163202544343
aF0.0
aF0.0
aF0.0
aF0.0
aF0.0
aF0.0
aF0.0
aF0.0
aF0.0
aF0.0
aF0.0
aF0.0
aF0.0
aF0.0
aa(lp1228
F0.0
aF0.0
aF0.0
aF0.0
aF0.0
aF0.0
aF0.0
aF0.0
aF0.0
aF0.0
aF0.16421046047921817
aF0.0
aF0.0
aF0.0
aF0.0
aF1.392949892368458
aF0.0
aF0.0
aF0.0
aF0.0
aF0.0
aF0.0
aF0.0
aF0.0
aF0.0
aF0.3227454743680668
aF0.0
aF0.0
aF0.0
aF0.0
aF0.0
aF0.0
aF0.0
aF0.0
aF0.0
aF0.0
aF0.0
aF0.0
aF0.0
aF0.0
aa(lp1229
F0.0
aF0.0
aF0.0
aF0.0
aF1.6554482724085744
aF0.0
aF0.0
aF0.0
aF0.0
aF0.0
aF0.0
aF0.0
aF0.0
aF0.0
aF0.0
aF0.0
aF0.0
aF0.0
aF0.0
aF0.0
aF0.0
aF0.0
aF0.0
aF0.0
aF0.0
aF0.6281705226599859
aF0.0
aF0.0
aF0.0
aF0.0
aF0.0
aF0.0
aF0.0
aF0.0
aF0.0
aF0.0
aF0.0
aF0.0
aF0.0
aF0.0
aa(lp1230
F0.0
aF0.0
aF0.0
aF0.0
aF0.0
aF0.0
aF0.0
aF0.0
aF0.0
aF0.0
aF0.0
aF0.0
aF0.0
aF0.0
aF0.0
aF0.0
aF0.0
aF0.0
aF0.0
aF0.0
aF0.0
aF0.0
aF0.0
aF0.0
aF0.0
aF0.0
aF0.0
aF0.0
aF0.0
aF0.0
aF0.0
aF0.0
aF0.0
aF0.0
aF0.0
aF0.0
aF0.0
aF0.0
aF0.0
aF0.0
aa(lp1231
F0.012648925837872806
aF0.0
aF0.0
aF0.0
aF0.0
aF0.0
aF0.0
aF0.0
aF0.0
aF0.0
aF0.0
aF0.0
aF0.0
aF0.0
aF0.0
aF0.06666300043438907
aF0.0
aF0.0
aF0.0
aF0.0
aF0.0
aF0.0
aF0.0
aF0.0
aF0.0
aF0.0
aF0.0
aF0.0
aF0.0
aF4.373563702681726
aF0.0
aF0.0
aF0.0
aF0.0
aF0.0
aF0.0
aF0.0
aF0.0
aF0.0
aF0.0
aa(lp1232
F0.07759830089940856
aF0.0
aF0.0
aF0.0
aF0.0
aF0.0
aF0.0
aF0.0
aF0.0
aF0.0
aF0.10433217595301741
aF0.0
aF0.0
aF0.0
aF0.0
aF0.02970518009227858
aF0.0
aF0.0
aF0.0
aF0.05692725629364162
aF0.0
aF0.0
aF0.0
aF0.0
aF0.2319579198633678
aF0.0
aF0.0
aF0.0
aF0.0
aF0.20025991055001008
aF0.0
aF0.0
aF0.0
aF0.0
aF0.0
aF0.0
aF0.0
aF0.0
aF0.0
aF0.0
aa(lp1233
F0.0
aF0.0
aF0.0
aF0.2678114021226443
aF0.0
aF0.2140899552201713
aF0.0
aF0.0
aF0.0
aF0.0
aF0.0
aF0.0
aF0.0
aF0.0
aF0.0
aF0.0
aF0.0
aF0.0
aF0.0
aF0.026463906978742582
aF0.0
aF0.0
aF0.0
aF0.0
aF0.0
aF0.0
aF0.0
aF0.0
aF0.0
aF0.42841748201740487
aF0.0
aF0.04773249046769632
aF0.0
aF0.0
aF0.0
aF0.0
aF0.0
aF0.0
aF0.0
aF0.0
aa(lp1234
F0.0
aF0.0
aF0.0
aF0.0
aF0.1993870053109012
aF0.1313055763346993
aF0.0
aF0.0
aF0.0
aF0.0
aF0.0
aF0.0
aF0.0
aF0.0
aF0.0
aF0.0
aF0.0
aF0.0
aF0.0
aF0.0
aF0.0
aF0.0
aF0.0
aF0.0
aF0.0
aF0.0
aF0.0
aF0.0
aF0.0
aF0.13231863231533766
aF0.0
aF0.0
aF0.9380217683334668
aF0.0
aF0.0
aF0.0
aF0.0
aF0.0
aF0.0
aF0.0
aa(lp1235
F0.0
aF0.0
aF0.0
aF0.0
aF0.12296828756055785
aF0.024430985223226596
aF0.0
aF0.0
aF0.0
aF0.0
aF0.0
aF0.0
aF0.0
aF0.0
aF0.0
aF0.05298186202332574
aF0.0
aF0.0
aF0.0
aF0.0
aF0.0
aF0.0
aF0.0
aF0.0
aF0.0
aF0.0
aF0.0
aF0.0
aF0.0
aF0.37108182062277045
aF0.0
aF0.0
aF0.07181423794482704
aF0.5827860255334589
aF0.0
aF0.0
aF0.0
aF0.0
aF0.0
aF0.0
aa(lp1236
F0.1298746361300211
aF0.0
aF0.0
aF0.0
aF0.0
aF0.0
aF0.0
aF0.0
aF0.0
aF0.0
aF0.0
aF0.0
aF0.0
aF0.0
aF0.0
aF0.0
aF0.0
aF0.0
aF0.0
aF0.0
aF0.0
aF0.0
aF0.0
aF0.0
aF0.0
aF0.0
aF0.0
aF0.0
aF0.0
aF0.0
aF0.0
aF0.0
aF1.968349260127367
aF0.0
aF0.09841746300636836
aF0.0
aF0.0
aF0.0
aF0.0
aF0.0
aa(lp1237
F0.0
aF0.0
aF0.0
aF0.0
aF0.0
aF0.0
aF0.0
aF0.0
aF0.0
aF0.0
aF0.0
aF0.0
aF0.0
aF0.0
aF0.0
aF0.0
aF0.0
aF0.0
aF0.0
aF0.0
aF0.0
aF0.0
aF0.0
aF0.0
aF0.0
aF0.0
aF0.0
aF0.0
aF0.0
aF0.0
aF0.0
aF0.0
aF1.1696885205316665
aF0.0
aF0.0
aF1.1356287918296517
aF0.0
aF0.0
aF0.0
aF0.0
aa(lp1238
F0.0
aF0.0
aF0.0
aF0.0
aF0.0
aF0.011970091451562727
aF0.0
aF0.0
aF0.0
aF0.0
aF0.0
aF0.0
aF0.0
aF0.0
aF0.0
aF0.0
aF0.0
aF0.0
aF0.0
aF0.0
aF0.0
aF0.0
aF0.0
aF0.0
aF0.0
aF0.0
aF0.0
aF0.0
aF0.24452835745295354
aF0.0
aF0.0
aF0.0
aF1.5634915946135395
aF0.03256467386761299
aF0.21851622042132057
aF0.0
aF0.0
aF0.0
aF0.0
aF0.0
aa(lp1239
F0.3260980396076739
aF0.0
aF0.0
aF0.0
aF0.0
aF0.0
aF0.0
aF0.0
aF0.0
aF0.0
aF0.3787200635226702
aF0.0
aF0.0
aF0.48852128463180455
aF0.0
aF0.0
aF0.0
aF0.0
aF0.0
aF0.0
aF0.0
aF0.0
aF0.0
aF0.0
aF0.0
aF0.0
aF0.0
aF0.0
aF0.0
aF0.0
aF0.0
aF0.0
aF0.0
aF0.0
aF0.0
aF0.0
aF0.0
aF0.0
aF0.0
aF0.0
aa(lp1240
F0.0
aF0.0
aF0.0
aF0.0
aF0.0
aF0.0
aF0.0
aF0.0
aF0.0
aF0.0
aF0.041829668162260566
aF0.0
aF0.0
aF0.0
aF0.0
aF0.030902264695818853
aF0.0
aF0.029339924627491444
aF0.013003446243738889
aF0.061928920471183306
aF0.0
aF0.0
aF0.0
aF0.0
aF0.025158059403751636
aF0.0
aF0.0
aF0.0
aF0.04993986525140364
aF0.0
aF0.0
aF0.0
aF0.0
aF0.0
aF0.0
aF0.0
aF0.0
aF0.0
aF0.5276917782328678
aF0.0
aatp1241
.