((lp0
(lp1
c__builtin__
set
p2
((lp3
tp4
Rp5
ag2
((lp6
S'intelligence'
p7
aS'strong ai'
p8
aS'machine'
p9
aS'computer'
p10
aS'human'
p11
aS'intelligent'
p12
aS'artificial intelligence'
p13
atp14
Rp15
aa(lp16
g2
((lp17
tp18
Rp19
ag2
((lp20
S'rational agent'
p21
aS'autonomous agent'
p22
aS'agent'
p23
aS'environment'
p24
aS'agent program'
p25
aS'intelligent agent'
p26
atp27
Rp28
aa(lp29
g2
((lp30
S'agent'
p31
aS'rational agent'
p32
atp33
Rp34
ag2
((lp35
S'agent refer'
p36
aS'goal state'
p37
aS'initial state'
p38
aS'space search'
p39
aS'current state'
p40
aS'state'
p41
aS'implicit state'
p42
aS'state space'
p43
atp44
Rp45
aa(lp46
g2
((lp47
S'state space'
p48
aS'goal state'
p49
aS'state'
p50
aS'initial state'
p51
atp52
Rp53
ag2
((lp54
S'search'
p55
aS'breadth first search'
p56
aS'search tree'
p57
aS'first node'
p58
aS'search strategy'
p59
aS'search space'
p60
aS'iterative deepening search'
p61
aS'search problem'
p62
aS'search algorithm'
p63
atp64
Rp65
aa(lp66
g2
((lp67
S'search'
p68
aS'search algorithm'
p69
aS'breadth first search'
p70
aS'search space'
p71
aS'search tree'
p72
atp73
Rp74
ag2
((lp75
S'optimum path'
p76
aS'greedy search'
p77
aS'forward search'
p78
aS'node'
p79
aS'first search'
p80
aS'node n'
p81
aS'cost search'
p82
aS'goal node'
p83
aS'path'
p84
aS'bidirectional search'
p85
atp86
Rp87
aa(lp88
g2
((lp89
S'node'
p90
aS'search'
p91
aS'goal state'
p92
aS'initial state'
p93
aS'search tree'
p94
aS'first search'
p95
aS'state space'
p96
aS'iterative deepening search'
p97
aS'goal node'
p98
aS'state'
p99
aS'search space'
p100
aS'breadth first search'
p101
aS'bidirectional search'
p102
atp103
Rp104
ag2
((lp105
S'start node'
p106
aS'local search'
p107
aS'depth first search'
p108
aS'algorithm'
p109
atp110
Rp111
aa(lp112
g2
((lp113
S'node'
p114
aS'search'
p115
aS'search tree'
p116
aS'node n'
p117
aS'cost search'
p118
aS'bidirectional search'
p119
atp120
Rp121
ag2
((lp122
S'max player'
p123
aS'min player'
p124
aS'move'
p125
aS'player'
p126
aS'game'
p127
aS'agent search'
p128
aS'game tree'
p129
aS'other player'
p130
atp131
Rp132
aa(lp133
g2
((lp134
S'node'
p135
aS'search'
p136
aS'game tree'
p137
aS'game'
p138
aS'search tree'
p139
atp140
Rp141
ag2
((lp142
S'min node'
p143
aS'node ordering'
p144
aS'max node'
p145
aS'minimax search'
p146
aS'ply search'
p147
atp148
Rp149
aa(lp150
g2
((lp151
S'search'
p152
aS'depth first search'
p153
aS'search tree'
p154
atp155
Rp156
ag2
((lp157
S'current assignment'
p158
aS'constraint satisfaction'
p159
aS'assignment'
p160
aS'constraint propagation'
p161
aS'constraint'
p162
atp163
Rp164
aa(lp165
g2
((lp166
S'constraint satisfaction'
p167
aS'constraint propagation'
p168
aS'constraint'
p169
atp170
Rp171
ag2
((lp172
tp173
Rp174
aa(lp175
g2
((lp176
tp177
Rp178
ag2
((lp179
S'proposition'
p180
aS'knowledge'
p181
aS'valid proposition'
p182
aS'compound proposition'
p183
aS'propositional logic'
p184
aS'knowledge representation'
p185
aS'proposition p'
p186
atp187
Rp188
aa(lp189
g2
((lp190
S'propositional logic'
p191
aS'proposition'
p192
atp193
Rp194
ag2
((lp195
tp196
Rp197
aa(lp198
g2
((lp199
tp200
Rp201
ag2
((lp202
tp203
Rp204
aa(lp205
g2
((lp206
tp207
Rp208
ag2
((lp209
S'horn sentence'
p210
atp211
Rp212
aa(lp213
g2
((lp214
tp215
Rp216
ag2
((lp217
S'clause'
p218
aS'null clause'
p219
atp220
Rp221
aa(lp222
g2
((lp223
tp224
Rp225
ag2
((lp226
S'rule base'
p227
aS'third rule'
p228
aS'rule'
p229
atp230
Rp231
aa(lp232
g2
((lp233
S'goal state'
p234
aS'rule base'
p235
aS'rule'
p236
atp237
Rp238
ag2
((lp239
tp240
Rp241
aa(lp242
g2
((lp243
tp244
Rp245
ag2
((lp246
S'concept animal'
p247
atp248
Rp249
aa(lp250
g2
((lp251
tp252
Rp253
ag2
((lp254
S'semantic net'
p255
atp256
Rp257
aa(lp258
g2
((lp259
tp260
Rp261
ag2
((lp262
S'concept dog'
p263
aS'frame'
p264
aS'dog'
p265
aS'particular dog'
p266
aS'instance of dog'
p267
atp268
Rp269
aa(lp270
g2
((lp271
S'state space'
p272
aS'goal state'
p273
aS'initial state'
p274
aS'agent'
p275
aS'state'
p276
aS'proposition'
p277
atp278
Rp279
ag2
((lp280
S'action'
p281
aS'action go'
p282
aS'action pick'
p283
aS'successor state'
p284
atp285
Rp286
aa(lp287
g2
((lp288
S'search'
p289
aS'forward search'
p290
aS'goal state'
p291
aS'initial state'
p292
aS'state space'
p293
aS'current state'
p294
aS'state'
p295
aS'action'
p296
aS'search space'
p297
atp298
Rp299
ag2
((lp300
S'sub goal'
p301
aS'current goal'
p302
aS'goal'
p303
aS'backward search'
p304
atp305
Rp306
aa(lp307
g2
((lp308
tp309
Rp310
ag2
((lp311
S'planning algorithm'
p312
aS'planning problem'
p313
aS'partial plan'
p314
aS'planning'
p315
aS'plan'
p316
aS'initial plan'
p317
atp318
Rp319
aa(lp320
g2
((lp321
S'action'
p322
aS'proposition'
p323
atp324
Rp325
ag2
((lp326
S'maintenance action'
p327
aS'action level'
p328
aS'graph'
p329
aS'graph expansion'
p330
aS'planning graph'
p331
aS'graph plan'
p332
atp333
Rp334
aa(lp335
g2
((lp336
S'knowledge'
p337
aS'rule'
p338
atp339
Rp340
ag2
((lp341
S'expert system'
p342
aS'expert'
p343
aS'system'
p344
aS'human expert'
p345
aS'knowledge acquisition'
p346
aS'knowledge base'
p347
atp348
Rp349
aa(lp350
g2
((lp351
tp352
Rp353
ag2
((lp354
S'belief in h'
p355
aS'measure of belief'
p356
aS'belief'
p357
atp358
Rp359
aa(lp360
g2
((lp361
S'rule'
p362
atp363
Rp364
ag2
((lp365
S'certainty'
p366
aS'factor of h'
p367
aS'certainty factor'
p368
aS'factor'
p369
atp370
Rp371
aa(lp372
g2
((lp373
S'rule'
p374
atp375
Rp376
ag2
((lp377
S'joint probability'
p378
aS'probability theory'
p379
atp380
Rp381
aa(lp382
g2
((lp383
tp384
Rp385
ag2
((lp386
S'probability of alarm'
p387
aS'probability of john'
p388
aS'probability'
p389
aS'priori probability'
p390
aS'probability of b'
p391
aS'conditional probability'
p392
atp393
Rp394
aa(lp395
g2
((lp396
tp397
Rp398
ag2
((lp399
S'set'
p400
aS'set theory'
p401
aS'set medium'
p402
aS'set tall'
p403
aS'case of fuzzy'
p404
aS'crisp set'
p405
atp406
Rp407
aa(lp408
g2
((lp409
S'set'
p410
aS'crisp set'
p411
aS'set tall'
p412
atp413
Rp414
ag2
((lp415
S'membership function'
p416
aS'fuzzy set'
p417
aS'fuzzy set tall'
p418
aS'membership'
p419
aS'membership value'
p420
aS'fuzzy'
p421
aS'fuzzy logic'
p422
atp423
Rp424
aa(lp425
g2
((lp426
tp427
Rp428
ag2
((lp429
tp430
Rp431
aa(lp432
g2
((lp433
S'set'
p434
atp435
Rp436
ag2
((lp437
S'training'
p438
aS'hypothesis space'
p439
aS'positive example'
p440
aS'negative example'
p441
aS'hypothesis'
p442
aS'set of training'
p443
aS'good hypothesis'
p444
aS'possible hypothesis'
p445
aS'training example'
p446
aS'set of hypothesis'
p447
atp448
Rp449
aa(lp450
g2
((lp451
S'training example'
p452
atp453
Rp454
ag2
((lp455
S'decision attribute'
p456
aS'attribute'
p457
aS'decision'
p458
aS'target attribute'
p459
atp460
Rp461
aa(lp462
g2
((lp463
S'attribute'
p464
aS'decision'
p465
aS'set'
p466
atp467
Rp468
ag2
((lp469
S'training set'
p470
aS'test set'
p471
aS'rule set'
p472
aS'decision tree'
p473
aS'validation set'
p474
aS'tree'
p475
aS'data set'
p476
aS'data'
p477
atp478
Rp479
aa(lp480
g2
((lp481
tp482
Rp483
ag2
((lp484
S'linear unit'
p485
aS'xor function'
p486
aS'linear threshold unit'
p487
aS'threshold unit'
p488
atp489
Rp490
aa(lp491
g2
((lp492
tp493
Rp494
ag2
((lp495
S'function'
p496
aS'network'
p497
aS'error function'
p498
aS'output unit'
p499
aS'neural network'
p500
aS'sigmoid unit'
p501
aS'sigmoid function'
p502
aS'sigmoidal function'
p503
aS'hidden unit'
p504
aS'unit'
p505
atp506
Rp507
aa(lp508
g2
((lp509
S'hypothesis space'
p510
aS'possible hypothesis'
p511
aS'hypothesis'
p512
aS'probability'
p513
atp514
Rp515
ag2
((lp516
S'prior probability'
p517
aS'different hypothesis'
p518
aS'map hypothesis'
p519
aS'posterior probability'
p520
atp521
Rp522
aa(lp523
g2
((lp524
tp525
Rp526
ag2
((lp527
S'language processing'
p528
aS'language'
p529
aS'text'
p530
aS'understanding'
p531
aS'natural language processing'
p532
aS'natural language'
p533
atp534
Rp535
aa(lp536
g2
((lp537
S'language'
p538
aS'natural language'
p539
atp540
Rp541
ag2
((lp542
S'natural language understanding'
p543
aS'sentence'
p544
atp545
Rp546
aa(lp547
(dp548
a(dp549
a(dp550
g32
(F10.277346536194475
I5
tp551
sg31
(F10.277346536194475
I99
tp552
sa(dp553
g49
(F10.035481360151094
I12
tp554
sg51
(F10.035481360151094
I16
tp555
sg48
(F10.035481360151094
I34
tp556
sg50
(F10.035481360151094
I108
tp557
sa(dp558
g68
(F11.321696228181226
I145
tp559
sg70
(F11.321696228181226
I11
tp560
sg72
(F11.321696228181226
I11
tp561
sg71
(F11.321696228181226
I5
tp562
sg69
(F11.321696228181226
I11
tp563
sa(dp564
g90
(F8.152855626366444
I50
tp565
sg91
(F8.440276995702652
I91
tp566
sg92
(F6.28822074532721
I7
tp567
sg93
(F6.28822074532721
I5
tp568
sg94
(F8.440276995702652
I6
tp569
sg95
(F8.440276995702652
I25
tp570
sg96
(F6.28822074532721
I16
tp571
sg97
(F8.440276995702652
I7
tp572
sg98
(F8.152855626366444
I6
tp573
sg99
(F6.28822074532721
I61
tp574
sg101
(F8.440276995702652
I6
tp575
sg102
(F8.440276995702652
I6
tp576
sg100
(F8.440276995702652
I7
tp577
sa(dp578
g114
(F8.246547115472735
I66
tp579
sg115
(F8.048324937716659
I80
tp580
sg116
(F8.048324937716659
I18
tp581
sg117
(F8.246547115472735
I6
tp582
sg118
(F8.048324937716659
I5
tp583
sg119
(F8.048324937716659
I5
tp584
sa(dp585
g135
(F10.459684948210867
I144
tp586
sg136
(F7.0644346711364125
I80
tp587
sg139
(F7.0644346711364125
I12
tp588
sg138
(F7.707556234189125
I41
tp589
sg137
(F7.707556234189125
I19
tp590
sa(dp591
g152
(F6.79303803306017
I50
tp592
sg154
(F6.79303803306017
I7
tp593
sg153
(F6.79303803306017
I7
tp594
sa(dp595
g167
(F7.0705120265392765
I23
tp596
sg168
(F7.0705120265392765
I14
tp597
sg169
(F7.0705120265392765
I59
tp598
sa(dp599
a(dp600
g191
(F6.232449933124392
I9
tp601
sg192
(F6.232449933124392
I28
tp602
sa(dp603
a(dp604
a(dp605
a(dp606
a(dp607
g235
(F15.393470702284223
I7
tp608
sg234
(F7.301528718602831
I6
tp609
sg236
(F15.393470702284223
I98
tp610
sa(dp611
a(dp612
a(dp613
a(dp614
g272
(F9.37128773679261
I14
tp615
sg273
(F9.37128773679261
I8
tp616
sg274
(F9.37128773679261
I21
tp617
sg275
(F6.343149212513702
I41
tp618
sg276
(F9.37128773679261
I120
tp619
sg277
(F6.490161008580108
I18
tp620
sa(dp621
g289
(F7.099397286531538
I65
tp622
sg290
(F7.099397286531538
I12
tp623
sg291
(F9.036861992500372
I24
tp624
sg292
(F9.036861992500372
I31
tp625
sg293
(F9.036861992500372
I8
tp626
sg294
(F9.036861992500372
I12
tp627
sg295
(F9.036861992500372
I134
tp628
sg296
(F10.489319275437618
I83
tp629
sg297
(F7.099397286531538
I5
tp630
sa(dp631
a(dp632
g323
(F6.223433047441499
I33
tp633
sg322
(F9.447415048637474
I101
tp634
sa(dp635
g337
(F7.160984969420651
I46
tp636
sg338
(F13.927153591356422
I60
tp637
sa(dp638
a(dp639
g362
(F8.033513012486642
I58
tp640
sa(dp641
g374
(F6.515495751449664
I21
tp642
sa(dp643
a(dp644
a(dp645
g410
(F8.69372628641921
I111
tp646
sg412
(F8.69372628641921
I9
tp647
sg411
(F8.69372628641921
I15
tp648
sa(dp649
a(dp650
g434
(F7.917155067681643
I100
tp651
sa(dp652
g452
(F6.5420253479238974
I9
tp653
sa(dp654
g466
(F8.526814878223226
I92
tp655
sg464
(F7.708540914074161
I28
tp656
sg465
(F6.669428056579827
I60
tp657
sa(dp658
a(dp659
a(dp660
g513
(F9.197698217177761
I57
tp661
sg510
(F8.40131824273541
I13
tp662
sg512
(F8.40131824273541
I115
tp663
sg511
(F8.40131824273541
I5
tp664
sa(dp665
a(dp666
g539
(F6.758513928905577
I20
tp667
sg538
(F6.758513928905577
I32
tp668
sa(lp669
(lp670
F0.0
aF0.0
aF0.0
aF0.0
aF0.0
aF0.0
aF0.0
aF0.0
aF0.0
aF0.0
aF0.0
aF0.0
aF0.0
aF0.0
aF0.0
aF0.0
aF0.0
aF0.0
aF0.0
aF0.0
aF0.0
aF0.0
aF0.0
aF0.0
aF0.0
aF0.0
aF0.0
aF0.0
aF0.0
aF0.0
aF0.0
aF0.0
aF0.0
aF0.0
aF0.0
aF0.0
aF0.0
aF0.0
aF0.0
aF0.0
aa(lp671
F0.0
aF0.0
aF0.0
aF0.0
aF0.0
aF0.0
aF0.0
aF0.0
aF0.0
aF0.0
aF0.0
aF0.0
aF0.0
aF0.0
aF0.0
aF0.0
aF0.0
aF0.0
aF0.0
aF0.0
aF0.0
aF0.0
aF0.0
aF0.0
aF0.0
aF0.0
aF0.0
aF0.0
aF0.0
aF0.0
aF0.0
aF0.0
aF0.0
aF0.0
aF0.0
aF0.0
aF0.0
aF0.0
aF0.0
aF0.0
aa(lp672
F0.0
aF10.277346536194475
aF0.0
aF0.0
aF0.0
aF0.0
aF0.0
aF0.0
aF0.0
aF0.0
aF0.0
aF0.0
aF0.0
aF0.0
aF0.0
aF0.0
aF0.0
aF0.0
aF0.0
aF0.0
aF0.0
aF0.0
aF0.0
aF0.0
aF0.0
aF0.0
aF0.0
aF0.0
aF0.0
aF0.0
aF0.0
aF0.0
aF0.0
aF0.0
aF0.0
aF0.0
aF0.0
aF0.0
aF0.0
aF0.0
aa(lp673
F0.0
aF0.0
aF10.035481360151094
aF0.0
aF0.0
aF0.0
aF0.0
aF0.0
aF0.0
aF0.0
aF0.0
aF0.0
aF0.0
aF0.0
aF0.0
aF0.0
aF0.0
aF0.0
aF0.0
aF0.0
aF0.0
aF0.0
aF0.0
aF0.0
aF0.0
aF0.0
aF0.0
aF0.0
aF0.0
aF0.0
aF0.0
aF0.0
aF0.0
aF0.0
aF0.0
aF0.0
aF0.0
aF0.0
aF0.0
aF0.0
aa(lp674
F0.0
aF0.0
aF0.0
aF11.321696228181224
aF0.0
aF0.0
aF0.0
aF0.0
aF0.0
aF0.0
aF0.0
aF0.0
aF0.0
aF0.0
aF0.0
aF0.0
aF0.0
aF0.0
aF0.0
aF0.0
aF0.0
aF0.0
aF0.0
aF0.0
aF0.0
aF0.0
aF0.0
aF0.0
aF0.0
aF0.0
aF0.0
aF0.0
aF0.0
aF0.0
aF0.0
aF0.0
aF0.0
aF0.0
aF0.0
aF0.0
aa(lp675
F0.0
aF0.0
aF0.5877150394687547
aF1.2962882757905099
aF0.7542226326524579
aF0.0
aF0.0
aF0.0
aF0.0
aF0.0
aF0.0
aF0.0
aF0.0
aF0.0
aF0.0
aF0.0
aF0.0
aF0.0
aF0.0
aF0.0
aF0.0
aF0.0
aF0.0
aF0.0
aF0.0
aF0.0
aF0.0
aF0.0
aF0.0
aF0.0
aF0.0
aF0.0
aF0.0
aF0.0
aF0.0
aF0.0
aF0.0
aF0.0
aF0.0
aF0.0
aa(lp676
F0.0
aF0.0
aF0.0
aF1.4606219331411714
aF2.4971653395970494
aF0.0
aF0.0
aF0.0
aF0.0
aF0.0
aF0.0
aF0.0
aF0.0
aF0.0
aF0.0
aF0.0
aF0.0
aF0.0
aF0.0
aF0.0
aF0.0
aF0.0
aF0.0
aF0.0
aF0.0
aF0.0
aF0.0
aF0.0
aF0.0
aF0.0
aF0.0
aF0.0
aF0.0
aF0.0
aF0.0
aF0.0
aF0.0
aF0.0
aF0.0
aF0.0
aa(lp677
F0.0
aF0.0
aF0.0
aF0.8782810672223648
aF1.0176990760421385
aF0.0
aF0.6249369919612805
aF0.0
aF0.0
aF0.0
aF0.0
aF0.0
aF0.0
aF0.0
aF0.0
aF0.0
aF0.0
aF0.0
aF0.0
aF0.0
aF0.0
aF0.0
aF0.0
aF0.0
aF0.0
aF0.0
aF0.0
aF0.0
aF0.0
aF0.0
aF0.0
aF0.0
aF0.0
aF0.0
aF0.0
aF0.0
aF0.0
aF0.0
aF0.0
aF0.0
aa(lp678
F0.0
aF0.0
aF0.0
aF4.033366332129476
aF0.0
aF0.24766284495531868
aF0.0
aF0.0
aF0.0
aF0.0
aF0.0
aF0.0
aF0.0
aF0.0
aF0.0
aF0.0
aF0.0
aF0.0
aF0.0
aF0.0
aF0.0
aF0.0
aF0.0
aF0.0
aF0.0
aF0.0
aF0.0
aF0.0
aF0.0
aF0.0
aF0.0
aF0.0
aF0.0
aF0.0
aF0.0
aF0.0
aF0.0
aF0.0
aF0.0
aF0.0
aa(lp679
F0.0
aF0.0
aF0.0
aF0.0
aF0.0
aF0.0
aF0.0
aF0.0
aF7.070512026539276
aF0.0
aF0.0
aF0.0
aF0.0
aF0.0
aF0.0
aF0.0
aF0.0
aF0.0
aF0.0
aF0.0
aF0.0
aF0.0
aF0.0
aF0.0
aF0.0
aF0.0
aF0.0
aF0.0
aF0.0
aF0.0
aF0.0
aF0.0
aF0.0
aF0.0
aF0.0
aF0.0
aF0.0
aF0.0
aF0.0
aF0.0
aa(lp680
F0.0
aF0.0
aF0.0
aF0.0
aF0.0
aF0.0
aF0.0
aF0.0
aF0.0
aF0.0
aF0.0
aF0.0
aF0.0
aF0.0
aF0.0
aF0.0
aF0.0
aF0.0
aF0.0
aF0.0
aF0.0
aF0.0
aF0.0
aF0.0
aF0.0
aF0.0
aF0.0
aF0.0
aF0.0
aF0.0
aF0.0
aF0.0
aF0.0
aF0.0
aF0.0
aF0.0
aF0.0
aF0.0
aF0.0
aF0.0
aa(lp681
F0.0
aF0.0
aF0.0
aF0.0
aF0.0
aF0.0
aF0.0
aF0.0
aF0.0
aF0.0
aF6.232449933124392
aF0.0
aF0.0
aF0.0
aF0.0
aF0.0
aF0.0
aF0.0
aF0.0
aF0.0
aF0.0
aF0.0
aF0.0
aF0.0
aF0.0
aF0.0
aF0.0
aF0.0
aF0.0
aF0.0
aF0.0
aF0.0
aF0.0
aF0.0
aF0.0
aF0.0
aF0.0
aF0.0
aF0.0
aF0.0
aa(lp682
F0.0
aF0.0
aF0.0
aF0.0
aF0.0
aF0.0
aF0.0
aF0.0
aF0.0
aF0.0
aF0.0
aF0.0
aF0.0
aF0.0
aF0.0
aF0.0
aF0.0
aF0.0
aF0.0
aF0.0
aF0.0
aF0.0
aF0.0
aF0.0
aF0.0
aF0.0
aF0.0
aF0.0
aF0.0
aF0.0
aF0.0
aF0.0
aF0.0
aF0.0
aF0.0
aF0.0
aF0.0
aF0.0
aF0.0
aF0.0
aa(lp683
F0.0
aF0.0
aF0.0
aF0.0
aF0.0
aF0.0
aF0.0
aF0.0
aF0.0
aF0.0
aF0.0
aF0.0
aF0.0
aF0.0
aF0.0
aF0.0
aF0.0
aF0.0
aF0.0
aF0.0
aF0.0
aF0.0
aF0.0
aF0.0
aF0.0
aF0.0
aF0.0
aF0.0
aF0.0
aF0.0
aF0.0
aF0.0
aF0.0
aF0.0
aF0.0
aF0.0
aF0.0
aF0.0
aF0.0
aF0.0
aa(lp684
F0.0
aF0.0
aF0.0
aF0.0
aF0.0
aF0.0
aF0.0
aF0.0
aF0.0
aF0.0
aF0.0
aF0.0
aF0.0
aF0.0
aF0.0
aF0.0
aF0.0
aF0.0
aF0.0
aF0.0
aF0.0
aF0.0
aF0.0
aF0.0
aF0.0
aF0.0
aF0.0
aF0.0
aF0.0
aF0.0
aF0.0
aF0.0
aF0.0
aF0.0
aF0.0
aF0.0
aF0.0
aF0.0
aF0.0
aF0.0
aa(lp685
F0.0
aF0.0
aF0.0
aF0.0
aF0.0
aF0.0
aF0.0
aF0.0
aF0.0
aF0.0
aF0.0
aF0.0
aF0.0
aF0.0
aF0.0
aF0.0
aF0.0
aF0.0
aF0.0
aF0.0
aF0.0
aF0.0
aF0.0
aF0.0
aF0.0
aF0.0
aF0.0
aF0.0
aF0.0
aF0.0
aF0.0
aF0.0
aF0.0
aF0.0
aF0.0
aF0.0
aF0.0
aF0.0
aF0.0
aF0.0
aa(lp686
F0.0
aF0.0
aF0.1315590760108618
aF0.0
aF0.0
aF0.0
aF0.0
aF0.0
aF0.0
aF0.0
aF0.0
aF0.0
aF0.0
aF0.0
aF0.0
aF9.707594136575636
aF0.0
aF0.0
aF0.0
aF0.0
aF0.0
aF0.0
aF0.0
aF0.0
aF0.0
aF0.0
aF0.0
aF0.0
aF0.0
aF0.0
aF0.0
aF0.0
aF0.0
aF0.0
aF0.0
aF0.0
aF0.0
aF0.0
aF0.0
aF0.0
aa(lp687
F0.0
aF0.0
aF0.0
aF0.0
aF0.0
aF0.0
aF0.0
aF0.0
aF0.0
aF0.0
aF0.0
aF0.0
aF0.0
aF0.0
aF0.0
aF0.0
aF0.0
aF0.0
aF0.0
aF0.0
aF0.0
aF0.0
aF0.0
aF0.0
aF0.0
aF0.0
aF0.0
aF0.0
aF0.0
aF0.0
aF0.0
aF0.0
aF0.0
aF0.0
aF0.0
aF0.0
aF0.0
aF0.0
aF0.0
aF0.0
aa(lp688
F0.0
aF0.0
aF0.0
aF0.0
aF0.0
aF0.0
aF0.0
aF0.0
aF0.0
aF0.0
aF0.0
aF0.0
aF0.0
aF0.0
aF0.0
aF0.0
aF0.0
aF0.0
aF0.0
aF0.0
aF0.0
aF0.0
aF0.0
aF0.0
aF0.0
aF0.0
aF0.0
aF0.0
aF0.0
aF0.0
aF0.0
aF0.0
aF0.0
aF0.0
aF0.0
aF0.0
aF0.0
aF0.0
aF0.0
aF0.0
aa(lp689
F0.0
aF0.0
aF0.0
aF0.0
aF0.0
aF0.0
aF0.0
aF0.0
aF0.0
aF0.0
aF0.0
aF0.0
aF0.0
aF0.0
aF0.0
aF0.0
aF0.0
aF0.0
aF0.0
aF0.0
aF0.0
aF0.0
aF0.0
aF0.0
aF0.0
aF0.0
aF0.0
aF0.0
aF0.0
aF0.0
aF0.0
aF0.0
aF0.0
aF0.0
aF0.0
aF0.0
aF0.0
aF0.0
aF0.0
aF0.0
aa(lp690
F0.0
aF0.1952470853701665
aF4.587146850141727
aF0.0
aF0.0
aF0.0
aF0.0
aF0.0
aF0.0
aF0.0
aF0.08770487849432579
aF0.0
aF0.0
aF0.0
aF0.0
aF0.0
aF0.0
aF0.0
aF0.0
aF0.0
aF0.0
aF0.0
aF0.0
aF0.0
aF0.0
aF0.0
aF0.0
aF0.0
aF0.0
aF0.0
aF0.0
aF0.0
aF0.0
aF0.0
aF0.0
aF0.0
aF0.0
aF0.0
aF0.0
aF0.0
aa(lp691
F0.0
aF0.0
aF2.805561729697828
aF0.29528093289198315
aF0.02530979424788427
aF0.0
aF0.0
aF0.0
aF0.0
aF0.0
aF0.0
aF0.0
aF0.0
aF0.0
aF0.0
aF0.0
aF0.0
aF0.0
aF0.0
aF0.0
aF0.25864928694632267
aF0.0
aF0.0
aF0.0
aF0.0
aF0.0
aF0.0
aF0.0
aF0.0
aF0.0
aF0.0
aF0.0
aF0.0
aF0.0
aF0.0
aF0.0
aF0.0
aF0.0
aF0.0
aF0.0
aa(lp692
F0.0
aF0.0
aF0.0
aF0.0
aF0.0
aF0.0
aF0.0
aF0.0
aF0.0
aF0.0
aF0.0
aF0.0
aF0.0
aF0.0
aF0.0
aF0.0
aF0.0
aF0.0
aF0.0
aF0.0
aF0.0
aF0.0
aF0.0
aF0.0
aF0.0
aF0.0
aF0.0
aF0.0
aF0.0
aF0.0
aF0.0
aF0.0
aF0.0
aF0.0
aF0.0
aF0.0
aF0.0
aF0.0
aF0.0
aF0.0
aa(lp693
F0.0
aF0.0
aF0.0
aF0.0
aF0.0
aF0.0
aF0.0
aF0.0
aF0.0
aF0.0
aF0.7663182483789904
aF0.0
aF0.0
aF0.0
aF0.0
aF0.0
aF0.0
aF0.0
aF0.0
aF0.0
aF3.560406417583526
aF0.0
aF0.0
aF0.0
aF0.0
aF0.0
aF0.0
aF0.0
aF0.0
aF0.0
aF0.0
aF0.0
aF0.0
aF0.0
aF0.0
aF0.0
aF0.0
aF0.0
aF0.0
aF0.0
aa(lp694
F0.0
aF0.0
aF0.0
aF0.0
aF0.0
aF0.0
aF0.0
aF0.0
aF0.0
aF0.0
aF1.55379862544033
aF0.0
aF0.0
aF0.0
aF0.0
aF3.9416472428367233
aF0.0
aF0.0
aF0.0
aF0.0
aF0.0
aF0.0
aF0.0
aF0.0
aF0.0
aF0.0
aF0.0
aF0.0
aF0.0
aF0.0
aF0.0
aF0.0
aF0.0
aF0.0
aF0.0
aF0.0
aF0.0
aF0.0
aF0.0
aF0.0
aa(lp695
F0.0
aF0.0
aF0.0
aF0.0
aF0.0
aF0.0
aF0.0
aF0.0
aF0.0
aF0.0
aF0.0
aF0.0
aF0.0
aF0.0
aF0.0
aF0.0
aF0.0
aF0.0
aF0.0
aF0.0
aF0.0
aF0.0
aF0.0
aF0.0
aF0.0
aF0.0
aF0.0
aF0.0
aF0.0
aF0.0
aF0.0
aF0.0
aF0.0
aF0.0
aF0.0
aF0.0
aF0.0
aF0.0
aF0.0
aF0.0
aa(lp696
F0.0
aF0.0
aF0.0
aF0.0
aF0.0
aF0.0
aF0.0
aF0.0
aF0.0
aF0.0
aF0.0
aF0.0
aF0.0
aF0.0
aF0.0
aF8.033513012486642
aF0.0
aF0.0
aF0.0
aF0.0
aF0.0
aF0.0
aF0.0
aF0.0
aF0.0
aF0.0
aF0.0
aF0.0
aF0.0
aF0.0
aF0.0
aF0.0
aF0.0
aF0.0
aF0.0
aF0.0
aF0.0
aF0.0
aF0.0
aF0.0
aa(lp697
F0.0
aF0.0
aF0.0
aF0.0
aF0.0
aF0.0
aF0.0
aF0.0
aF0.0
aF0.0
aF0.0
aF0.0
aF0.0
aF0.0
aF0.0
aF6.515495751449665
aF0.0
aF0.0
aF0.0
aF0.0
aF0.0
aF0.0
aF0.0
aF0.0
aF0.0
aF0.0
aF0.0
aF0.0
aF0.0
aF0.0
aF0.0
aF0.0
aF0.0
aF0.0
aF0.0
aF0.0
aF0.0
aF0.0
aF0.0
aF0.0
aa(lp698
F0.0
aF0.0
aF0.0
aF0.0
aF0.0
aF0.0
aF0.0
aF0.0
aF0.0
aF0.0
aF0.0
aF0.0
aF0.0
aF0.0
aF0.0
aF0.0
aF0.0
aF0.0
aF0.0
aF0.0
aF0.0
aF0.0
aF0.0
aF0.0
aF0.0
aF0.0
aF0.0
aF0.0
aF0.0
aF0.0
aF0.0
aF0.0
aF0.0
aF0.0
aF0.0
aF0.0
aF0.0
aF0.0
aF0.0
aF0.0
aa(lp699
F0.0
aF0.0
aF0.0
aF0.0
aF0.0
aF0.0
aF0.0
aF0.0
aF0.0
aF0.0
aF0.0
aF0.0
aF0.0
aF0.0
aF0.0
aF0.0
aF0.0
aF0.0
aF0.0
aF0.0
aF0.0
aF0.0
aF0.0
aF0.0
aF0.0
aF0.0
aF0.0
aF0.0
aF0.0
aF0.0
aF0.0
aF0.0
aF0.0
aF0.0
aF0.0
aF0.0
aF0.0
aF0.0
aF0.0
aF0.0
aa(lp700
F0.0
aF0.0
aF0.0
aF0.0
aF0.0
aF0.0
aF0.0
aF0.0
aF0.0
aF0.0
aF0.0
aF0.0
aF0.0
aF0.0
aF0.0
aF0.0
aF0.0
aF0.0
aF0.0
aF0.0
aF0.0
aF0.0
aF0.0
aF0.0
aF0.0
aF0.0
aF0.0
aF0.0
aF0.0
aF8.69372628641921
aF0.0
aF0.0
aF0.0
aF0.0
aF0.0
aF0.0
aF0.0
aF0.0
aF0.0
aF0.0
aa(lp701
F0.0
aF0.0
aF0.0
aF0.0
aF0.0
aF0.0
aF0.0
aF0.0
aF0.0
aF0.0
aF0.0
aF0.0
aF0.0
aF0.0
aF0.0
aF0.0
aF0.0
aF0.0
aF0.0
aF0.0
aF0.0
aF0.0
aF0.0
aF0.0
aF0.0
aF0.0
aF0.0
aF0.0
aF0.0
aF0.0
aF0.0
aF0.0
aF0.0
aF0.0
aF0.0
aF0.0
aF0.0
aF0.0
aF0.0
aF0.0
aa(lp702
F0.0
aF0.0
aF0.0
aF0.0
aF0.0
aF0.0
aF0.0
aF0.0
aF0.0
aF0.0
aF0.0
aF0.0
aF0.0
aF0.0
aF0.0
aF0.0
aF0.0
aF0.0
aF0.0
aF0.0
aF0.0
aF0.0
aF0.0
aF0.0
aF0.0
aF0.0
aF0.0
aF0.0
aF0.0
aF7.917155067681643
aF0.0
aF0.0
aF0.0
aF0.0
aF0.0
aF0.0
aF0.0
aF0.0
aF0.0
aF0.0
aa(lp703
F0.0
aF0.0
aF0.0
aF0.0
aF0.0
aF0.0
aF0.0
aF0.0
aF0.0
aF0.0
aF0.0
aF0.0
aF0.0
aF0.0
aF0.0
aF0.0
aF0.0
aF0.0
aF0.0
aF0.0
aF0.0
aF0.0
aF0.0
aF0.0
aF0.0
aF0.0
aF0.0
aF0.0
aF0.0
aF0.0
aF0.0
aF0.0
aF6.5420253479238974
aF0.0
aF0.0
aF0.0
aF0.0
aF0.0
aF0.0
aF0.0
aa(lp704
F0.0
aF0.0
aF0.0
aF0.0
aF0.0
aF0.0
aF0.0
aF0.0
aF0.0
aF0.0
aF0.0
aF0.0
aF0.0
aF0.0
aF0.0
aF0.0
aF0.0
aF0.0
aF0.0
aF0.0
aF0.0
aF0.0
aF0.0
aF0.0
aF0.0
aF0.0
aF0.0
aF0.0
aF0.0
aF1.4527166088824752
aF0.0
aF0.0
aF0.0
aF2.2814993666254297
aF0.0
aF0.0
aF0.0
aF0.0
aF0.0
aF0.0
aa(lp705
F0.0
aF0.0
aF0.0
aF0.0
aF0.0
aF0.0
aF0.0
aF0.0
aF0.0
aF0.0
aF0.0
aF0.0
aF0.0
aF0.0
aF0.0
aF0.0
aF0.0
aF0.0
aF0.0
aF0.0
aF0.0
aF0.0
aF0.0
aF0.0
aF0.0
aF0.0
aF0.0
aF0.0
aF0.0
aF0.0
aF0.0
aF0.0
aF0.0
aF0.0
aF0.0
aF0.0
aF0.0
aF0.0
aF0.0
aF0.0
aa(lp706
F0.0
aF0.0
aF0.0
aF0.0
aF0.0
aF0.0
aF0.0
aF0.0
aF0.0
aF0.0
aF0.0
aF0.0
aF0.0
aF0.0
aF0.0
aF0.0
aF0.0
aF0.0
aF0.0
aF0.0
aF0.0
aF0.0
aF0.0
aF0.0
aF0.0
aF0.0
aF0.0
aF0.0
aF0.0
aF0.0
aF0.0
aF0.0
aF0.0
aF0.0
aF0.0
aF0.0
aF0.0
aF0.0
aF0.0
aF0.0
aa(lp707
F0.0
aF0.0
aF0.0
aF0.0
aF0.0
aF0.0
aF0.0
aF0.0
aF0.0
aF0.0
aF0.0
aF0.0
aF0.0
aF0.0
aF0.0
aF0.0
aF0.0
aF0.0
aF0.0
aF0.0
aF0.0
aF0.0
aF0.0
aF0.0
aF0.0
aF0.0
aF0.0
aF0.0
aF0.6898273662883321
aF0.0
aF0.0
aF0.0
aF4.4106920774360905
aF0.0
aF0.0
aF0.0
aF0.0
aF0.0
aF0.0
aF0.0
aa(lp708
F0.0
aF0.0
aF0.0
aF0.0
aF0.0
aF0.0
aF0.0
aF0.0
aF0.0
aF0.0
aF0.0
aF0.0
aF0.0
aF0.0
aF0.0
aF0.0
aF0.0
aF0.0
aF0.0
aF0.0
aF0.0
aF0.0
aF0.0
aF0.0
aF0.0
aF0.0
aF0.0
aF0.0
aF0.0
aF0.0
aF0.0
aF0.0
aF0.0
aF0.0
aF0.0
aF0.0
aF0.0
aF0.0
aF0.0
aF0.0
aa(lp709
F0.0
aF0.0
aF0.0
aF0.0
aF0.0
aF0.0
aF0.0
aF0.0
aF0.0
aF0.0
aF0.0
aF0.0
aF0.0
aF0.0
aF0.0
aF0.0
aF0.0
aF0.0
aF0.0
aF0.0
aF0.0
aF0.0
aF0.0
aF0.0
aF0.0
aF0.0
aF0.0
aF0.0
aF0.0
aF0.0
aF0.0
aF0.0
aF0.0
aF0.0
aF0.0
aF0.0
aF0.0
aF0.0
aF6.758513928905577
aF0.0
aatp710
.