((lp0
(lp1
c__builtin__
set
p2
((lp3
tp4
Rp5
ag2
((lp6
S'intelligence'
p7
aS'strong ai'
p8
aS'machine'
p9
aS'computer'
p10
aS'intelligent'
p11
aS'artificial intelligence'
p12
atp13
Rp14
aa(lp15
g2
((lp16
tp17
Rp18
ag2
((lp19
S'rational agent'
p20
aS'autonomous agent'
p21
aS'agent'
p22
aS'environment'
p23
aS'agent program'
p24
aS'intelligent agent'
p25
atp26
Rp27
aa(lp28
g2
((lp29
S'agent'
p30
aS'rational agent'
p31
atp32
Rp33
ag2
((lp34
S'agent refer'
p35
aS'goal state'
p36
aS'initial state'
p37
aS'space search'
p38
aS'current state'
p39
aS'state'
p40
aS'implicit state'
p41
aS'state space'
p42
atp43
Rp44
aa(lp45
g2
((lp46
S'state space'
p47
aS'goal state'
p48
aS'state'
p49
aS'initial state'
p50
atp51
Rp52
ag2
((lp53
S'search'
p54
aS'breadth first search'
p55
aS'search tree'
p56
aS'first node'
p57
aS'search strategy'
p58
aS'search space'
p59
aS'iterative deepening search'
p60
aS'search problem'
p61
aS'search algorithm'
p62
atp63
Rp64
aa(lp65
g2
((lp66
S'search'
p67
aS'search algorithm'
p68
aS'breadth first search'
p69
aS'search space'
p70
aS'search tree'
p71
atp72
Rp73
ag2
((lp74
S'node'
p75
aS'greedy search'
p76
aS'forward search'
p77
aS'first search'
p78
aS'node n'
p79
aS'cost search'
p80
aS'goal node'
p81
aS'bidirectional search'
p82
atp83
Rp84
aa(lp85
g2
((lp86
S'node'
p87
aS'search space'
p88
aS'breadth first search'
p89
aS'search tree'
p90
aS'first search'
p91
aS'search'
p92
aS'iterative deepening search'
p93
aS'goal node'
p94
aS'bidirectional search'
p95
atp96
Rp97
ag2
((lp98
S'start node'
p99
aS'local search'
p100
aS'depth first search'
p101
aS'algorithm'
p102
atp103
Rp104
aa(lp105
g2
((lp106
S'node'
p107
aS'search'
p108
aS'search tree'
p109
aS'node n'
p110
aS'cost search'
p111
aS'bidirectional search'
p112
atp113
Rp114
ag2
((lp115
S'game'
p116
aS'agent search'
p117
aS'game tree'
p118
atp119
Rp120
aa(lp121
g2
((lp122
S'node'
p123
aS'search'
p124
aS'game tree'
p125
aS'game'
p126
aS'search tree'
p127
atp128
Rp129
ag2
((lp130
S'min node'
p131
aS'node ordering'
p132
aS'max node'
p133
aS'minimax search'
p134
aS'ply search'
p135
atp136
Rp137
aa(lp138
g2
((lp139
tp140
Rp141
ag2
((lp142
S'current assignment'
p143
aS'constraint satisfaction'
p144
aS'assignment'
p145
aS'constraint propagation'
p146
aS'constraint'
p147
atp148
Rp149
aa(lp150
g2
((lp151
S'constraint satisfaction'
p152
aS'constraint propagation'
p153
aS'constraint'
p154
atp155
Rp156
ag2
((lp157
tp158
Rp159
aa(lp160
g2
((lp161
tp162
Rp163
ag2
((lp164
S'proposition'
p165
aS'knowledge'
p166
aS'valid proposition'
p167
aS'compound proposition'
p168
aS'propositional logic'
p169
aS'knowledge representation'
p170
aS'proposition p'
p171
atp172
Rp173
aa(lp174
g2
((lp175
tp176
Rp177
ag2
((lp178
tp179
Rp180
aa(lp181
g2
((lp182
tp183
Rp184
ag2
((lp185
tp186
Rp187
aa(lp188
g2
((lp189
tp190
Rp191
ag2
((lp192
S'horn sentence'
p193
atp194
Rp195
aa(lp196
g2
((lp197
tp198
Rp199
ag2
((lp200
tp201
Rp202
aa(lp203
g2
((lp204
tp205
Rp206
ag2
((lp207
S'rule base'
p208
aS'third rule'
p209
aS'rule'
p210
atp211
Rp212
aa(lp213
g2
((lp214
S'goal state'
p215
aS'rule base'
p216
aS'rule'
p217
atp218
Rp219
ag2
((lp220
tp221
Rp222
aa(lp223
g2
((lp224
tp225
Rp226
ag2
((lp227
tp228
Rp229
aa(lp230
g2
((lp231
tp232
Rp233
ag2
((lp234
tp235
Rp236
aa(lp237
g2
((lp238
tp239
Rp240
ag2
((lp241
tp242
Rp243
aa(lp244
g2
((lp245
S'state space'
p246
aS'goal state'
p247
aS'state'
p248
aS'initial state'
p249
atp250
Rp251
ag2
((lp252
S'action'
p253
aS'action go'
p254
aS'action pick'
p255
aS'successor state'
p256
atp257
Rp258
aa(lp259
g2
((lp260
S'search'
p261
aS'forward search'
p262
aS'goal state'
p263
aS'initial state'
p264
aS'state space'
p265
aS'current state'
p266
aS'state'
p267
aS'action'
p268
aS'search space'
p269
atp270
Rp271
ag2
((lp272
S'sub goal'
p273
aS'current goal'
p274
aS'goal'
p275
aS'backward search'
p276
atp277
Rp278
aa(lp279
g2
((lp280
tp281
Rp282
ag2
((lp283
S'planning algorithm'
p284
aS'planning problem'
p285
aS'partial plan'
p286
aS'planning'
p287
aS'plan'
p288
aS'initial plan'
p289
atp290
Rp291
aa(lp292
g2
((lp293
S'action'
p294
atp295
Rp296
ag2
((lp297
S'maintenance action'
p298
aS'action level'
p299
aS'graph'
p300
aS'graph expansion'
p301
aS'planning graph'
p302
aS'graph plan'
p303
atp304
Rp305
aa(lp306
g2
((lp307
S'knowledge'
p308
aS'rule'
p309
atp310
Rp311
ag2
((lp312
S'expert system'
p313
aS'expert'
p314
aS'system'
p315
aS'human expert'
p316
aS'knowledge acquisition'
p317
aS'knowledge base'
p318
atp319
Rp320
aa(lp321
g2
((lp322
tp323
Rp324
ag2
((lp325
tp326
Rp327
aa(lp328
g2
((lp329
S'rule'
p330
atp331
Rp332
ag2
((lp333
S'certainty'
p334
aS'certainty factor'
p335
atp336
Rp337
aa(lp338
g2
((lp339
tp340
Rp341
ag2
((lp342
S'joint probability'
p343
aS'probability theory'
p344
atp345
Rp346
aa(lp347
g2
((lp348
tp349
Rp350
ag2
((lp351
S'probability of alarm'
p352
aS'probability of john'
p353
aS'probability'
p354
aS'priori probability'
p355
aS'probability of b'
p356
aS'conditional probability'
p357
atp358
Rp359
aa(lp360
g2
((lp361
tp362
Rp363
ag2
((lp364
S'set theory'
p365
aS'set'
p366
aS'crisp set'
p367
aS'set tall'
p368
aS'set medium'
p369
atp370
Rp371
aa(lp372
g2
((lp373
S'set'
p374
aS'crisp set'
p375
aS'set tall'
p376
atp377
Rp378
ag2
((lp379
S'membership function'
p380
aS'fuzzy set'
p381
aS'fuzzy set tall'
p382
aS'membership'
p383
aS'membership value'
p384
aS'fuzzy'
p385
aS'fuzzy logic'
p386
atp387
Rp388
aa(lp389
g2
((lp390
tp391
Rp392
ag2
((lp393
tp394
Rp395
aa(lp396
g2
((lp397
S'set'
p398
atp399
Rp400
ag2
((lp401
S'training'
p402
aS'hypothesis space'
p403
aS'hypothesis'
p404
aS'set of training'
p405
aS'good hypothesis'
p406
aS'possible hypothesis'
p407
aS'training example'
p408
aS'set of hypothesis'
p409
atp410
Rp411
aa(lp412
g2
((lp413
tp414
Rp415
ag2
((lp416
S'decision attribute'
p417
aS'attribute'
p418
aS'decision'
p419
aS'target attribute'
p420
atp421
Rp422
aa(lp423
g2
((lp424
S'attribute'
p425
aS'set'
p426
atp427
Rp428
ag2
((lp429
S'training set'
p430
aS'test set'
p431
aS'rule set'
p432
aS'decision tree'
p433
aS'validation set'
p434
aS'tree'
p435
aS'data set'
p436
atp437
Rp438
aa(lp439
g2
((lp440
tp441
Rp442
ag2
((lp443
S'linear unit'
p444
aS'xor function'
p445
aS'linear threshold unit'
p446
aS'threshold unit'
p447
atp448
Rp449
aa(lp450
g2
((lp451
tp452
Rp453
ag2
((lp454
S'function'
p455
aS'network'
p456
aS'error function'
p457
aS'output unit'
p458
aS'neural network'
p459
aS'sigmoid unit'
p460
aS'sigmoid function'
p461
aS'sigmoidal function'
p462
aS'hidden unit'
p463
aS'unit'
p464
atp465
Rp466
aa(lp467
g2
((lp468
S'hypothesis space'
p469
aS'possible hypothesis'
p470
aS'hypothesis'
p471
aS'probability'
p472
atp473
Rp474
ag2
((lp475
S'prior probability'
p476
aS'different hypothesis'
p477
aS'map hypothesis'
p478
aS'posterior probability'
p479
atp480
Rp481
aa(lp482
g2
((lp483
tp484
Rp485
ag2
((lp486
S'natural language processing'
p487
aS'language processing'
p488
aS'language'
p489
aS'natural language'
p490
atp491
Rp492
aa(lp493
g2
((lp494
tp495
Rp496
ag2
((lp497
S'sentence'
p498
atp499
Rp500
aa(lp501
(dp502
a(dp503
a(dp504
g31
(F10.277346536194475
I5
tp505
sg30
(F10.277346536194475
I99
tp506
sa(dp507
g48
(F10.035481360151094
I12
tp508
sg50
(F10.035481360151094
I16
tp509
sg47
(F10.035481360151094
I34
tp510
sg49
(F10.035481360151094
I108
tp511
sa(dp512
g67
(F11.321696228181226
I145
tp513
sg69
(F11.321696228181226
I11
tp514
sg71
(F11.321696228181226
I11
tp515
sg70
(F11.321696228181226
I5
tp516
sg68
(F11.321696228181226
I11
tp517
sa(dp518
g87
(F8.152855626366444
I50
tp519
sg92
(F8.440276995702652
I91
tp520
sg89
(F8.440276995702652
I6
tp521
sg90
(F8.440276995702652
I6
tp522
sg91
(F8.440276995702652
I25
tp523
sg88
(F8.440276995702652
I7
tp524
sg93
(F8.440276995702652
I7
tp525
sg94
(F8.152855626366444
I6
tp526
sg95
(F8.440276995702652
I6
tp527
sa(dp528
g107
(F8.246547115472735
I66
tp529
sg108
(F8.048324937716659
I80
tp530
sg109
(F8.048324937716659
I18
tp531
sg110
(F8.246547115472735
I6
tp532
sg111
(F8.048324937716659
I5
tp533
sg112
(F8.048324937716659
I5
tp534
sa(dp535
g123
(F10.459684948210867
I144
tp536
sg124
(F7.0644346711364125
I80
tp537
sg127
(F7.0644346711364125
I12
tp538
sg126
(F7.707556234189125
I41
tp539
sg125
(F7.707556234189125
I19
tp540
sa(dp541
a(dp542
g152
(F7.0705120265392765
I23
tp543
sg153
(F7.0705120265392765
I14
tp544
sg154
(F7.0705120265392765
I59
tp545
sa(dp546
a(dp547
a(dp548
a(dp549
a(dp550
a(dp551
a(dp552
g216
(F15.393470702284223
I7
tp553
sg215
(F7.301528718602831
I6
tp554
sg217
(F15.393470702284223
I98
tp555
sa(dp556
a(dp557
a(dp558
a(dp559
g246
(F9.37128773679261
I14
tp560
sg247
(F9.37128773679261
I8
tp561
sg249
(F9.37128773679261
I21
tp562
sg248
(F9.37128773679261
I120
tp563
sa(dp564
g261
(F7.099397286531538
I65
tp565
sg262
(F7.099397286531538
I12
tp566
sg263
(F9.036861992500372
I24
tp567
sg264
(F9.036861992500372
I31
tp568
sg265
(F9.036861992500372
I8
tp569
sg266
(F9.036861992500372
I12
tp570
sg267
(F9.036861992500372
I134
tp571
sg268
(F10.489319275437618
I83
tp572
sg269
(F7.099397286531538
I5
tp573
sa(dp574
a(dp575
g294
(F9.447415048637474
I101
tp576
sa(dp577
g308
(F7.160984969420651
I46
tp578
sg309
(F13.927153591356422
I60
tp579
sa(dp580
a(dp581
g330
(F8.033513012486642
I58
tp582
sa(dp583
a(dp584
a(dp585
a(dp586
g374
(F8.69372628641921
I111
tp587
sg376
(F8.69372628641921
I9
tp588
sg375
(F8.69372628641921
I15
tp589
sa(dp590
a(dp591
g398
(F7.917155067681643
I100
tp592
sa(dp593
a(dp594
g426
(F8.526814878223226
I92
tp595
sg425
(F7.708540914074161
I28
tp596
sa(dp597
a(dp598
a(dp599
g472
(F9.197698217177761
I57
tp600
sg469
(F8.40131824273541
I13
tp601
sg471
(F8.40131824273541
I115
tp602
sg470
(F8.40131824273541
I5
tp603
sa(dp604
a(dp605
a(lp606
(lp607
F0.0
aF0.0
aF0.0
aF0.0
aF0.0
aF0.0
aF0.0
aF0.0
aF0.0
aF0.0
aF0.0
aF0.0
aF0.0
aF0.0
aF0.0
aF0.0
aF0.0
aF0.0
aF0.0
aF0.0
aF0.0
aF0.0
aF0.0
aF0.0
aF0.0
aF0.0
aF0.0
aF0.0
aF0.0
aF0.0
aF0.0
aF0.0
aF0.0
aF0.0
aF0.0
aF0.0
aF0.0
aF0.0
aF0.0
aF0.0
aa(lp608
F0.0
aF0.0
aF0.0
aF0.0
aF0.0
aF0.0
aF0.0
aF0.0
aF0.0
aF0.0
aF0.0
aF0.0
aF0.0
aF0.0
aF0.0
aF0.0
aF0.0
aF0.0
aF0.0
aF0.0
aF0.0
aF0.0
aF0.0
aF0.0
aF0.0
aF0.0
aF0.0
aF0.0
aF0.0
aF0.0
aF0.0
aF0.0
aF0.0
aF0.0
aF0.0
aF0.0
aF0.0
aF0.0
aF0.0
aF0.0
aa(lp609
F0.0
aF10.277346536194475
aF0.0
aF0.0
aF0.0
aF0.0
aF0.0
aF0.0
aF0.0
aF0.0
aF0.0
aF0.0
aF0.0
aF0.0
aF0.0
aF0.0
aF0.0
aF0.0
aF0.0
aF0.0
aF0.0
aF0.0
aF0.0
aF0.0
aF0.0
aF0.0
aF0.0
aF0.0
aF0.0
aF0.0
aF0.0
aF0.0
aF0.0
aF0.0
aF0.0
aF0.0
aF0.0
aF0.0
aF0.0
aF0.0
aa(lp610
F0.0
aF0.0
aF10.035481360151094
aF0.0
aF0.0
aF0.0
aF0.0
aF0.0
aF0.0
aF0.0
aF0.0
aF0.0
aF0.0
aF0.0
aF0.0
aF0.0
aF0.0
aF0.0
aF0.0
aF0.0
aF0.0
aF0.0
aF0.0
aF0.0
aF0.0
aF0.0
aF0.0
aF0.0
aF0.0
aF0.0
aF0.0
aF0.0
aF0.0
aF0.0
aF0.0
aF0.0
aF0.0
aF0.0
aF0.0
aF0.0
aa(lp611
F0.0
aF0.0
aF0.0
aF11.321696228181224
aF0.0
aF0.0
aF0.0
aF0.0
aF0.0
aF0.0
aF0.0
aF0.0
aF0.0
aF0.0
aF0.0
aF0.0
aF0.0
aF0.0
aF0.0
aF0.0
aF0.0
aF0.0
aF0.0
aF0.0
aF0.0
aF0.0
aF0.0
aF0.0
aF0.0
aF0.0
aF0.0
aF0.0
aF0.0
aF0.0
aF0.0
aF0.0
aF0.0
aF0.0
aF0.0
aF0.0
aa(lp612
F0.0
aF0.0
aF0.0
aF2.6893039447091787
aF1.5647244051052354
aF0.0
aF0.0
aF0.0
aF0.0
aF0.0
aF0.0
aF0.0
aF0.0
aF0.0
aF0.0
aF0.0
aF0.0
aF0.0
aF0.0
aF0.0
aF0.0
aF0.0
aF0.0
aF0.0
aF0.0
aF0.0
aF0.0
aF0.0
aF0.0
aF0.0
aF0.0
aF0.0
aF0.0
aF0.0
aF0.0
aF0.0
aF0.0
aF0.0
aF0.0
aF0.0
aa(lp613
F0.0
aF0.0
aF0.0
aF1.4606219331411714
aF2.4971653395970494
aF0.0
aF0.0
aF0.0
aF0.0
aF0.0
aF0.0
aF0.0
aF0.0
aF0.0
aF0.0
aF0.0
aF0.0
aF0.0
aF0.0
aF0.0
aF0.0
aF0.0
aF0.0
aF0.0
aF0.0
aF0.0
aF0.0
aF0.0
aF0.0
aF0.0
aF0.0
aF0.0
aF0.0
aF0.0
aF0.0
aF0.0
aF0.0
aF0.0
aF0.0
aF0.0
aa(lp614
F0.0
aF0.0
aF0.0
aF0.8782810672223648
aF1.0176990760421385
aF0.0
aF0.6249369919612805
aF0.0
aF0.0
aF0.0
aF0.0
aF0.0
aF0.0
aF0.0
aF0.0
aF0.0
aF0.0
aF0.0
aF0.0
aF0.0
aF0.0
aF0.0
aF0.0
aF0.0
aF0.0
aF0.0
aF0.0
aF0.0
aF0.0
aF0.0
aF0.0
aF0.0
aF0.0
aF0.0
aF0.0
aF0.0
aF0.0
aF0.0
aF0.0
aF0.0
aa(lp615
F0.0
aF0.0
aF0.0
aF0.0
aF0.0
aF0.0
aF0.0
aF0.0
aF0.0
aF0.0
aF0.0
aF0.0
aF0.0
aF0.0
aF0.0
aF0.0
aF0.0
aF0.0
aF0.0
aF0.0
aF0.0
aF0.0
aF0.0
aF0.0
aF0.0
aF0.0
aF0.0
aF0.0
aF0.0
aF0.0
aF0.0
aF0.0
aF0.0
aF0.0
aF0.0
aF0.0
aF0.0
aF0.0
aF0.0
aF0.0
aa(lp616
F0.0
aF0.0
aF0.0
aF0.0
aF0.0
aF0.0
aF0.0
aF0.0
aF7.070512026539276
aF0.0
aF0.0
aF0.0
aF0.0
aF0.0
aF0.0
aF0.0
aF0.0
aF0.0
aF0.0
aF0.0
aF0.0
aF0.0
aF0.0
aF0.0
aF0.0
aF0.0
aF0.0
aF0.0
aF0.0
aF0.0
aF0.0
aF0.0
aF0.0
aF0.0
aF0.0
aF0.0
aF0.0
aF0.0
aF0.0
aF0.0
aa(lp617
F0.0
aF0.0
aF0.0
aF0.0
aF0.0
aF0.0
aF0.0
aF0.0
aF0.0
aF0.0
aF0.0
aF0.0
aF0.0
aF0.0
aF0.0
aF0.0
aF0.0
aF0.0
aF0.0
aF0.0
aF0.0
aF0.0
aF0.0
aF0.0
aF0.0
aF0.0
aF0.0
aF0.0
aF0.0
aF0.0
aF0.0
aF0.0
aF0.0
aF0.0
aF0.0
aF0.0
aF0.0
aF0.0
aF0.0
aF0.0
aa(lp618
F0.0
aF0.0
aF0.0
aF0.0
aF0.0
aF0.0
aF0.0
aF0.0
aF0.0
aF0.0
aF0.0
aF0.0
aF0.0
aF0.0
aF0.0
aF0.0
aF0.0
aF0.0
aF0.0
aF0.0
aF0.0
aF0.0
aF0.0
aF0.0
aF0.0
aF0.0
aF0.0
aF0.0
aF0.0
aF0.0
aF0.0
aF0.0
aF0.0
aF0.0
aF0.0
aF0.0
aF0.0
aF0.0
aF0.0
aF0.0
aa(lp619
F0.0
aF0.0
aF0.0
aF0.0
aF0.0
aF0.0
aF0.0
aF0.0
aF0.0
aF0.0
aF0.0
aF0.0
aF0.0
aF0.0
aF0.0
aF0.0
aF0.0
aF0.0
aF0.0
aF0.0
aF0.0
aF0.0
aF0.0
aF0.0
aF0.0
aF0.0
aF0.0
aF0.0
aF0.0
aF0.0
aF0.0
aF0.0
aF0.0
aF0.0
aF0.0
aF0.0
aF0.0
aF0.0
aF0.0
aF0.0
aa(lp620
F0.0
aF0.0
aF0.0
aF0.0
aF0.0
aF0.0
aF0.0
aF0.0
aF0.0
aF0.0
aF0.0
aF0.0
aF0.0
aF0.0
aF0.0
aF0.0
aF0.0
aF0.0
aF0.0
aF0.0
aF0.0
aF0.0
aF0.0
aF0.0
aF0.0
aF0.0
aF0.0
aF0.0
aF0.0
aF0.0
aF0.0
aF0.0
aF0.0
aF0.0
aF0.0
aF0.0
aF0.0
aF0.0
aF0.0
aF0.0
aa(lp621
F0.0
aF0.0
aF0.0
aF0.0
aF0.0
aF0.0
aF0.0
aF0.0
aF0.0
aF0.0
aF0.0
aF0.0
aF0.0
aF0.0
aF0.0
aF0.0
aF0.0
aF0.0
aF0.0
aF0.0
aF0.0
aF0.0
aF0.0
aF0.0
aF0.0
aF0.0
aF0.0
aF0.0
aF0.0
aF0.0
aF0.0
aF0.0
aF0.0
aF0.0
aF0.0
aF0.0
aF0.0
aF0.0
aF0.0
aF0.0
aa(lp622
F0.0
aF0.0
aF0.0
aF0.0
aF0.0
aF0.0
aF0.0
aF0.0
aF0.0
aF0.0
aF0.0
aF0.0
aF0.0
aF0.0
aF0.0
aF0.0
aF0.0
aF0.0
aF0.0
aF0.0
aF0.0
aF0.0
aF0.0
aF0.0
aF0.0
aF0.0
aF0.0
aF0.0
aF0.0
aF0.0
aF0.0
aF0.0
aF0.0
aF0.0
aF0.0
aF0.0
aF0.0
aF0.0
aF0.0
aF0.0
aa(lp623
F0.0
aF0.0
aF0.1315590760108618
aF0.0
aF0.0
aF0.0
aF0.0
aF0.0
aF0.0
aF0.0
aF0.0
aF0.0
aF0.0
aF0.0
aF0.0
aF9.707594136575636
aF0.0
aF0.0
aF0.0
aF0.0
aF0.0
aF0.0
aF0.0
aF0.0
aF0.0
aF0.0
aF0.0
aF0.0
aF0.0
aF0.0
aF0.0
aF0.0
aF0.0
aF0.0
aF0.0
aF0.0
aF0.0
aF0.0
aF0.0
aF0.0
aa(lp624
F0.0
aF0.0
aF0.0
aF0.0
aF0.0
aF0.0
aF0.0
aF0.0
aF0.0
aF0.0
aF0.0
aF0.0
aF0.0
aF0.0
aF0.0
aF0.0
aF0.0
aF0.0
aF0.0
aF0.0
aF0.0
aF0.0
aF0.0
aF0.0
aF0.0
aF0.0
aF0.0
aF0.0
aF0.0
aF0.0
aF0.0
aF0.0
aF0.0
aF0.0
aF0.0
aF0.0
aF0.0
aF0.0
aF0.0
aF0.0
aa(lp625
F0.0
aF0.0
aF0.0
aF0.0
aF0.0
aF0.0
aF0.0
aF0.0
aF0.0
aF0.0
aF0.0
aF0.0
aF0.0
aF0.0
aF0.0
aF0.0
aF0.0
aF0.0
aF0.0
aF0.0
aF0.0
aF0.0
aF0.0
aF0.0
aF0.0
aF0.0
aF0.0
aF0.0
aF0.0
aF0.0
aF0.0
aF0.0
aF0.0
aF0.0
aF0.0
aF0.0
aF0.0
aF0.0
aF0.0
aF0.0
aa(lp626
F0.0
aF0.0
aF0.0
aF0.0
aF0.0
aF0.0
aF0.0
aF0.0
aF0.0
aF0.0
aF0.0
aF0.0
aF0.0
aF0.0
aF0.0
aF0.0
aF0.0
aF0.0
aF0.0
aF0.0
aF0.0
aF0.0
aF0.0
aF0.0
aF0.0
aF0.0
aF0.0
aF0.0
aF0.0
aF0.0
aF0.0
aF0.0
aF0.0
aF0.0
aF0.0
aF0.0
aF0.0
aF0.0
aF0.0
aF0.0
aa(lp627
F0.0
aF0.0
aF9.37128773679261
aF0.0
aF0.0
aF0.0
aF0.0
aF0.0
aF0.0
aF0.0
aF0.0
aF0.0
aF0.0
aF0.0
aF0.0
aF0.0
aF0.0
aF0.0
aF0.0
aF0.0
aF0.0
aF0.0
aF0.0
aF0.0
aF0.0
aF0.0
aF0.0
aF0.0
aF0.0
aF0.0
aF0.0
aF0.0
aF0.0
aF0.0
aF0.0
aF0.0
aF0.0
aF0.0
aF0.0
aF0.0
aa(lp628
F0.0
aF0.0
aF2.805561729697828
aF0.29528093289198315
aF0.02530979424788427
aF0.0
aF0.0
aF0.0
aF0.0
aF0.0
aF0.0
aF0.0
aF0.0
aF0.0
aF0.0
aF0.0
aF0.0
aF0.0
aF0.0
aF0.0
aF0.25864928694632267
aF0.0
aF0.0
aF0.0
aF0.0
aF0.0
aF0.0
aF0.0
aF0.0
aF0.0
aF0.0
aF0.0
aF0.0
aF0.0
aF0.0
aF0.0
aF0.0
aF0.0
aF0.0
aF0.0
aa(lp629
F0.0
aF0.0
aF0.0
aF0.0
aF0.0
aF0.0
aF0.0
aF0.0
aF0.0
aF0.0
aF0.0
aF0.0
aF0.0
aF0.0
aF0.0
aF0.0
aF0.0
aF0.0
aF0.0
aF0.0
aF0.0
aF0.0
aF0.0
aF0.0
aF0.0
aF0.0
aF0.0
aF0.0
aF0.0
aF0.0
aF0.0
aF0.0
aF0.0
aF0.0
aF0.0
aF0.0
aF0.0
aF0.0
aF0.0
aF0.0
aa(lp630
F0.0
aF0.0
aF0.0
aF0.0
aF0.0
aF0.0
aF0.0
aF0.0
aF0.0
aF0.0
aF0.0
aF0.0
aF0.0
aF0.0
aF0.0
aF0.0
aF0.0
aF0.0
aF0.0
aF0.0
aF9.447415048637474
aF0.0
aF0.0
aF0.0
aF0.0
aF0.0
aF0.0
aF0.0
aF0.0
aF0.0
aF0.0
aF0.0
aF0.0
aF0.0
aF0.0
aF0.0
aF0.0
aF0.0
aF0.0
aF0.0
aa(lp631
F0.0
aF0.0
aF0.0
aF0.0
aF0.0
aF0.0
aF0.0
aF0.0
aF0.0
aF0.0
aF1.55379862544033
aF0.0
aF0.0
aF0.0
aF0.0
aF3.9416472428367233
aF0.0
aF0.0
aF0.0
aF0.0
aF0.0
aF0.0
aF0.0
aF0.0
aF0.0
aF0.0
aF0.0
aF0.0
aF0.0
aF0.0
aF0.0
aF0.0
aF0.0
aF0.0
aF0.0
aF0.0
aF0.0
aF0.0
aF0.0
aF0.0
aa(lp632
F0.0
aF0.0
aF0.0
aF0.0
aF0.0
aF0.0
aF0.0
aF0.0
aF0.0
aF0.0
aF0.0
aF0.0
aF0.0
aF0.0
aF0.0
aF0.0
aF0.0
aF0.0
aF0.0
aF0.0
aF0.0
aF0.0
aF0.0
aF0.0
aF0.0
aF0.0
aF0.0
aF0.0
aF0.0
aF0.0
aF0.0
aF0.0
aF0.0
aF0.0
aF0.0
aF0.0
aF0.0
aF0.0
aF0.0
aF0.0
aa(lp633
F0.0
aF0.0
aF0.0
aF0.0
aF0.0
aF0.0
aF0.0
aF0.0
aF0.0
aF0.0
aF0.0
aF0.0
aF0.0
aF0.0
aF0.0
aF8.033513012486642
aF0.0
aF0.0
aF0.0
aF0.0
aF0.0
aF0.0
aF0.0
aF0.0
aF0.0
aF0.0
aF0.0
aF0.0
aF0.0
aF0.0
aF0.0
aF0.0
aF0.0
aF0.0
aF0.0
aF0.0
aF0.0
aF0.0
aF0.0
aF0.0
aa(lp634
F0.0
aF0.0
aF0.0
aF0.0
aF0.0
aF0.0
aF0.0
aF0.0
aF0.0
aF0.0
aF0.0
aF0.0
aF0.0
aF0.0
aF0.0
aF0.0
aF0.0
aF0.0
aF0.0
aF0.0
aF0.0
aF0.0
aF0.0
aF0.0
aF0.0
aF0.0
aF0.0
aF0.0
aF0.0
aF0.0
aF0.0
aF0.0
aF0.0
aF0.0
aF0.0
aF0.0
aF0.0
aF0.0
aF0.0
aF0.0
aa(lp635
F0.0
aF0.0
aF0.0
aF0.0
aF0.0
aF0.0
aF0.0
aF0.0
aF0.0
aF0.0
aF0.0
aF0.0
aF0.0
aF0.0
aF0.0
aF0.0
aF0.0
aF0.0
aF0.0
aF0.0
aF0.0
aF0.0
aF0.0
aF0.0
aF0.0
aF0.0
aF0.0
aF0.0
aF0.0
aF0.0
aF0.0
aF0.0
aF0.0
aF0.0
aF0.0
aF0.0
aF0.0
aF0.0
aF0.0
aF0.0
aa(lp636
F0.0
aF0.0
aF0.0
aF0.0
aF0.0
aF0.0
aF0.0
aF0.0
aF0.0
aF0.0
aF0.0
aF0.0
aF0.0
aF0.0
aF0.0
aF0.0
aF0.0
aF0.0
aF0.0
aF0.0
aF0.0
aF0.0
aF0.0
aF0.0
aF0.0
aF0.0
aF0.0
aF0.0
aF0.0
aF0.0
aF0.0
aF0.0
aF0.0
aF0.0
aF0.0
aF0.0
aF0.0
aF0.0
aF0.0
aF0.0
aa(lp637
F0.0
aF0.0
aF0.0
aF0.0
aF0.0
aF0.0
aF0.0
aF0.0
aF0.0
aF0.0
aF0.0
aF0.0
aF0.0
aF0.0
aF0.0
aF0.0
aF0.0
aF0.0
aF0.0
aF0.0
aF0.0
aF0.0
aF0.0
aF0.0
aF0.0
aF0.0
aF0.0
aF0.0
aF0.0
aF8.69372628641921
aF0.0
aF0.0
aF0.0
aF0.0
aF0.0
aF0.0
aF0.0
aF0.0
aF0.0
aF0.0
aa(lp638
F0.0
aF0.0
aF0.0
aF0.0
aF0.0
aF0.0
aF0.0
aF0.0
aF0.0
aF0.0
aF0.0
aF0.0
aF0.0
aF0.0
aF0.0
aF0.0
aF0.0
aF0.0
aF0.0
aF0.0
aF0.0
aF0.0
aF0.0
aF0.0
aF0.0
aF0.0
aF0.0
aF0.0
aF0.0
aF0.0
aF0.0
aF0.0
aF0.0
aF0.0
aF0.0
aF0.0
aF0.0
aF0.0
aF0.0
aF0.0
aa(lp639
F0.0
aF0.0
aF0.0
aF0.0
aF0.0
aF0.0
aF0.0
aF0.0
aF0.0
aF0.0
aF0.0
aF0.0
aF0.0
aF0.0
aF0.0
aF0.0
aF0.0
aF0.0
aF0.0
aF0.0
aF0.0
aF0.0
aF0.0
aF0.0
aF0.0
aF0.0
aF0.0
aF0.0
aF0.0
aF7.917155067681643
aF0.0
aF0.0
aF0.0
aF0.0
aF0.0
aF0.0
aF0.0
aF0.0
aF0.0
aF0.0
aa(lp640
F0.0
aF0.0
aF0.0
aF0.0
aF0.0
aF0.0
aF0.0
aF0.0
aF0.0
aF0.0
aF0.0
aF0.0
aF0.0
aF0.0
aF0.0
aF0.0
aF0.0
aF0.0
aF0.0
aF0.0
aF0.0
aF0.0
aF0.0
aF0.0
aF0.0
aF0.0
aF0.0
aF0.0
aF0.0
aF0.0
aF0.0
aF0.0
aF0.0
aF0.0
aF0.0
aF0.0
aF0.0
aF0.0
aF0.0
aF0.0
aa(lp641
F0.0
aF0.0
aF0.0
aF0.0
aF0.0
aF0.0
aF0.0
aF0.0
aF0.0
aF0.0
aF0.0
aF0.0
aF0.0
aF0.0
aF0.0
aF0.0
aF0.0
aF0.0
aF0.0
aF0.0
aF0.0
aF0.0
aF0.0
aF0.0
aF0.0
aF0.0
aF0.0
aF0.0
aF0.0
aF3.26861236998557
aF0.0
aF0.0
aF0.0
aF0.8993297733086522
aF0.0
aF0.0
aF0.0
aF0.0
aF0.0
aF0.0
aa(lp642
F0.0
aF0.0
aF0.0
aF0.0
aF0.0
aF0.0
aF0.0
aF0.0
aF0.0
aF0.0
aF0.0
aF0.0
aF0.0
aF0.0
aF0.0
aF0.0
aF0.0
aF0.0
aF0.0
aF0.0
aF0.0
aF0.0
aF0.0
aF0.0
aF0.0
aF0.0
aF0.0
aF0.0
aF0.0
aF0.0
aF0.0
aF0.0
aF0.0
aF0.0
aF0.0
aF0.0
aF0.0
aF0.0
aF0.0
aF0.0
aa(lp643
F0.0
aF0.0
aF0.0
aF0.0
aF0.0
aF0.0
aF0.0
aF0.0
aF0.0
aF0.0
aF0.0
aF0.0
aF0.0
aF0.0
aF0.0
aF0.0
aF0.0
aF0.0
aF0.0
aF0.0
aF0.0
aF0.0
aF0.0
aF0.0
aF0.0
aF0.0
aF0.0
aF0.0
aF0.0
aF0.0
aF0.0
aF0.0
aF0.0
aF0.0
aF0.0
aF0.0
aF0.0
aF0.0
aF0.0
aF0.0
aa(lp644
F0.0
aF0.0
aF0.0
aF0.0
aF0.0
aF0.0
aF0.0
aF0.0
aF0.0
aF0.0
aF0.0
aF0.0
aF0.0
aF0.0
aF0.0
aF0.0
aF0.0
aF0.0
aF0.0
aF0.0
aF0.0
aF0.0
aF0.0
aF0.0
aF0.0
aF0.0
aF0.0
aF0.0
aF0.6898273662883321
aF0.0
aF0.0
aF0.0
aF4.4106920774360905
aF0.0
aF0.0
aF0.0
aF0.0
aF0.0
aF0.0
aF0.0
aa(lp645
F0.0
aF0.0
aF0.0
aF0.0
aF0.0
aF0.0
aF0.0
aF0.0
aF0.0
aF0.0
aF0.0
aF0.0
aF0.0
aF0.0
aF0.0
aF0.0
aF0.0
aF0.0
aF0.0
aF0.0
aF0.0
aF0.0
aF0.0
aF0.0
aF0.0
aF0.0
aF0.0
aF0.0
aF0.0
aF0.0
aF0.0
aF0.0
aF0.0
aF0.0
aF0.0
aF0.0
aF0.0
aF0.0
aF0.0
aF0.0
aa(lp646
F0.0
aF0.0
aF0.0
aF0.0
aF0.0
aF0.0
aF0.0
aF0.0
aF0.0
aF0.0
aF0.0
aF0.0
aF0.0
aF0.0
aF0.0
aF0.0
aF0.0
aF0.0
aF0.0
aF0.0
aF0.0
aF0.0
aF0.0
aF0.0
aF0.0
aF0.0
aF0.0
aF0.0
aF0.0
aF0.0
aF0.0
aF0.0
aF0.0
aF0.0
aF0.0
aF0.0
aF0.0
aF0.0
aF0.0
aF0.0
aatp647
.